ARM GAS  C:\Users\luoha\AppData\Local\Temp\ccEkGTcv.s 			page 1


   1              		.cpu cortex-m4
   2              		.eabi_attribute 27, 1
   3              		.eabi_attribute 28, 1
   4              		.eabi_attribute 20, 1
   5              		.eabi_attribute 21, 1
   6              		.eabi_attribute 23, 3
   7              		.eabi_attribute 24, 1
   8              		.eabi_attribute 25, 1
   9              		.eabi_attribute 26, 1
  10              		.eabi_attribute 30, 1
  11              		.eabi_attribute 34, 1
  12              		.eabi_attribute 18, 4
  13              		.file	"eskf.c"
  14              		.text
  15              	.Ltext0:
  16              		.cfi_sections	.debug_frame
  17              		.section	.rodata.EskfInit.str1.4,"aMS",%progbits,1
  18              		.align	2
  19              	.LC0:
  20 0000 53756363 		.ascii	"Success to Init Eskf!\015\012\015\000"
  20      65737320 
  20      746F2049 
  20      6E697420 
  20      45736B66 
  21              		.section	.text.EskfInit,"ax",%progbits
  22              		.align	1
  23              		.global	EskfInit
  24              		.arch armv7e-m
  25              		.syntax unified
  26              		.thumb
  27              		.thumb_func
  28              		.fpu fpv4-sp-d16
  30              	EskfInit:
  31              	.LVL0:
  32              	.LFB172:
  33              		.file 1 "Modules/src/eskf.c"
   1:Modules/src/eskf.c **** #include "eskf.h"
   2:Modules/src/eskf.c **** 
   3:Modules/src/eskf.c **** float gravity[3];
   4:Modules/src/eskf.c **** // MAT_ALLOC(gravity, 3, 1);
   5:Modules/src/eskf.c **** // MAT_ALLOC(acc_var, 3, 1);
   6:Modules/src/eskf.c **** // MAT_ALLOC(gyro_var, 3, 1);
   7:Modules/src/eskf.c **** // MAT_ALLOC(acc_bias_var, 3, 1);
   8:Modules/src/eskf.c **** // MAT_ALLOC(gyro_bias_var, 3, 1);
   9:Modules/src/eskf.c **** 
  10:Modules/src/eskf.c **** // MAT_ALLOC(p, 3, 1);
  11:Modules/src/eskf.c **** // MAT_ALLOC(v, 3, 1);
  12:Modules/src/eskf.c **** // MAT_ALLOC(R, 3, 1);
  13:Modules/src/eskf.c **** 
  14:Modules/src/eskf.c **** eskf_state state;
  15:Modules/src/eskf.c **** 
  16:Modules/src/eskf.c **** bool EskfInit(const float32_t _gravity,
  17:Modules/src/eskf.c ****               const float32_t _acc_var,
  18:Modules/src/eskf.c ****               const float32_t _gyro_var,
  19:Modules/src/eskf.c ****               const float32_t _acc_bias_var,
  20:Modules/src/eskf.c ****               const float32_t _gyro_bias_var) {
  34              		.loc 1 20 47 view -0
ARM GAS  C:\Users\luoha\AppData\Local\Temp\ccEkGTcv.s 			page 2


  35              		.cfi_startproc
  36              		@ args = 0, pretend = 0, frame = 0
  37              		@ frame_needed = 0, uses_anonymous_args = 0
  38              		.loc 1 20 47 is_stmt 0 view .LVU1
  39 0000 F8B5     		push	{r3, r4, r5, r6, r7, lr}
  40              	.LCFI0:
  41              		.cfi_def_cfa_offset 24
  42              		.cfi_offset 3, -24
  43              		.cfi_offset 4, -20
  44              		.cfi_offset 5, -16
  45              		.cfi_offset 6, -12
  46              		.cfi_offset 7, -8
  47              		.cfi_offset 14, -4
  21:Modules/src/eskf.c **** 
  22:Modules/src/eskf.c ****     gravity[0] = 0.f;
  48              		.loc 1 22 5 is_stmt 1 view .LVU2
  49              		.loc 1 22 16 is_stmt 0 view .LVU3
  50 0002 2A4A     		ldr	r2, .L3
  51 0004 0023     		movs	r3, #0
  52 0006 1360     		str	r3, [r2]	@ float
  23:Modules/src/eskf.c ****     gravity[1] = 0.f;
  53              		.loc 1 23 5 is_stmt 1 view .LVU4
  54              		.loc 1 23 16 is_stmt 0 view .LVU5
  55 0008 5360     		str	r3, [r2, #4]	@ float
  24:Modules/src/eskf.c ****     gravity[2] = -_gravity;
  56              		.loc 1 24 5 is_stmt 1 view .LVU6
  57              		.loc 1 24 18 is_stmt 0 view .LVU7
  58 000a B1EE400A 		vneg.f32	s0, s0
  59              	.LVL1:
  60              		.loc 1 24 16 view .LVU8
  61 000e 82ED020A 		vstr.32	s0, [r2, #8]
  25:Modules/src/eskf.c **** 
  26:Modules/src/eskf.c ****     /* initialize the nominal state */
  27:Modules/src/eskf.c ****     memset(state.p, 0, 3*sizeof(float));
  62              		.loc 1 27 5 is_stmt 1 view .LVU9
  63 0012 274C     		ldr	r4, .L3+4
  64 0014 0025     		movs	r5, #0
  65 0016 2560     		str	r5, [r4]
  66 0018 6560     		str	r5, [r4, #4]
  67 001a A560     		str	r5, [r4, #8]
  28:Modules/src/eskf.c ****     memset(state.v, 0, 3*sizeof(float));
  68              		.loc 1 28 5 view .LVU10
  69 001c E560     		str	r5, [r4, #12]
  70 001e 2561     		str	r5, [r4, #16]
  71 0020 6561     		str	r5, [r4, #20]
  29:Modules/src/eskf.c ****     memset(state.acc_bias, 0, 3*sizeof(float));
  72              		.loc 1 29 5 view .LVU11
  73 0022 E564     		str	r5, [r4, #76]
  74 0024 2565     		str	r5, [r4, #80]
  75 0026 6565     		str	r5, [r4, #84]
  30:Modules/src/eskf.c ****     memset(state.gyro_bias, 0, 3*sizeof(float));
  76              		.loc 1 30 5 view .LVU12
  77 0028 A565     		str	r5, [r4, #88]
  78 002a E565     		str	r5, [r4, #92]
  79 002c 2566     		str	r5, [r4, #96]
  31:Modules/src/eskf.c **** 
  32:Modules/src/eskf.c ****     state.q[0] = 1.0f; state.q[1] = 0.0f; state.q[2] = 0.0f; state.q[3] = 0.0f;
ARM GAS  C:\Users\luoha\AppData\Local\Temp\ccEkGTcv.s 			page 3


  80              		.loc 1 32 5 view .LVU13
  81              		.loc 1 32 16 is_stmt 0 view .LVU14
  82 002e 4FF07E56 		mov	r6, #1065353216
  83 0032 A661     		str	r6, [r4, #24]	@ float
  84              		.loc 1 32 24 is_stmt 1 view .LVU15
  85              		.loc 1 32 35 is_stmt 0 view .LVU16
  86 0034 E361     		str	r3, [r4, #28]	@ float
  87              		.loc 1 32 43 is_stmt 1 view .LVU17
  88              		.loc 1 32 54 is_stmt 0 view .LVU18
  89 0036 2362     		str	r3, [r4, #32]	@ float
  90              		.loc 1 32 62 is_stmt 1 view .LVU19
  91              		.loc 1 32 73 is_stmt 0 view .LVU20
  92 0038 6362     		str	r3, [r4, #36]	@ float
  33:Modules/src/eskf.c **** 
  34:Modules/src/eskf.c ****     state.R[0][0] = 1.0f; state.R[0][1] = 0.0f; state.R[0][2] = 0.0f;
  93              		.loc 1 34 5 is_stmt 1 view .LVU21
  94              		.loc 1 34 19 is_stmt 0 view .LVU22
  95 003a A662     		str	r6, [r4, #40]	@ float
  96              		.loc 1 34 27 is_stmt 1 view .LVU23
  97              		.loc 1 34 41 is_stmt 0 view .LVU24
  98 003c E362     		str	r3, [r4, #44]	@ float
  99              		.loc 1 34 49 is_stmt 1 view .LVU25
 100              		.loc 1 34 63 is_stmt 0 view .LVU26
 101 003e 2363     		str	r3, [r4, #48]	@ float
  35:Modules/src/eskf.c ****     state.R[1][0] = 0.0f; state.R[1][1] = 1.0f; state.R[1][2] = 0.0f;
 102              		.loc 1 35 5 is_stmt 1 view .LVU27
 103              		.loc 1 35 19 is_stmt 0 view .LVU28
 104 0040 6363     		str	r3, [r4, #52]	@ float
 105              		.loc 1 35 27 is_stmt 1 view .LVU29
 106              		.loc 1 35 41 is_stmt 0 view .LVU30
 107 0042 A663     		str	r6, [r4, #56]	@ float
 108              		.loc 1 35 49 is_stmt 1 view .LVU31
 109              		.loc 1 35 63 is_stmt 0 view .LVU32
 110 0044 E363     		str	r3, [r4, #60]	@ float
  36:Modules/src/eskf.c ****     state.R[2][0] = 0.0f; state.R[2][1] = 0.0f; state.R[2][2] = 1.0f;
 111              		.loc 1 36 5 is_stmt 1 view .LVU33
 112              		.loc 1 36 19 is_stmt 0 view .LVU34
 113 0046 2364     		str	r3, [r4, #64]	@ float
 114              		.loc 1 36 27 is_stmt 1 view .LVU35
 115              		.loc 1 36 41 is_stmt 0 view .LVU36
 116 0048 6364     		str	r3, [r4, #68]	@ float
 117              		.loc 1 36 49 is_stmt 1 view .LVU37
 118              		.loc 1 36 63 is_stmt 0 view .LVU38
 119 004a A664     		str	r6, [r4, #72]	@ float
  37:Modules/src/eskf.c **** 
  38:Modules/src/eskf.c ****     MAT_INIT(state.COV, 16, 16);
 120              		.loc 1 38 5 is_stmt 1 view .LVU39
 121 004c 04F16C07 		add	r7, r4, #108
 122 0050 3B46     		mov	r3, r7
 123 0052 1022     		movs	r2, #16
 124 0054 1146     		mov	r1, r2
 125 0056 04F16400 		add	r0, r4, #100
 126 005a FFF7FEFF 		bl	arm_mat_init_f32
 127              	.LVL2:
  39:Modules/src/eskf.c ****     memset(state.COV_arr, 0, 256*sizeof(float));
 128              		.loc 1 39 5 view .LVU40
 129 005e 4FF48062 		mov	r2, #1024
ARM GAS  C:\Users\luoha\AppData\Local\Temp\ccEkGTcv.s 			page 4


 130 0062 2946     		mov	r1, r5
 131 0064 3846     		mov	r0, r7
 132 0066 FFF7FEFF 		bl	memset
 133              	.LVL3:
  40:Modules/src/eskf.c ****     state.COV_arr[STATE_PX][STATE_PX] = 1.f * 1.f; // position x
 134              		.loc 1 40 5 view .LVU41
 135              		.loc 1 40 39 is_stmt 0 view .LVU42
 136 006a E666     		str	r6, [r4, #108]	@ float
  41:Modules/src/eskf.c ****     state.COV_arr[STATE_PY][STATE_PY] = 1.f * 1.f; // position y
 137              		.loc 1 41 5 is_stmt 1 view .LVU43
 138              		.loc 1 41 39 is_stmt 0 view .LVU44
 139 006c C4F8B060 		str	r6, [r4, #176]	@ float
  42:Modules/src/eskf.c ****     state.COV_arr[STATE_PZ][STATE_PZ] = 1.f * 1.f; // position z
 140              		.loc 1 42 5 is_stmt 1 view .LVU45
 141              		.loc 1 42 39 is_stmt 0 view .LVU46
 142 0070 C4F8F460 		str	r6, [r4, #244]	@ float
  43:Modules/src/eskf.c ****     state.COV_arr[STATE_PX][STATE_PX] = 1.f * 1.f; // velocity x
 143              		.loc 1 43 5 is_stmt 1 view .LVU47
  44:Modules/src/eskf.c ****     state.COV_arr[STATE_PY][STATE_PY] = 1.f * 1.f; // velocity y
 144              		.loc 1 44 5 view .LVU48
  45:Modules/src/eskf.c ****     state.COV_arr[STATE_PZ][STATE_PZ] = 1.f * 1.f; // velocity z
 145              		.loc 1 45 5 view .LVU49
  46:Modules/src/eskf.c ****     state.COV_arr[STATE_ROLL][STATE_ROLL] = (10.f * DEGREE2RADIAN) * (10.f * DEGREE2RADIAN); // rol
 146              		.loc 1 46 5 view .LVU50
 147              		.loc 1 46 43 is_stmt 0 view .LVU51
 148 0074 0F4B     		ldr	r3, .L3+8
 149 0076 C4F80432 		str	r3, [r4, #516]	@ float
  47:Modules/src/eskf.c ****     state.COV_arr[STATE_PITCH][STATE_PITCH] = (10.f * DEGREE2RADIAN) * (10.f * DEGREE2RADIAN); // p
 150              		.loc 1 47 5 is_stmt 1 view .LVU52
 151              		.loc 1 47 45 is_stmt 0 view .LVU53
 152 007a C4F84832 		str	r3, [r4, #584]	@ float
  48:Modules/src/eskf.c ****     state.COV_arr[STATE_YAW][STATE_YAW] = (10.f * DEGREE2RADIAN) * (10.f * DEGREE2RADIAN); // yaw
 153              		.loc 1 48 5 is_stmt 1 view .LVU54
 154              		.loc 1 48 41 is_stmt 0 view .LVU55
 155 007e C4F88C32 		str	r3, [r4, #652]	@ float
  49:Modules/src/eskf.c ****     state.COV_arr[STATE_ACC_BIAS_X][STATE_ACC_BIAS_X] = 0.1f * 0.1f; // ass bias x
 156              		.loc 1 49 5 is_stmt 1 view .LVU56
 157              		.loc 1 49 55 is_stmt 0 view .LVU57
 158 0082 0D4B     		ldr	r3, .L3+12
 159 0084 C4F8D032 		str	r3, [r4, #720]	@ float
  50:Modules/src/eskf.c ****     state.COV_arr[STATE_ACC_BIAS_Y][STATE_ACC_BIAS_Y] = 0.1f * 0.1f; // ass bias y
 160              		.loc 1 50 5 is_stmt 1 view .LVU58
 161              		.loc 1 50 55 is_stmt 0 view .LVU59
 162 0088 C4F81433 		str	r3, [r4, #788]	@ float
  51:Modules/src/eskf.c ****     state.COV_arr[STATE_ACC_BIAS_Y][STATE_ACC_BIAS_Z] = 0.1f * 0.1f; // ass bias z
 163              		.loc 1 51 5 is_stmt 1 view .LVU60
 164              		.loc 1 51 55 is_stmt 0 view .LVU61
 165 008c C4F81833 		str	r3, [r4, #792]	@ float
  52:Modules/src/eskf.c ****     state.COV_arr[STATE_GYRO_BIAS_X][STATE_GYRO_BIAS_X] = 0.01f * 0.01f; // ass gyro x
 166              		.loc 1 52 5 is_stmt 1 view .LVU62
 167              		.loc 1 52 57 is_stmt 0 view .LVU63
 168 0090 0A4B     		ldr	r3, .L3+16
 169 0092 C4F89C33 		str	r3, [r4, #924]	@ float
  53:Modules/src/eskf.c ****     state.COV_arr[STATE_GYRO_BIAS_Y][STATE_GYRO_BIAS_Y] = 0.01f * 0.01f; // ass gyro y
 170              		.loc 1 53 5 is_stmt 1 view .LVU64
 171              		.loc 1 53 57 is_stmt 0 view .LVU65
 172 0096 C4F8E033 		str	r3, [r4, #992]	@ float
ARM GAS  C:\Users\luoha\AppData\Local\Temp\ccEkGTcv.s 			page 5


  54:Modules/src/eskf.c ****     state.COV_arr[STATE_GYRO_BIAS_Z][STATE_GYRO_BIAS_Z] = 0.01f * 0.01f; // ass gyro z
 173              		.loc 1 54 5 is_stmt 1 view .LVU66
 174              		.loc 1 54 57 is_stmt 0 view .LVU67
 175 009a 04F22444 		addw	r4, r4, #1060
 176 009e 2360     		str	r3, [r4]	@ float
  55:Modules/src/eskf.c **** 
  56:Modules/src/eskf.c ****     printf("Success to Init Eskf!\r\n\r\n");
 177              		.loc 1 56 5 is_stmt 1 view .LVU68
 178 00a0 0748     		ldr	r0, .L3+20
 179 00a2 FFF7FEFF 		bl	puts
 180              	.LVL4:
  57:Modules/src/eskf.c ****     
  58:Modules/src/eskf.c ****     return true;
 181              		.loc 1 58 5 view .LVU69
  59:Modules/src/eskf.c **** }
 182              		.loc 1 59 1 is_stmt 0 view .LVU70
 183 00a6 0120     		movs	r0, #1
 184 00a8 F8BD     		pop	{r3, r4, r5, r6, r7, pc}
 185              	.L4:
 186 00aa 00BF     		.align	2
 187              	.L3:
 188 00ac 00000000 		.word	gravity
 189 00b0 00000000 		.word	state
 190 00b4 E68AF93C 		.word	1022986982
 191 00b8 0BD7233C 		.word	1008981771
 192 00bc 17B7D138 		.word	953267991
 193 00c0 00000000 		.word	.LC0
 194              		.cfi_endproc
 195              	.LFE172:
 197              		.section	.text.EskfPredict,"ax",%progbits
 198              		.align	1
 199              		.global	EskfPredict
 200              		.syntax unified
 201              		.thumb
 202              		.thumb_func
 203              		.fpu fpv4-sp-d16
 205              	EskfPredict:
 206              	.LVL5:
 207              	.LFB173:
  60:Modules/src/eskf.c **** 
  61:Modules/src/eskf.c **** void EskfPredict(const uint64_t *timestamp, const float *_acc, const float *_gyro) {
 208              		.loc 1 61 84 is_stmt 1 view -0
 209              		.cfi_startproc
 210              		@ args = 0, pretend = 0, frame = 0
 211              		@ frame_needed = 0, uses_anonymous_args = 0
 212              		@ link register save eliminated.
  62:Modules/src/eskf.c ****     static float acc_unbias[3];
 213              		.loc 1 62 5 view .LVU72
  63:Modules/src/eskf.c ****     static float gyro_unbias[3];
 214              		.loc 1 63 5 view .LVU73
  64:Modules/src/eskf.c ****     static float acc_world[3];
 215              		.loc 1 64 5 view .LVU74
  65:Modules/src/eskf.c **** 
  66:Modules/src/eskf.c ****     float dt = (float)(*timestamp - state.timestamp);
 216              		.loc 1 66 5 view .LVU75
  67:Modules/src/eskf.c ****     float dt2 = dt * dt;
 217              		.loc 1 67 5 view .LVU76
ARM GAS  C:\Users\luoha\AppData\Local\Temp\ccEkGTcv.s 			page 6


  68:Modules/src/eskf.c **** 
  69:Modules/src/eskf.c ****     acc_unbias[0] = _acc[0] - state.acc_bias[0];
 218              		.loc 1 69 5 view .LVU77
  70:Modules/src/eskf.c ****     acc_unbias[1] = _acc[1] - state.acc_bias[1];
 219              		.loc 1 70 5 view .LVU78
  71:Modules/src/eskf.c ****     acc_unbias[2] = _acc[2] - state.acc_bias[2];
 220              		.loc 1 71 5 view .LVU79
  72:Modules/src/eskf.c **** 
  73:Modules/src/eskf.c ****     gyro_unbias[0] = _gyro[0] - state.gyro_bias[0];
 221              		.loc 1 73 5 view .LVU80
  74:Modules/src/eskf.c ****     gyro_unbias[1] = _gyro[1] - state.gyro_bias[1];
 222              		.loc 1 74 5 view .LVU81
  75:Modules/src/eskf.c ****     gyro_unbias[2] = _gyro[2] - state.gyro_bias[2];
 223              		.loc 1 75 5 view .LVU82
  76:Modules/src/eskf.c **** 
  77:Modules/src/eskf.c ****     acc_world[0] = state.R[0][0] * acc_unbias[0] + state.R[0][1] * acc_unbias[1] + state.R[0][2] * 
 224              		.loc 1 77 5 view .LVU83
  78:Modules/src/eskf.c ****     acc_world[1] = state.R[1][0] * acc_unbias[0] + state.R[1][1] * acc_unbias[1] + state.R[1][2] * 
 225              		.loc 1 78 5 view .LVU84
  79:Modules/src/eskf.c ****     acc_world[2] = state.R[2][0] * acc_unbias[0] + state.R[2][1] * acc_unbias[1] + state.R[2][2] * 
 226              		.loc 1 79 5 view .LVU85
  80:Modules/src/eskf.c **** 
  81:Modules/src/eskf.c **** 
  82:Modules/src/eskf.c ****     // MAT_STATIC_ALLOC_INIT(acc_unbias, 3, 1);
  83:Modules/src/eskf.c ****     // MAT_STATIC_ALLOC_INIT(acc_world, 3, 1);
  84:Modules/src/eskf.c ****     // MAT_STATIC_ALLOC_INIT(gyro_unbias, 3, 1);
  85:Modules/src/eskf.c ****     
  86:Modules/src/eskf.c ****     // MAT_DATA(acc_unbias)[0] = _acc[0] - MAT_DATA(state.acc_bias)[0];
  87:Modules/src/eskf.c ****     // MAT_DATA(acc_unbias)[1] = _acc[1] - MAT_DATA(state.acc_bias)[1];
  88:Modules/src/eskf.c ****     // MAT_DATA(acc_unbias)[2] = _acc[2] - MAT_DATA(state.acc_bias)[2];
  89:Modules/src/eskf.c **** 
  90:Modules/src/eskf.c ****     // MAT_DATA(gyro_unbias)[0] = _gyro[0] - MAT_DATA(state.gyro_bias)[0];
  91:Modules/src/eskf.c ****     // MAT_DATA(gyro_unbias)[1] = _gyro[1] - MAT_DATA(state.gyro_bias)[1];
  92:Modules/src/eskf.c ****     // MAT_DATA(gyro_unbias)[2] = _gyro[2] - MAT_DATA(state.gyro_bias)[2];
  93:Modules/src/eskf.c **** 
  94:Modules/src/eskf.c ****     // MAT_MULT(&state.R, &acc_unbias, &acc_world);
  95:Modules/src/eskf.c **** 
  96:Modules/src/eskf.c ****     // MAT_DATA(acc_world)[0] = MAT_DATA(acc_world)[0] - MAT_DATA(gravity)[0];
  97:Modules/src/eskf.c ****     // MAT_DATA(acc_world)[1] = MAT_DATA(acc_world)[1] - MAT_DATA(gravity)[1];
  98:Modules/src/eskf.c ****     // MAT_DATA(acc_world)[2] = MAT_DATA(acc_world)[2] - MAT_DATA(gravity)[2];
  99:Modules/src/eskf.c **** 
 100:Modules/src/eskf.c ****     // MAT_DATA(state.p)[0] = MAT_DATA(state.p)[0] + MAT_DATA(state.v)[0] * dt + 0.5 * MAT_DATA(acc
 101:Modules/src/eskf.c ****     // MAT_DATA(state.p)[1] = MAT_DATA(state.p)[1] + MAT_DATA(state.v)[1] * dt + 0.5 * MAT_DATA(acc
 102:Modules/src/eskf.c ****     // MAT_DATA(state.p)[2] = MAT_DATA(state.p)[2] + MAT_DATA(state.v)[2] * dt + 0.5 * MAT_DATA(acc
 103:Modules/src/eskf.c **** 
 104:Modules/src/eskf.c ****     // MAT_DATA(state.v)[0] = MAT_DATA(state.v)[0] + MAT_DATA(acc_world)[0] * dt;
 105:Modules/src/eskf.c ****     // MAT_DATA(state.v)[1] = MAT_DATA(state.v)[1] + MAT_DATA(acc_world)[1] * dt;
 106:Modules/src/eskf.c ****     // MAT_DATA(state.v)[2] = MAT_DATA(state.v)[2] + MAT_DATA(acc_world)[2] * dt;
 107:Modules/src/eskf.c **** 
 108:Modules/src/eskf.c ****     // arm_mat_mult_f32(&state.R, &acc_unbias, &acc_world);
 109:Modules/src/eskf.c **** 
 110:Modules/src/eskf.c ****     // printf("%llu, %f, %f, %f\r\n", *timestamp, _acc[0], _acc[1], _acc[2]); 
 111:Modules/src/eskf.c ****     // printf("%llu, %f, %f, %f\r\n", *timestamp, MAT_DATA(acc_world)[0], MAT_DATA(acc_world)[1], M
 112:Modules/src/eskf.c ****     
 113:Modules/src/eskf.c **** }
 227              		.loc 1 113 1 is_stmt 0 view .LVU86
 228 0000 7047     		bx	lr
ARM GAS  C:\Users\luoha\AppData\Local\Temp\ccEkGTcv.s 			page 7


 229              		.cfi_endproc
 230              	.LFE173:
 232              		.comm	state,1168,8
 233              		.comm	gravity,12,4
 234              		.text
 235              	.Letext0:
 236              		.file 2 "c:\\gnu_tools_arm_embedded\\arm-none-eabi\\include\\machine\\_default_types.h"
 237              		.file 3 "c:\\gnu_tools_arm_embedded\\arm-none-eabi\\include\\sys\\_stdint.h"
 238              		.file 4 "c:\\gnu_tools_arm_embedded\\arm-none-eabi\\include\\sys\\lock.h"
 239              		.file 5 "c:\\gnu_tools_arm_embedded\\arm-none-eabi\\include\\sys\\_types.h"
 240              		.file 6 "c:\\gnu_tools_arm_embedded\\lib\\gcc\\arm-none-eabi\\9.2.1\\include\\stddef.h"
 241              		.file 7 "c:\\gnu_tools_arm_embedded\\arm-none-eabi\\include\\sys\\reent.h"
 242              		.file 8 "Inc/FreeRTOSConfig.h"
 243              		.file 9 "c:\\gnu_tools_arm_embedded\\arm-none-eabi\\include\\math.h"
 244              		.file 10 "Drivers/CMSIS/DSP/Include/arm_math.h"
 245              		.file 11 "Drivers/CMSIS/Include/core_cm4.h"
 246              		.file 12 "Drivers/CMSIS/Device/ST/STM32F4xx/Include/system_stm32f4xx.h"
 247              		.file 13 "Drivers/CMSIS/Device/ST/STM32F4xx/Include/stm32f407xx.h"
 248              		.file 14 "Drivers/STM32F4xx_HAL_Driver/Inc/stm32f4xx_hal_def.h"
 249              		.file 15 "Drivers/STM32F4xx_HAL_Driver/Inc/stm32f4xx_hal_dma.h"
 250              		.file 16 "Drivers/STM32F4xx_HAL_Driver/Inc/stm32f4xx_hal_uart.h"
 251              		.file 17 "Drivers/STM32F4xx_HAL_Driver/Inc/stm32f4xx_hal.h"
 252              		.file 18 "Modules/include/utils/utils.h"
 253              		.file 19 "Modules/include/eskf.h"
 254              		.file 20 "<built-in>"
ARM GAS  C:\Users\luoha\AppData\Local\Temp\ccEkGTcv.s 			page 8


DEFINED SYMBOLS
                            *ABS*:00000000 eskf.c
C:\Users\luoha\AppData\Local\Temp\ccEkGTcv.s:18     .rodata.EskfInit.str1.4:00000000 $d
C:\Users\luoha\AppData\Local\Temp\ccEkGTcv.s:22     .text.EskfInit:00000000 $t
C:\Users\luoha\AppData\Local\Temp\ccEkGTcv.s:30     .text.EskfInit:00000000 EskfInit
C:\Users\luoha\AppData\Local\Temp\ccEkGTcv.s:188    .text.EskfInit:000000ac $d
                            *COM*:0000000c gravity
                            *COM*:00000490 state
C:\Users\luoha\AppData\Local\Temp\ccEkGTcv.s:198    .text.EskfPredict:00000000 $t
C:\Users\luoha\AppData\Local\Temp\ccEkGTcv.s:205    .text.EskfPredict:00000000 EskfPredict

UNDEFINED SYMBOLS
arm_mat_init_f32
memset
puts
