ARM GAS  C:\Users\luoha\AppData\Local\Temp\ccZoZtZi.s 			page 1


   1              		.cpu cortex-m4
   2              		.eabi_attribute 27, 1
   3              		.eabi_attribute 28, 1
   4              		.eabi_attribute 20, 1
   5              		.eabi_attribute 21, 1
   6              		.eabi_attribute 23, 3
   7              		.eabi_attribute 24, 1
   8              		.eabi_attribute 25, 1
   9              		.eabi_attribute 26, 1
  10              		.eabi_attribute 30, 1
  11              		.eabi_attribute 34, 1
  12              		.eabi_attribute 18, 4
  13              		.file	"i2c.c"
  14              		.text
  15              	.Ltext0:
  16              		.cfi_sections	.debug_frame
  17              		.section	.text.MX_I2C1_Init,"ax",%progbits
  18              		.align	1
  19              		.global	MX_I2C1_Init
  20              		.arch armv7e-m
  21              		.syntax unified
  22              		.thumb
  23              		.thumb_func
  24              		.fpu fpv4-sp-d16
  26              	MX_I2C1_Init:
  27              	.LFB133:
  28              		.file 1 "Src/i2c.c"
   1:Src/i2c.c     **** /**
   2:Src/i2c.c     ****   ******************************************************************************
   3:Src/i2c.c     ****   * File Name          : I2C.c
   4:Src/i2c.c     ****   * Description        : This file provides code for the configuration
   5:Src/i2c.c     ****   *                      of the I2C instances.
   6:Src/i2c.c     ****   ******************************************************************************
   7:Src/i2c.c     ****   * @attention
   8:Src/i2c.c     ****   *
   9:Src/i2c.c     ****   * <h2><center>&copy; Copyright (c) 2020 STMicroelectronics.
  10:Src/i2c.c     ****   * All rights reserved.</center></h2>
  11:Src/i2c.c     ****   *
  12:Src/i2c.c     ****   * This software component is licensed by ST under Ultimate Liberty license
  13:Src/i2c.c     ****   * SLA0044, the "License"; You may not use this file except in compliance with
  14:Src/i2c.c     ****   * the License. You may obtain a copy of the License at:
  15:Src/i2c.c     ****   *                             www.st.com/SLA0044
  16:Src/i2c.c     ****   *
  17:Src/i2c.c     ****   ******************************************************************************
  18:Src/i2c.c     ****   */
  19:Src/i2c.c     **** 
  20:Src/i2c.c     **** /* Includes ------------------------------------------------------------------*/
  21:Src/i2c.c     **** #include "i2c.h"
  22:Src/i2c.c     **** 
  23:Src/i2c.c     **** /* USER CODE BEGIN 0 */
  24:Src/i2c.c     **** 
  25:Src/i2c.c     **** /* USER CODE END 0 */
  26:Src/i2c.c     **** 
  27:Src/i2c.c     **** I2C_HandleTypeDef hi2c1;
  28:Src/i2c.c     **** 
  29:Src/i2c.c     **** /* I2C1 init function */
  30:Src/i2c.c     **** void MX_I2C1_Init(void)
ARM GAS  C:\Users\luoha\AppData\Local\Temp\ccZoZtZi.s 			page 2


  31:Src/i2c.c     **** {
  29              		.loc 1 31 1 view -0
  30              		.cfi_startproc
  31              		@ args = 0, pretend = 0, frame = 0
  32              		@ frame_needed = 0, uses_anonymous_args = 0
  33 0000 08B5     		push	{r3, lr}
  34              	.LCFI0:
  35              		.cfi_def_cfa_offset 8
  36              		.cfi_offset 3, -8
  37              		.cfi_offset 14, -4
  32:Src/i2c.c     **** 
  33:Src/i2c.c     ****   hi2c1.Instance = I2C1;
  38              		.loc 1 33 3 view .LVU1
  39              		.loc 1 33 18 is_stmt 0 view .LVU2
  40 0002 0B48     		ldr	r0, .L5
  41 0004 0B4B     		ldr	r3, .L5+4
  42 0006 0360     		str	r3, [r0]
  34:Src/i2c.c     ****   hi2c1.Init.ClockSpeed = 400000;
  43              		.loc 1 34 3 is_stmt 1 view .LVU3
  44              		.loc 1 34 25 is_stmt 0 view .LVU4
  45 0008 0B4B     		ldr	r3, .L5+8
  46 000a 4360     		str	r3, [r0, #4]
  35:Src/i2c.c     ****   hi2c1.Init.DutyCycle = I2C_DUTYCYCLE_2;
  47              		.loc 1 35 3 is_stmt 1 view .LVU5
  48              		.loc 1 35 24 is_stmt 0 view .LVU6
  49 000c 0023     		movs	r3, #0
  50 000e 8360     		str	r3, [r0, #8]
  36:Src/i2c.c     ****   hi2c1.Init.OwnAddress1 = 20;
  51              		.loc 1 36 3 is_stmt 1 view .LVU7
  52              		.loc 1 36 26 is_stmt 0 view .LVU8
  53 0010 1422     		movs	r2, #20
  54 0012 C260     		str	r2, [r0, #12]
  37:Src/i2c.c     ****   hi2c1.Init.AddressingMode = I2C_ADDRESSINGMODE_7BIT;
  55              		.loc 1 37 3 is_stmt 1 view .LVU9
  56              		.loc 1 37 29 is_stmt 0 view .LVU10
  57 0014 4FF48042 		mov	r2, #16384
  58 0018 0261     		str	r2, [r0, #16]
  38:Src/i2c.c     ****   hi2c1.Init.DualAddressMode = I2C_DUALADDRESS_DISABLE;
  59              		.loc 1 38 3 is_stmt 1 view .LVU11
  60              		.loc 1 38 30 is_stmt 0 view .LVU12
  61 001a 4361     		str	r3, [r0, #20]
  39:Src/i2c.c     ****   hi2c1.Init.OwnAddress2 = 0;
  62              		.loc 1 39 3 is_stmt 1 view .LVU13
  63              		.loc 1 39 26 is_stmt 0 view .LVU14
  64 001c 8361     		str	r3, [r0, #24]
  40:Src/i2c.c     ****   hi2c1.Init.GeneralCallMode = I2C_GENERALCALL_DISABLE;
  65              		.loc 1 40 3 is_stmt 1 view .LVU15
  66              		.loc 1 40 30 is_stmt 0 view .LVU16
  67 001e C361     		str	r3, [r0, #28]
  41:Src/i2c.c     ****   hi2c1.Init.NoStretchMode = I2C_NOSTRETCH_DISABLE;
  68              		.loc 1 41 3 is_stmt 1 view .LVU17
  69              		.loc 1 41 28 is_stmt 0 view .LVU18
  70 0020 0362     		str	r3, [r0, #32]
  42:Src/i2c.c     ****   if (HAL_I2C_Init(&hi2c1) != HAL_OK)
  71              		.loc 1 42 3 is_stmt 1 view .LVU19
  72              		.loc 1 42 7 is_stmt 0 view .LVU20
  73 0022 FFF7FEFF 		bl	HAL_I2C_Init
ARM GAS  C:\Users\luoha\AppData\Local\Temp\ccZoZtZi.s 			page 3


  74              	.LVL0:
  75              		.loc 1 42 6 view .LVU21
  76 0026 00B9     		cbnz	r0, .L4
  77              	.L1:
  43:Src/i2c.c     ****   {
  44:Src/i2c.c     ****     Error_Handler();
  45:Src/i2c.c     ****   }
  46:Src/i2c.c     **** 
  47:Src/i2c.c     **** }
  78              		.loc 1 47 1 view .LVU22
  79 0028 08BD     		pop	{r3, pc}
  80              	.L4:
  44:Src/i2c.c     ****   }
  81              		.loc 1 44 5 is_stmt 1 view .LVU23
  82 002a FFF7FEFF 		bl	Error_Handler
  83              	.LVL1:
  84              		.loc 1 47 1 is_stmt 0 view .LVU24
  85 002e FBE7     		b	.L1
  86              	.L6:
  87              		.align	2
  88              	.L5:
  89 0030 00000000 		.word	hi2c1
  90 0034 00540040 		.word	1073763328
  91 0038 801A0600 		.word	400000
  92              		.cfi_endproc
  93              	.LFE133:
  95              		.section	.text.HAL_I2C_MspInit,"ax",%progbits
  96              		.align	1
  97              		.global	HAL_I2C_MspInit
  98              		.syntax unified
  99              		.thumb
 100              		.thumb_func
 101              		.fpu fpv4-sp-d16
 103              	HAL_I2C_MspInit:
 104              	.LVL2:
 105              	.LFB134:
  48:Src/i2c.c     **** 
  49:Src/i2c.c     **** void HAL_I2C_MspInit(I2C_HandleTypeDef* i2cHandle)
  50:Src/i2c.c     **** {
 106              		.loc 1 50 1 is_stmt 1 view -0
 107              		.cfi_startproc
 108              		@ args = 0, pretend = 0, frame = 32
 109              		@ frame_needed = 0, uses_anonymous_args = 0
 110              		.loc 1 50 1 is_stmt 0 view .LVU26
 111 0000 30B5     		push	{r4, r5, lr}
 112              	.LCFI1:
 113              		.cfi_def_cfa_offset 12
 114              		.cfi_offset 4, -12
 115              		.cfi_offset 5, -8
 116              		.cfi_offset 14, -4
 117 0002 89B0     		sub	sp, sp, #36
 118              	.LCFI2:
 119              		.cfi_def_cfa_offset 48
  51:Src/i2c.c     **** 
  52:Src/i2c.c     ****   GPIO_InitTypeDef GPIO_InitStruct = {0};
 120              		.loc 1 52 3 is_stmt 1 view .LVU27
 121              		.loc 1 52 20 is_stmt 0 view .LVU28
ARM GAS  C:\Users\luoha\AppData\Local\Temp\ccZoZtZi.s 			page 4


 122 0004 0023     		movs	r3, #0
 123 0006 0393     		str	r3, [sp, #12]
 124 0008 0493     		str	r3, [sp, #16]
 125 000a 0593     		str	r3, [sp, #20]
 126 000c 0693     		str	r3, [sp, #24]
 127 000e 0793     		str	r3, [sp, #28]
  53:Src/i2c.c     ****   if(i2cHandle->Instance==I2C1)
 128              		.loc 1 53 3 is_stmt 1 view .LVU29
 129              		.loc 1 53 15 is_stmt 0 view .LVU30
 130 0010 0268     		ldr	r2, [r0]
 131              		.loc 1 53 5 view .LVU31
 132 0012 154B     		ldr	r3, .L11
 133 0014 9A42     		cmp	r2, r3
 134 0016 01D0     		beq	.L10
 135              	.LVL3:
 136              	.L7:
  54:Src/i2c.c     ****   {
  55:Src/i2c.c     ****   /* USER CODE BEGIN I2C1_MspInit 0 */
  56:Src/i2c.c     **** 
  57:Src/i2c.c     ****   /* USER CODE END I2C1_MspInit 0 */
  58:Src/i2c.c     ****   
  59:Src/i2c.c     ****     __HAL_RCC_GPIOB_CLK_ENABLE();
  60:Src/i2c.c     ****     /**I2C1 GPIO Configuration    
  61:Src/i2c.c     ****     PB6     ------> I2C1_SCL
  62:Src/i2c.c     ****     PB7     ------> I2C1_SDA 
  63:Src/i2c.c     ****     */
  64:Src/i2c.c     ****     GPIO_InitStruct.Pin = GPIO_PIN_6|GPIO_PIN_7;
  65:Src/i2c.c     ****     GPIO_InitStruct.Mode = GPIO_MODE_AF_OD;
  66:Src/i2c.c     ****     GPIO_InitStruct.Pull = GPIO_PULLUP;
  67:Src/i2c.c     ****     GPIO_InitStruct.Speed = GPIO_SPEED_FREQ_VERY_HIGH;
  68:Src/i2c.c     ****     GPIO_InitStruct.Alternate = GPIO_AF4_I2C1;
  69:Src/i2c.c     ****     HAL_GPIO_Init(GPIOB, &GPIO_InitStruct);
  70:Src/i2c.c     **** 
  71:Src/i2c.c     ****     /* I2C1 clock enable */
  72:Src/i2c.c     ****     __HAL_RCC_I2C1_CLK_ENABLE();
  73:Src/i2c.c     ****   /* USER CODE BEGIN I2C1_MspInit 1 */
  74:Src/i2c.c     **** 
  75:Src/i2c.c     ****   /* USER CODE END I2C1_MspInit 1 */
  76:Src/i2c.c     ****   }
  77:Src/i2c.c     **** }
 137              		.loc 1 77 1 view .LVU32
 138 0018 09B0     		add	sp, sp, #36
 139              	.LCFI3:
 140              		.cfi_remember_state
 141              		.cfi_def_cfa_offset 12
 142              		@ sp needed
 143 001a 30BD     		pop	{r4, r5, pc}
 144              	.LVL4:
 145              	.L10:
 146              	.LCFI4:
 147              		.cfi_restore_state
  59:Src/i2c.c     ****     /**I2C1 GPIO Configuration    
 148              		.loc 1 59 5 is_stmt 1 view .LVU33
 149              	.LBB2:
  59:Src/i2c.c     ****     /**I2C1 GPIO Configuration    
 150              		.loc 1 59 5 view .LVU34
 151 001c 0025     		movs	r5, #0
ARM GAS  C:\Users\luoha\AppData\Local\Temp\ccZoZtZi.s 			page 5


 152 001e 0195     		str	r5, [sp, #4]
  59:Src/i2c.c     ****     /**I2C1 GPIO Configuration    
 153              		.loc 1 59 5 view .LVU35
 154 0020 124C     		ldr	r4, .L11+4
 155 0022 236B     		ldr	r3, [r4, #48]
 156 0024 43F00203 		orr	r3, r3, #2
 157 0028 2363     		str	r3, [r4, #48]
  59:Src/i2c.c     ****     /**I2C1 GPIO Configuration    
 158              		.loc 1 59 5 view .LVU36
 159 002a 236B     		ldr	r3, [r4, #48]
 160 002c 03F00203 		and	r3, r3, #2
 161 0030 0193     		str	r3, [sp, #4]
  59:Src/i2c.c     ****     /**I2C1 GPIO Configuration    
 162              		.loc 1 59 5 view .LVU37
 163 0032 019B     		ldr	r3, [sp, #4]
 164              	.LBE2:
  59:Src/i2c.c     ****     /**I2C1 GPIO Configuration    
 165              		.loc 1 59 5 view .LVU38
  64:Src/i2c.c     ****     GPIO_InitStruct.Mode = GPIO_MODE_AF_OD;
 166              		.loc 1 64 5 view .LVU39
  64:Src/i2c.c     ****     GPIO_InitStruct.Mode = GPIO_MODE_AF_OD;
 167              		.loc 1 64 25 is_stmt 0 view .LVU40
 168 0034 C023     		movs	r3, #192
 169 0036 0393     		str	r3, [sp, #12]
  65:Src/i2c.c     ****     GPIO_InitStruct.Pull = GPIO_PULLUP;
 170              		.loc 1 65 5 is_stmt 1 view .LVU41
  65:Src/i2c.c     ****     GPIO_InitStruct.Pull = GPIO_PULLUP;
 171              		.loc 1 65 26 is_stmt 0 view .LVU42
 172 0038 1223     		movs	r3, #18
 173 003a 0493     		str	r3, [sp, #16]
  66:Src/i2c.c     ****     GPIO_InitStruct.Speed = GPIO_SPEED_FREQ_VERY_HIGH;
 174              		.loc 1 66 5 is_stmt 1 view .LVU43
  66:Src/i2c.c     ****     GPIO_InitStruct.Speed = GPIO_SPEED_FREQ_VERY_HIGH;
 175              		.loc 1 66 26 is_stmt 0 view .LVU44
 176 003c 0123     		movs	r3, #1
 177 003e 0593     		str	r3, [sp, #20]
  67:Src/i2c.c     ****     GPIO_InitStruct.Alternate = GPIO_AF4_I2C1;
 178              		.loc 1 67 5 is_stmt 1 view .LVU45
  67:Src/i2c.c     ****     GPIO_InitStruct.Alternate = GPIO_AF4_I2C1;
 179              		.loc 1 67 27 is_stmt 0 view .LVU46
 180 0040 0323     		movs	r3, #3
 181 0042 0693     		str	r3, [sp, #24]
  68:Src/i2c.c     ****     HAL_GPIO_Init(GPIOB, &GPIO_InitStruct);
 182              		.loc 1 68 5 is_stmt 1 view .LVU47
  68:Src/i2c.c     ****     HAL_GPIO_Init(GPIOB, &GPIO_InitStruct);
 183              		.loc 1 68 31 is_stmt 0 view .LVU48
 184 0044 0423     		movs	r3, #4
 185 0046 0793     		str	r3, [sp, #28]
  69:Src/i2c.c     **** 
 186              		.loc 1 69 5 is_stmt 1 view .LVU49
 187 0048 03A9     		add	r1, sp, #12
 188 004a 0948     		ldr	r0, .L11+8
 189              	.LVL5:
  69:Src/i2c.c     **** 
 190              		.loc 1 69 5 is_stmt 0 view .LVU50
 191 004c FFF7FEFF 		bl	HAL_GPIO_Init
 192              	.LVL6:
ARM GAS  C:\Users\luoha\AppData\Local\Temp\ccZoZtZi.s 			page 6


  72:Src/i2c.c     ****   /* USER CODE BEGIN I2C1_MspInit 1 */
 193              		.loc 1 72 5 is_stmt 1 view .LVU51
 194              	.LBB3:
  72:Src/i2c.c     ****   /* USER CODE BEGIN I2C1_MspInit 1 */
 195              		.loc 1 72 5 view .LVU52
 196 0050 0295     		str	r5, [sp, #8]
  72:Src/i2c.c     ****   /* USER CODE BEGIN I2C1_MspInit 1 */
 197              		.loc 1 72 5 view .LVU53
 198 0052 236C     		ldr	r3, [r4, #64]
 199 0054 43F40013 		orr	r3, r3, #2097152
 200 0058 2364     		str	r3, [r4, #64]
  72:Src/i2c.c     ****   /* USER CODE BEGIN I2C1_MspInit 1 */
 201              		.loc 1 72 5 view .LVU54
 202 005a 236C     		ldr	r3, [r4, #64]
 203 005c 03F40013 		and	r3, r3, #2097152
 204 0060 0293     		str	r3, [sp, #8]
  72:Src/i2c.c     ****   /* USER CODE BEGIN I2C1_MspInit 1 */
 205              		.loc 1 72 5 view .LVU55
 206 0062 029B     		ldr	r3, [sp, #8]
 207              	.LBE3:
  72:Src/i2c.c     ****   /* USER CODE BEGIN I2C1_MspInit 1 */
 208              		.loc 1 72 5 view .LVU56
 209              		.loc 1 77 1 is_stmt 0 view .LVU57
 210 0064 D8E7     		b	.L7
 211              	.L12:
 212 0066 00BF     		.align	2
 213              	.L11:
 214 0068 00540040 		.word	1073763328
 215 006c 00380240 		.word	1073887232
 216 0070 00040240 		.word	1073873920
 217              		.cfi_endproc
 218              	.LFE134:
 220              		.section	.text.HAL_I2C_MspDeInit,"ax",%progbits
 221              		.align	1
 222              		.global	HAL_I2C_MspDeInit
 223              		.syntax unified
 224              		.thumb
 225              		.thumb_func
 226              		.fpu fpv4-sp-d16
 228              	HAL_I2C_MspDeInit:
 229              	.LVL7:
 230              	.LFB135:
  78:Src/i2c.c     **** 
  79:Src/i2c.c     **** void HAL_I2C_MspDeInit(I2C_HandleTypeDef* i2cHandle)
  80:Src/i2c.c     **** {
 231              		.loc 1 80 1 is_stmt 1 view -0
 232              		.cfi_startproc
 233              		@ args = 0, pretend = 0, frame = 0
 234              		@ frame_needed = 0, uses_anonymous_args = 0
 235              		.loc 1 80 1 is_stmt 0 view .LVU59
 236 0000 08B5     		push	{r3, lr}
 237              	.LCFI5:
 238              		.cfi_def_cfa_offset 8
 239              		.cfi_offset 3, -8
 240              		.cfi_offset 14, -4
  81:Src/i2c.c     **** 
  82:Src/i2c.c     ****   if(i2cHandle->Instance==I2C1)
ARM GAS  C:\Users\luoha\AppData\Local\Temp\ccZoZtZi.s 			page 7


 241              		.loc 1 82 3 is_stmt 1 view .LVU60
 242              		.loc 1 82 15 is_stmt 0 view .LVU61
 243 0002 0268     		ldr	r2, [r0]
 244              		.loc 1 82 5 view .LVU62
 245 0004 064B     		ldr	r3, .L17
 246 0006 9A42     		cmp	r2, r3
 247 0008 00D0     		beq	.L16
 248              	.LVL8:
 249              	.L13:
  83:Src/i2c.c     ****   {
  84:Src/i2c.c     ****   /* USER CODE BEGIN I2C1_MspDeInit 0 */
  85:Src/i2c.c     **** 
  86:Src/i2c.c     ****   /* USER CODE END I2C1_MspDeInit 0 */
  87:Src/i2c.c     ****     /* Peripheral clock disable */
  88:Src/i2c.c     ****     __HAL_RCC_I2C1_CLK_DISABLE();
  89:Src/i2c.c     ****   
  90:Src/i2c.c     ****     /**I2C1 GPIO Configuration    
  91:Src/i2c.c     ****     PB6     ------> I2C1_SCL
  92:Src/i2c.c     ****     PB7     ------> I2C1_SDA 
  93:Src/i2c.c     ****     */
  94:Src/i2c.c     ****     HAL_GPIO_DeInit(GPIOB, GPIO_PIN_6|GPIO_PIN_7);
  95:Src/i2c.c     **** 
  96:Src/i2c.c     ****   /* USER CODE BEGIN I2C1_MspDeInit 1 */
  97:Src/i2c.c     **** 
  98:Src/i2c.c     ****   /* USER CODE END I2C1_MspDeInit 1 */
  99:Src/i2c.c     ****   }
 100:Src/i2c.c     **** } 
 250              		.loc 1 100 1 view .LVU63
 251 000a 08BD     		pop	{r3, pc}
 252              	.LVL9:
 253              	.L16:
  88:Src/i2c.c     ****   
 254              		.loc 1 88 5 is_stmt 1 view .LVU64
 255 000c 054A     		ldr	r2, .L17+4
 256 000e 136C     		ldr	r3, [r2, #64]
 257 0010 23F40013 		bic	r3, r3, #2097152
 258 0014 1364     		str	r3, [r2, #64]
  94:Src/i2c.c     **** 
 259              		.loc 1 94 5 view .LVU65
 260 0016 C021     		movs	r1, #192
 261 0018 0348     		ldr	r0, .L17+8
 262              	.LVL10:
  94:Src/i2c.c     **** 
 263              		.loc 1 94 5 is_stmt 0 view .LVU66
 264 001a FFF7FEFF 		bl	HAL_GPIO_DeInit
 265              	.LVL11:
 266              		.loc 1 100 1 view .LVU67
 267 001e F4E7     		b	.L13
 268              	.L18:
 269              		.align	2
 270              	.L17:
 271 0020 00540040 		.word	1073763328
 272 0024 00380240 		.word	1073887232
 273 0028 00040240 		.word	1073873920
 274              		.cfi_endproc
 275              	.LFE135:
 277              		.comm	hi2c1,84,4
ARM GAS  C:\Users\luoha\AppData\Local\Temp\ccZoZtZi.s 			page 8


 278              		.text
 279              	.Letext0:
 280              		.file 2 "e:\\gnu tools arm embedded\\9 2019-q4-major\\arm-none-eabi\\include\\machine\\_default_ty
 281              		.file 3 "e:\\gnu tools arm embedded\\9 2019-q4-major\\arm-none-eabi\\include\\sys\\_stdint.h"
 282              		.file 4 "Drivers/CMSIS/Include/core_cm4.h"
 283              		.file 5 "Drivers/CMSIS/Device/ST/STM32F4xx/Include/system_stm32f4xx.h"
 284              		.file 6 "Drivers/CMSIS/Device/ST/STM32F4xx/Include/stm32f407xx.h"
 285              		.file 7 "Drivers/STM32F4xx_HAL_Driver/Inc/stm32f4xx_hal_def.h"
 286              		.file 8 "Drivers/STM32F4xx_HAL_Driver/Inc/stm32f4xx_hal_gpio.h"
 287              		.file 9 "Drivers/STM32F4xx_HAL_Driver/Inc/stm32f4xx_hal_dma.h"
 288              		.file 10 "Drivers/STM32F4xx_HAL_Driver/Inc/stm32f4xx_hal_i2c.h"
 289              		.file 11 "Drivers/STM32F4xx_HAL_Driver/Inc/stm32f4xx_hal_uart.h"
 290              		.file 12 "Drivers/STM32F4xx_HAL_Driver/Inc/stm32f4xx_hal.h"
 291              		.file 13 "e:\\gnu tools arm embedded\\9 2019-q4-major\\arm-none-eabi\\include\\sys\\lock.h"
 292              		.file 14 "e:\\gnu tools arm embedded\\9 2019-q4-major\\arm-none-eabi\\include\\sys\\_types.h"
 293              		.file 15 "e:\\gnu tools arm embedded\\9 2019-q4-major\\lib\\gcc\\arm-none-eabi\\9.2.1\\include\\st
 294              		.file 16 "e:\\gnu tools arm embedded\\9 2019-q4-major\\arm-none-eabi\\include\\sys\\reent.h"
 295              		.file 17 "Modules/include/utils.h"
 296              		.file 18 "Inc/i2c.h"
 297              		.file 19 "Inc/main.h"
ARM GAS  C:\Users\luoha\AppData\Local\Temp\ccZoZtZi.s 			page 9

