ARM GAS  C:\Users\luoha\AppData\Local\Temp\ccZfe6cj.s 			page 1


   1              		.cpu cortex-m4
   2              		.eabi_attribute 27, 1
   3              		.eabi_attribute 28, 1
   4              		.eabi_attribute 20, 1
   5              		.eabi_attribute 21, 1
   6              		.eabi_attribute 23, 3
   7              		.eabi_attribute 24, 1
   8              		.eabi_attribute 25, 1
   9              		.eabi_attribute 26, 1
  10              		.eabi_attribute 30, 1
  11              		.eabi_attribute 34, 1
  12              		.eabi_attribute 18, 4
  13              		.file	"main.c"
  14              		.text
  15              	.Ltext0:
  16              		.cfi_sections	.debug_frame
  17              		.section	.text.SystemClock_Config,"ax",%progbits
  18              		.align	1
  19              		.global	SystemClock_Config
  20              		.arch armv7e-m
  21              		.syntax unified
  22              		.thumb
  23              		.thumb_func
  24              		.fpu fpv4-sp-d16
  26              	SystemClock_Config:
  27              	.LFB172:
  28              		.file 1 "Src/main.c"
   1:Src/main.c    **** /* USER CODE BEGIN Header */
   2:Src/main.c    **** /**
   3:Src/main.c    ****   ******************************************************************************
   4:Src/main.c    ****   * @file           : main.c
   5:Src/main.c    ****   * @brief          : Main program body
   6:Src/main.c    ****   ******************************************************************************
   7:Src/main.c    ****   * @attention
   8:Src/main.c    ****   *
   9:Src/main.c    ****   * <h2><center>&copy; Copyright (c) 2020 STMicroelectronics.
  10:Src/main.c    ****   * All rights reserved.</center></h2>
  11:Src/main.c    ****   *
  12:Src/main.c    ****   * This software component is licensed by ST under Ultimate Liberty license
  13:Src/main.c    ****   * SLA0044, the "License"; You may not use this file except in compliance with
  14:Src/main.c    ****   * the License. You may obtain a copy of the License at:
  15:Src/main.c    ****   *                             www.st.com/SLA0044
  16:Src/main.c    ****   *
  17:Src/main.c    ****   ******************************************************************************
  18:Src/main.c    ****   */
  19:Src/main.c    **** /* USER CODE END Header */
  20:Src/main.c    **** /* Includes ------------------------------------------------------------------*/
  21:Src/main.c    **** #include "main.h"
  22:Src/main.c    **** #include "cmsis_os.h"
  23:Src/main.c    **** #include "dma.h"
  24:Src/main.c    **** #include "i2c.h"
  25:Src/main.c    **** #include "tim.h"
  26:Src/main.c    **** #include "usart.h"
  27:Src/main.c    **** #include "gpio.h"
  28:Src/main.c    **** 
  29:Src/main.c    **** /* Private includes ----------------------------------------------------------*/
  30:Src/main.c    **** /* USER CODE BEGIN Includes */
ARM GAS  C:\Users\luoha\AppData\Local\Temp\ccZfe6cj.s 			page 2


  31:Src/main.c    **** // #include "uart4.h"
  32:Src/main.c    **** // #include "mavlink_task.h"
  33:Src/main.c    **** // #include "sensors.h"
  34:Src/main.c    **** // #include "dmp.h"
  35:Src/main.c    **** // #include "ms5611.h"
  36:Src/main.c    **** // #include "mpu6050.h"
  37:Src/main.c    **** // #include "i2c1.h"
  38:Src/main.c    **** // #include "gy_86.h"
  39:Src/main.c    **** #include "system_task.h"
  40:Src/main.c    **** 
  41:Src/main.c    **** #ifdef USE_SISTEMVEIW
  42:Src/main.c    **** #include "systemview_task.h"
  43:Src/main.c    **** #endif
  44:Src/main.c    **** /* USER CODE END Includes */
  45:Src/main.c    **** 
  46:Src/main.c    **** /* Private typedef -----------------------------------------------------------*/
  47:Src/main.c    **** /* USER CODE BEGIN PTD */
  48:Src/main.c    **** 
  49:Src/main.c    **** /* USER CODE END PTD */
  50:Src/main.c    **** 
  51:Src/main.c    **** /* Private define ------------------------------------------------------------*/
  52:Src/main.c    **** /* USER CODE BEGIN PD */
  53:Src/main.c    **** /* USER CODE END PD */
  54:Src/main.c    **** 
  55:Src/main.c    **** /* Private macro -------------------------------------------------------------*/
  56:Src/main.c    **** /* USER CODE BEGIN PM */
  57:Src/main.c    **** 
  58:Src/main.c    **** /* USER CODE END PM */
  59:Src/main.c    **** 
  60:Src/main.c    **** /* Private variables ---------------------------------------------------------*/
  61:Src/main.c    **** 
  62:Src/main.c    **** /* USER CODE BEGIN PV */
  63:Src/main.c    **** 
  64:Src/main.c    **** /* USER CODE END PV */
  65:Src/main.c    **** 
  66:Src/main.c    **** /* Private function prototypes -----------------------------------------------*/
  67:Src/main.c    **** void SystemClock_Config(void);
  68:Src/main.c    **** void MX_FREERTOS_Init(void);
  69:Src/main.c    **** /* USER CODE BEGIN PFP */
  70:Src/main.c    **** 
  71:Src/main.c    **** /* USER CODE END PFP */
  72:Src/main.c    **** 
  73:Src/main.c    **** /* Private user code ---------------------------------------------------------*/
  74:Src/main.c    **** /* USER CODE BEGIN 0 */
  75:Src/main.c    **** 
  76:Src/main.c    **** /* USER CODE END 0 */
  77:Src/main.c    **** 
  78:Src/main.c    **** /**
  79:Src/main.c    ****   * @brief  The application entry point.
  80:Src/main.c    ****   * @retval int
  81:Src/main.c    ****   */
  82:Src/main.c    **** int main(void)
  83:Src/main.c    **** {
  84:Src/main.c    ****   /* USER CODE BEGIN 1 */
  85:Src/main.c    **** 
  86:Src/main.c    ****   /* USER CODE END 1 */
  87:Src/main.c    **** 
ARM GAS  C:\Users\luoha\AppData\Local\Temp\ccZfe6cj.s 			page 3


  88:Src/main.c    ****   /* MCU Configuration--------------------------------------------------------*/
  89:Src/main.c    **** 
  90:Src/main.c    ****   /* Reset of all peripherals, Initializes the Flash interface and the Systick. */
  91:Src/main.c    ****   HAL_Init();
  92:Src/main.c    **** 
  93:Src/main.c    ****   /* USER CODE BEGIN Init */
  94:Src/main.c    **** 
  95:Src/main.c    ****   /* USER CODE END Init */
  96:Src/main.c    **** 
  97:Src/main.c    ****   /* Configure the system clock */
  98:Src/main.c    ****   SystemClock_Config();
  99:Src/main.c    **** 
 100:Src/main.c    ****   /* USER CODE BEGIN SysInit */
 101:Src/main.c    ****   // __HAL_RCC_I2C1_CLK_ENABLE();
 102:Src/main.c    ****   // __HAL_RCC_DMA1_CLK_ENABLE();
 103:Src/main.c    **** 
 104:Src/main.c    ****   /* USER CODE END SysInit */
 105:Src/main.c    **** 
 106:Src/main.c    ****   /* Initialize all configured peripherals */
 107:Src/main.c    ****   MX_GPIO_Init();
 108:Src/main.c    ****   MX_DMA_Init();
 109:Src/main.c    ****   MX_USART1_UART_Init();
 110:Src/main.c    ****   MX_TIM4_Init();
 111:Src/main.c    ****   MX_USART2_UART_Init();
 112:Src/main.c    ****   MX_I2C1_Init();
 113:Src/main.c    ****   /* USER CODE BEGIN 2 */
 114:Src/main.c    **** 
 115:Src/main.c    **** #ifdef USE_SISTEMVEIW
 116:Src/main.c    ****   SystemViewLaunch();
 117:Src/main.c    **** #endif 
 118:Src/main.c    **** 
 119:Src/main.c    ****   SystemLaunch();
 120:Src/main.c    **** 
 121:Src/main.c    ****   // SensorsInit();
 122:Src/main.c    ****   // MavlinkInit();
 123:Src/main.c    ****   
 124:Src/main.c    ****   // MotorInit();
 125:Src/main.c    ****   // TestI2C1MenRead();
 126:Src/main.c    ****   // MS5611Init();
 127:Src/main.c    ****   // I2C1Init();
 128:Src/main.c    ****   // bool flag = MPU6050Init();
 129:Src/main.c    ****   // printf("status:%u\r\n", flag);
 130:Src/main.c    ****   // float ax, ay, az;
 131:Src/main.c    ****   // Uart4Init();
 132:Src/main.c    **** 
 133:Src/main.c    ****   // uint8_t buffer[] = "Hello world\r\n";
 134:Src/main.c    ****   // HAL_UART_Transmit_DMA(&huart1, buffer, sizeof(buffer));
 135:Src/main.c    **** 
 136:Src/main.c    ****   /* USER CODE END 2 */
 137:Src/main.c    **** 
 138:Src/main.c    ****   /* Call init function for freertos objects (in freertos.c) */
 139:Src/main.c    ****   MX_FREERTOS_Init();
 140:Src/main.c    ****   /* Start scheduler */
 141:Src/main.c    ****   osKernelStart();
 142:Src/main.c    **** 
 143:Src/main.c    ****   /* We should never get here as control is now taken by the scheduler */
 144:Src/main.c    ****   /* Infinite loop */
ARM GAS  C:\Users\luoha\AppData\Local\Temp\ccZfe6cj.s 			page 4


 145:Src/main.c    ****   /* USER CODE BEGIN WHILE */
 146:Src/main.c    ****   while (1)
 147:Src/main.c    ****   {
 148:Src/main.c    ****     /* USER CODE END WHILE */
 149:Src/main.c    **** 
 150:Src/main.c    ****     /* USER CODE BEGIN 3 */
 151:Src/main.c    **** 
 152:Src/main.c    ****     // MPU6050ReadAccel(&ax, &ay, &az);
 153:Src/main.c    ****     // printf("%f\r\n", 3.1415926);
 154:Src/main.c    ****     // printf("%f, %f, %f \r\n", ax, ay, az);
 155:Src/main.c    ****     // HAL_Delay(1000);
 156:Src/main.c    ****     // HAL_UART_Transmit_DMA(&huart4, buffer, sizeof(buffer));
 157:Src/main.c    ****     // HAL_UART_Transmit_DMA(&huart1, buffer, sizeof(buffer));
 158:Src/main.c    ****     // printf("%d ok1\r\n", 10);
 159:Src/main.c    ****     // HAL_Delay(10);
 160:Src/main.c    ****     // printf("%d ok2\r\n", 10);
 161:Src/main.c    ****     // HAL_Delay(10);
 162:Src/main.c    ****     // printf("%d ok3\r\n", 10);
 163:Src/main.c    ****     // HAL_Delay(1000);
 164:Src/main.c    ****   }
 165:Src/main.c    ****   /* USER CODE END 3 */
 166:Src/main.c    **** }
 167:Src/main.c    **** 
 168:Src/main.c    **** /**
 169:Src/main.c    ****   * @brief System Clock Configuration
 170:Src/main.c    ****   * @retval None
 171:Src/main.c    ****   */
 172:Src/main.c    **** void SystemClock_Config(void)
 173:Src/main.c    **** {
  29              		.loc 1 173 1 view -0
  30              		.cfi_startproc
  31              		@ args = 0, pretend = 0, frame = 80
  32              		@ frame_needed = 0, uses_anonymous_args = 0
  33 0000 30B5     		push	{r4, r5, lr}
  34              	.LCFI0:
  35              		.cfi_def_cfa_offset 12
  36              		.cfi_offset 4, -12
  37              		.cfi_offset 5, -8
  38              		.cfi_offset 14, -4
  39 0002 95B0     		sub	sp, sp, #84
  40              	.LCFI1:
  41              		.cfi_def_cfa_offset 96
 174:Src/main.c    ****   RCC_OscInitTypeDef RCC_OscInitStruct = {0};
  42              		.loc 1 174 3 view .LVU1
  43              		.loc 1 174 22 is_stmt 0 view .LVU2
  44 0004 3022     		movs	r2, #48
  45 0006 0021     		movs	r1, #0
  46 0008 08A8     		add	r0, sp, #32
  47 000a FFF7FEFF 		bl	memset
  48              	.LVL0:
 175:Src/main.c    ****   RCC_ClkInitTypeDef RCC_ClkInitStruct = {0};
  49              		.loc 1 175 3 is_stmt 1 view .LVU3
  50              		.loc 1 175 22 is_stmt 0 view .LVU4
  51 000e 0024     		movs	r4, #0
  52 0010 0394     		str	r4, [sp, #12]
  53 0012 0494     		str	r4, [sp, #16]
  54 0014 0594     		str	r4, [sp, #20]
ARM GAS  C:\Users\luoha\AppData\Local\Temp\ccZfe6cj.s 			page 5


  55 0016 0694     		str	r4, [sp, #24]
  56 0018 0794     		str	r4, [sp, #28]
 176:Src/main.c    **** 
 177:Src/main.c    ****   /** Configure the main internal regulator output voltage
 178:Src/main.c    ****   */
 179:Src/main.c    ****   __HAL_RCC_PWR_CLK_ENABLE();
  57              		.loc 1 179 3 is_stmt 1 view .LVU5
  58              	.LBB2:
  59              		.loc 1 179 3 view .LVU6
  60 001a 0194     		str	r4, [sp, #4]
  61              		.loc 1 179 3 view .LVU7
  62 001c 1B4B     		ldr	r3, .L3
  63 001e 1A6C     		ldr	r2, [r3, #64]
  64 0020 42F08052 		orr	r2, r2, #268435456
  65 0024 1A64     		str	r2, [r3, #64]
  66              		.loc 1 179 3 view .LVU8
  67 0026 1B6C     		ldr	r3, [r3, #64]
  68 0028 03F08053 		and	r3, r3, #268435456
  69 002c 0193     		str	r3, [sp, #4]
  70              		.loc 1 179 3 view .LVU9
  71 002e 019B     		ldr	r3, [sp, #4]
  72              	.LBE2:
  73              		.loc 1 179 3 view .LVU10
 180:Src/main.c    ****   __HAL_PWR_VOLTAGESCALING_CONFIG(PWR_REGULATOR_VOLTAGE_SCALE1);
  74              		.loc 1 180 3 view .LVU11
  75              	.LBB3:
  76              		.loc 1 180 3 view .LVU12
  77 0030 0294     		str	r4, [sp, #8]
  78              		.loc 1 180 3 view .LVU13
  79 0032 174B     		ldr	r3, .L3+4
  80 0034 1A68     		ldr	r2, [r3]
  81 0036 42F48042 		orr	r2, r2, #16384
  82 003a 1A60     		str	r2, [r3]
  83              		.loc 1 180 3 view .LVU14
  84 003c 1B68     		ldr	r3, [r3]
  85 003e 03F48043 		and	r3, r3, #16384
  86 0042 0293     		str	r3, [sp, #8]
  87              		.loc 1 180 3 view .LVU15
  88 0044 029B     		ldr	r3, [sp, #8]
  89              	.LBE3:
  90              		.loc 1 180 3 view .LVU16
 181:Src/main.c    ****   /** Initializes the RCC Oscillators according to the specified parameters
 182:Src/main.c    ****   * in the RCC_OscInitTypeDef structure.
 183:Src/main.c    ****   */
 184:Src/main.c    ****   RCC_OscInitStruct.OscillatorType = RCC_OSCILLATORTYPE_HSE;
  91              		.loc 1 184 3 view .LVU17
  92              		.loc 1 184 36 is_stmt 0 view .LVU18
  93 0046 0123     		movs	r3, #1
  94 0048 0893     		str	r3, [sp, #32]
 185:Src/main.c    ****   RCC_OscInitStruct.HSEState = RCC_HSE_ON;
  95              		.loc 1 185 3 is_stmt 1 view .LVU19
  96              		.loc 1 185 30 is_stmt 0 view .LVU20
  97 004a 4FF48033 		mov	r3, #65536
  98 004e 0993     		str	r3, [sp, #36]
 186:Src/main.c    ****   RCC_OscInitStruct.PLL.PLLState = RCC_PLL_ON;
  99              		.loc 1 186 3 is_stmt 1 view .LVU21
 100              		.loc 1 186 34 is_stmt 0 view .LVU22
ARM GAS  C:\Users\luoha\AppData\Local\Temp\ccZfe6cj.s 			page 6


 101 0050 0225     		movs	r5, #2
 102 0052 0E95     		str	r5, [sp, #56]
 187:Src/main.c    ****   RCC_OscInitStruct.PLL.PLLSource = RCC_PLLSOURCE_HSE;
 103              		.loc 1 187 3 is_stmt 1 view .LVU23
 104              		.loc 1 187 35 is_stmt 0 view .LVU24
 105 0054 4FF48003 		mov	r3, #4194304
 106 0058 0F93     		str	r3, [sp, #60]
 188:Src/main.c    ****   RCC_OscInitStruct.PLL.PLLM = 4;
 107              		.loc 1 188 3 is_stmt 1 view .LVU25
 108              		.loc 1 188 30 is_stmt 0 view .LVU26
 109 005a 0423     		movs	r3, #4
 110 005c 1093     		str	r3, [sp, #64]
 189:Src/main.c    ****   RCC_OscInitStruct.PLL.PLLN = 168;
 111              		.loc 1 189 3 is_stmt 1 view .LVU27
 112              		.loc 1 189 30 is_stmt 0 view .LVU28
 113 005e A822     		movs	r2, #168
 114 0060 1192     		str	r2, [sp, #68]
 190:Src/main.c    ****   RCC_OscInitStruct.PLL.PLLP = RCC_PLLP_DIV2;
 115              		.loc 1 190 3 is_stmt 1 view .LVU29
 116              		.loc 1 190 30 is_stmt 0 view .LVU30
 117 0062 1295     		str	r5, [sp, #72]
 191:Src/main.c    ****   RCC_OscInitStruct.PLL.PLLQ = 4;
 118              		.loc 1 191 3 is_stmt 1 view .LVU31
 119              		.loc 1 191 30 is_stmt 0 view .LVU32
 120 0064 1393     		str	r3, [sp, #76]
 192:Src/main.c    ****   if (HAL_RCC_OscConfig(&RCC_OscInitStruct) != HAL_OK)
 121              		.loc 1 192 3 is_stmt 1 view .LVU33
 122              		.loc 1 192 7 is_stmt 0 view .LVU34
 123 0066 08A8     		add	r0, sp, #32
 124 0068 FFF7FEFF 		bl	HAL_RCC_OscConfig
 125              	.LVL1:
 193:Src/main.c    ****   {
 194:Src/main.c    ****     Error_Handler();
 195:Src/main.c    ****   }
 196:Src/main.c    ****   /** Initializes the CPU, AHB and APB buses clocks
 197:Src/main.c    ****   */
 198:Src/main.c    ****   RCC_ClkInitStruct.ClockType = RCC_CLOCKTYPE_HCLK|RCC_CLOCKTYPE_SYSCLK
 126              		.loc 1 198 3 is_stmt 1 view .LVU35
 127              		.loc 1 198 31 is_stmt 0 view .LVU36
 128 006c 0F23     		movs	r3, #15
 129 006e 0393     		str	r3, [sp, #12]
 199:Src/main.c    ****                               |RCC_CLOCKTYPE_PCLK1|RCC_CLOCKTYPE_PCLK2;
 200:Src/main.c    ****   RCC_ClkInitStruct.SYSCLKSource = RCC_SYSCLKSOURCE_PLLCLK;
 130              		.loc 1 200 3 is_stmt 1 view .LVU37
 131              		.loc 1 200 34 is_stmt 0 view .LVU38
 132 0070 0495     		str	r5, [sp, #16]
 201:Src/main.c    ****   RCC_ClkInitStruct.AHBCLKDivider = RCC_SYSCLK_DIV1;
 133              		.loc 1 201 3 is_stmt 1 view .LVU39
 134              		.loc 1 201 35 is_stmt 0 view .LVU40
 135 0072 0594     		str	r4, [sp, #20]
 202:Src/main.c    ****   RCC_ClkInitStruct.APB1CLKDivider = RCC_HCLK_DIV4;
 136              		.loc 1 202 3 is_stmt 1 view .LVU41
 137              		.loc 1 202 36 is_stmt 0 view .LVU42
 138 0074 4FF4A053 		mov	r3, #5120
 139 0078 0693     		str	r3, [sp, #24]
 203:Src/main.c    ****   RCC_ClkInitStruct.APB2CLKDivider = RCC_HCLK_DIV2;
 140              		.loc 1 203 3 is_stmt 1 view .LVU43
ARM GAS  C:\Users\luoha\AppData\Local\Temp\ccZfe6cj.s 			page 7


 141              		.loc 1 203 36 is_stmt 0 view .LVU44
 142 007a 4FF48053 		mov	r3, #4096
 143 007e 0793     		str	r3, [sp, #28]
 204:Src/main.c    **** 
 205:Src/main.c    ****   if (HAL_RCC_ClockConfig(&RCC_ClkInitStruct, FLASH_LATENCY_5) != HAL_OK)
 144              		.loc 1 205 3 is_stmt 1 view .LVU45
 145              		.loc 1 205 7 is_stmt 0 view .LVU46
 146 0080 0521     		movs	r1, #5
 147 0082 03A8     		add	r0, sp, #12
 148 0084 FFF7FEFF 		bl	HAL_RCC_ClockConfig
 149              	.LVL2:
 206:Src/main.c    ****   {
 207:Src/main.c    ****     Error_Handler();
 208:Src/main.c    ****   }
 209:Src/main.c    **** }
 150              		.loc 1 209 1 view .LVU47
 151 0088 15B0     		add	sp, sp, #84
 152              	.LCFI2:
 153              		.cfi_def_cfa_offset 12
 154              		@ sp needed
 155 008a 30BD     		pop	{r4, r5, pc}
 156              	.L4:
 157              		.align	2
 158              	.L3:
 159 008c 00380240 		.word	1073887232
 160 0090 00700040 		.word	1073770496
 161              		.cfi_endproc
 162              	.LFE172:
 164              		.section	.text.main,"ax",%progbits
 165              		.align	1
 166              		.global	main
 167              		.syntax unified
 168              		.thumb
 169              		.thumb_func
 170              		.fpu fpv4-sp-d16
 172              	main:
 173              	.LFB171:
  83:Src/main.c    ****   /* USER CODE BEGIN 1 */
 174              		.loc 1 83 1 is_stmt 1 view -0
 175              		.cfi_startproc
 176              		@ Volatile: function does not return.
 177              		@ args = 0, pretend = 0, frame = 0
 178              		@ frame_needed = 0, uses_anonymous_args = 0
 179 0000 08B5     		push	{r3, lr}
 180              	.LCFI3:
 181              		.cfi_def_cfa_offset 8
 182              		.cfi_offset 3, -8
 183              		.cfi_offset 14, -4
  91:Src/main.c    **** 
 184              		.loc 1 91 3 view .LVU49
 185 0002 FFF7FEFF 		bl	HAL_Init
 186              	.LVL3:
  98:Src/main.c    **** 
 187              		.loc 1 98 3 view .LVU50
 188 0006 FFF7FEFF 		bl	SystemClock_Config
 189              	.LVL4:
 107:Src/main.c    ****   MX_DMA_Init();
ARM GAS  C:\Users\luoha\AppData\Local\Temp\ccZfe6cj.s 			page 8


 190              		.loc 1 107 3 view .LVU51
 191 000a FFF7FEFF 		bl	MX_GPIO_Init
 192              	.LVL5:
 108:Src/main.c    ****   MX_USART1_UART_Init();
 193              		.loc 1 108 3 view .LVU52
 194 000e FFF7FEFF 		bl	MX_DMA_Init
 195              	.LVL6:
 109:Src/main.c    ****   MX_TIM4_Init();
 196              		.loc 1 109 3 view .LVU53
 197 0012 FFF7FEFF 		bl	MX_USART1_UART_Init
 198              	.LVL7:
 110:Src/main.c    ****   MX_USART2_UART_Init();
 199              		.loc 1 110 3 view .LVU54
 200 0016 FFF7FEFF 		bl	MX_TIM4_Init
 201              	.LVL8:
 111:Src/main.c    ****   MX_I2C1_Init();
 202              		.loc 1 111 3 view .LVU55
 203 001a FFF7FEFF 		bl	MX_USART2_UART_Init
 204              	.LVL9:
 112:Src/main.c    ****   /* USER CODE BEGIN 2 */
 205              		.loc 1 112 3 view .LVU56
 206 001e FFF7FEFF 		bl	MX_I2C1_Init
 207              	.LVL10:
 119:Src/main.c    **** 
 208              		.loc 1 119 3 view .LVU57
 209 0022 FFF7FEFF 		bl	SystemLaunch
 210              	.LVL11:
 139:Src/main.c    ****   /* Start scheduler */
 211              		.loc 1 139 3 view .LVU58
 212 0026 FFF7FEFF 		bl	MX_FREERTOS_Init
 213              	.LVL12:
 141:Src/main.c    **** 
 214              		.loc 1 141 3 view .LVU59
 215 002a FFF7FEFF 		bl	osKernelStart
 216              	.LVL13:
 217              	.L6:
 146:Src/main.c    ****   {
 218              		.loc 1 146 3 discriminator 1 view .LVU60
 164:Src/main.c    ****   /* USER CODE END 3 */
 219              		.loc 1 164 3 discriminator 1 view .LVU61
 146:Src/main.c    ****   {
 220              		.loc 1 146 9 discriminator 1 view .LVU62
 221 002e FEE7     		b	.L6
 222              		.cfi_endproc
 223              	.LFE171:
 225              		.section	.text.HAL_TIM_PeriodElapsedCallback,"ax",%progbits
 226              		.align	1
 227              		.global	HAL_TIM_PeriodElapsedCallback
 228              		.syntax unified
 229              		.thumb
 230              		.thumb_func
 231              		.fpu fpv4-sp-d16
 233              	HAL_TIM_PeriodElapsedCallback:
 234              	.LVL14:
 235              	.LFB173:
 210:Src/main.c    **** 
 211:Src/main.c    **** /* USER CODE BEGIN 4 */
ARM GAS  C:\Users\luoha\AppData\Local\Temp\ccZfe6cj.s 			page 9


 212:Src/main.c    **** 
 213:Src/main.c    **** /* USER CODE END 4 */
 214:Src/main.c    **** 
 215:Src/main.c    ****  /**
 216:Src/main.c    ****   * @brief  Period elapsed callback in non blocking mode
 217:Src/main.c    ****   * @note   This function is called  when TIM7 interrupt took place, inside
 218:Src/main.c    ****   * HAL_TIM_IRQHandler(). It makes a direct call to HAL_IncTick() to increment
 219:Src/main.c    ****   * a global variable "uwTick" used as application time base.
 220:Src/main.c    ****   * @param  htim : TIM handle
 221:Src/main.c    ****   * @retval None
 222:Src/main.c    ****   */
 223:Src/main.c    **** void HAL_TIM_PeriodElapsedCallback(TIM_HandleTypeDef *htim)
 224:Src/main.c    **** {
 236              		.loc 1 224 1 view -0
 237              		.cfi_startproc
 238              		@ args = 0, pretend = 0, frame = 0
 239              		@ frame_needed = 0, uses_anonymous_args = 0
 240              		.loc 1 224 1 is_stmt 0 view .LVU64
 241 0000 08B5     		push	{r3, lr}
 242              	.LCFI4:
 243              		.cfi_def_cfa_offset 8
 244              		.cfi_offset 3, -8
 245              		.cfi_offset 14, -4
 225:Src/main.c    ****   /* USER CODE BEGIN Callback 0 */
 226:Src/main.c    **** 
 227:Src/main.c    ****   /* USER CODE END Callback 0 */
 228:Src/main.c    ****   if (htim->Instance == TIM7) {
 246              		.loc 1 228 3 is_stmt 1 view .LVU65
 247              		.loc 1 228 11 is_stmt 0 view .LVU66
 248 0002 0268     		ldr	r2, [r0]
 249              		.loc 1 228 6 view .LVU67
 250 0004 034B     		ldr	r3, .L12
 251 0006 9A42     		cmp	r2, r3
 252 0008 00D0     		beq	.L11
 253              	.LVL15:
 254              	.L8:
 229:Src/main.c    ****     HAL_IncTick();
 230:Src/main.c    ****   }
 231:Src/main.c    ****   /* USER CODE BEGIN Callback 1 */
 232:Src/main.c    **** 
 233:Src/main.c    ****   /* USER CODE END Callback 1 */
 234:Src/main.c    **** }
 255              		.loc 1 234 1 view .LVU68
 256 000a 08BD     		pop	{r3, pc}
 257              	.LVL16:
 258              	.L11:
 229:Src/main.c    ****     HAL_IncTick();
 259              		.loc 1 229 5 is_stmt 1 view .LVU69
 260 000c FFF7FEFF 		bl	HAL_IncTick
 261              	.LVL17:
 262              		.loc 1 234 1 is_stmt 0 view .LVU70
 263 0010 FBE7     		b	.L8
 264              	.L13:
 265 0012 00BF     		.align	2
 266              	.L12:
 267 0014 00140040 		.word	1073746944
 268              		.cfi_endproc
ARM GAS  C:\Users\luoha\AppData\Local\Temp\ccZfe6cj.s 			page 10


 269              	.LFE173:
 271              		.section	.text.Error_Handler,"ax",%progbits
 272              		.align	1
 273              		.global	Error_Handler
 274              		.syntax unified
 275              		.thumb
 276              		.thumb_func
 277              		.fpu fpv4-sp-d16
 279              	Error_Handler:
 280              	.LFB174:
 235:Src/main.c    **** 
 236:Src/main.c    **** /**
 237:Src/main.c    ****   * @brief  This function is executed in case of error occurrence.
 238:Src/main.c    ****   * @retval None
 239:Src/main.c    ****   */
 240:Src/main.c    **** void Error_Handler(void)
 241:Src/main.c    **** {
 281              		.loc 1 241 1 is_stmt 1 view -0
 282              		.cfi_startproc
 283              		@ args = 0, pretend = 0, frame = 0
 284              		@ frame_needed = 0, uses_anonymous_args = 0
 285              		@ link register save eliminated.
 242:Src/main.c    ****   /* USER CODE BEGIN Error_Handler_Debug */
 243:Src/main.c    ****   /* User can add his own implementation to report the HAL error return state */
 244:Src/main.c    **** 
 245:Src/main.c    ****   /* USER CODE END Error_Handler_Debug */
 246:Src/main.c    **** }
 286              		.loc 1 246 1 view .LVU72
 287 0000 7047     		bx	lr
 288              		.cfi_endproc
 289              	.LFE174:
 291              		.text
 292              	.Letext0:
 293              		.file 2 "c:\\gnu_tools_arm_embedded\\arm-none-eabi\\include\\machine\\_default_types.h"
 294              		.file 3 "c:\\gnu_tools_arm_embedded\\arm-none-eabi\\include\\sys\\_stdint.h"
 295              		.file 4 "Drivers/CMSIS/Include/core_cm4.h"
 296              		.file 5 "Drivers/CMSIS/Device/ST/STM32F4xx/Include/system_stm32f4xx.h"
 297              		.file 6 "Drivers/CMSIS/Device/ST/STM32F4xx/Include/stm32f407xx.h"
 298              		.file 7 "Drivers/STM32F4xx_HAL_Driver/Inc/stm32f4xx_hal_def.h"
 299              		.file 8 "Drivers/STM32F4xx_HAL_Driver/Inc/stm32f4xx_hal_rcc_ex.h"
 300              		.file 9 "Drivers/STM32F4xx_HAL_Driver/Inc/stm32f4xx_hal_rcc.h"
 301              		.file 10 "Drivers/STM32F4xx_HAL_Driver/Inc/stm32f4xx_hal_dma.h"
 302              		.file 11 "Drivers/STM32F4xx_HAL_Driver/Inc/stm32f4xx_hal_i2c.h"
 303              		.file 12 "Drivers/STM32F4xx_HAL_Driver/Inc/stm32f4xx_hal_tim.h"
 304              		.file 13 "Drivers/STM32F4xx_HAL_Driver/Inc/stm32f4xx_hal_uart.h"
 305              		.file 14 "Drivers/STM32F4xx_HAL_Driver/Inc/stm32f4xx_hal.h"
 306              		.file 15 "c:\\gnu_tools_arm_embedded\\arm-none-eabi\\include\\sys\\lock.h"
 307              		.file 16 "c:\\gnu_tools_arm_embedded\\arm-none-eabi\\include\\sys\\_types.h"
 308              		.file 17 "c:\\gnu_tools_arm_embedded\\lib\\gcc\\arm-none-eabi\\9.2.1\\include\\stddef.h"
 309              		.file 18 "c:\\gnu_tools_arm_embedded\\arm-none-eabi\\include\\sys\\reent.h"
 310              		.file 19 "Modules/include/utils.h"
 311              		.file 20 "Inc/i2c.h"
 312              		.file 21 "Inc/tim.h"
 313              		.file 22 "Inc/usart.h"
 314              		.file 23 "c:\\gnu_tools_arm_embedded\\arm-none-eabi\\include\\math.h"
 315              		.file 24 "Inc/gpio.h"
 316              		.file 25 "Inc/dma.h"
ARM GAS  C:\Users\luoha\AppData\Local\Temp\ccZfe6cj.s 			page 11


 317              		.file 26 "Modules/include/system_task.h"
 318              		.file 27 "Middlewares/Third_Party/FreeRTOS/Source/CMSIS_RTOS/cmsis_os.h"
 319              		.file 28 "<built-in>"
ARM GAS  C:\Users\luoha\AppData\Local\Temp\ccZfe6cj.s 			page 12

