ARM GAS  C:\Users\luoha\AppData\Local\Temp\ccarQJQt.s 			page 1


   1              		.cpu cortex-m4
   2              		.eabi_attribute 27, 1
   3              		.eabi_attribute 28, 1
   4              		.eabi_attribute 20, 1
   5              		.eabi_attribute 21, 1
   6              		.eabi_attribute 23, 3
   7              		.eabi_attribute 24, 1
   8              		.eabi_attribute 25, 1
   9              		.eabi_attribute 26, 1
  10              		.eabi_attribute 30, 1
  11              		.eabi_attribute 34, 1
  12              		.eabi_attribute 18, 4
  13              		.file	"mavlink_task.c"
  14              		.text
  15              	.Ltext0:
  16              		.cfi_sections	.debug_frame
  17              		.section	.rodata.MavlinkParsePayload.str1.4,"aMS",%progbits,1
  18              		.align	2
  19              	.LC0:
  20 0000 3D3D3D3D 		.ascii	"===============\015\000"
  20      3D3D3D3D 
  20      3D3D3D3D 
  20      3D3D3D0D 
  20      00
  21 0011 000000   		.align	2
  22              	.LC1:
  23 0014 25750D0A 		.ascii	"%u\015\012\000"
  23      00
  24 0019 000000   		.align	2
  25              	.LC2:
  26 001c 52432063 		.ascii	"RC channel 1: %u\015\012\000"
  26      68616E6E 
  26      656C2031 
  26      3A202575 
  26      0D0A00
  27 002f 00       		.align	2
  28              	.LC3:
  29 0030 52432063 		.ascii	"RC channel 2: %u\015\012\000"
  29      68616E6E 
  29      656C2032 
  29      3A202575 
  29      0D0A00
  30 0043 00       		.align	2
  31              	.LC4:
  32 0044 52432063 		.ascii	"RC channel 3: %u\015\012\000"
  32      68616E6E 
  32      656C2033 
  32      3A202575 
  32      0D0A00
  33 0057 00       		.align	2
  34              	.LC5:
  35 0058 52432063 		.ascii	"RC channel 4: %u\015\012\000"
  35      68616E6E 
  35      656C2034 
  35      3A202575 
  35      0D0A00
  36              		.section	.text.MavlinkParsePayload,"ax",%progbits
ARM GAS  C:\Users\luoha\AppData\Local\Temp\ccarQJQt.s 			page 2


  37              		.align	1
  38              		.arch armv7e-m
  39              		.syntax unified
  40              		.thumb
  41              		.thumb_func
  42              		.fpu fpv4-sp-d16
  44              	MavlinkParsePayload:
  45              	.LVL0:
  46              	.LFB2738:
  47              		.file 1 "Modules/src/mavlink_task.c"
   1:Modules/src/mavlink_task.c **** #include "mavlink_task.h"
   2:Modules/src/mavlink_task.c **** 
   3:Modules/src/mavlink_task.c **** extern xQueueHandle uart4_queue;
   4:Modules/src/mavlink_task.c **** static TaskHandle_t mavlink_task_handle;
   5:Modules/src/mavlink_task.c **** STATIC_MEM_TASK_ALLOC(mavlink_task, configMINIMAL_STACK_SIZE * 3);
   6:Modules/src/mavlink_task.c **** 
   7:Modules/src/mavlink_task.c **** static mavlink_message_t msg;
   8:Modules/src/mavlink_task.c **** static mavlink_status_t status;
   9:Modules/src/mavlink_task.c **** static int mavlink_comm = MAVLINK_COMM_0;
  10:Modules/src/mavlink_task.c **** 
  11:Modules/src/mavlink_task.c **** void MavlinkInit(void) {
  12:Modules/src/mavlink_task.c ****     printf("MavlinkInit");
  13:Modules/src/mavlink_task.c ****     Uart4Init();
  14:Modules/src/mavlink_task.c ****     mavlink_task_handle = STATIC_MEM_TASK_CREATE(mavlink_task, MavlinkTask, "MavlinkTask", NULL, 1)
  15:Modules/src/mavlink_task.c **** }
  16:Modules/src/mavlink_task.c **** 
  17:Modules/src/mavlink_task.c **** void MavlinkTask(void *param) {
  18:Modules/src/mavlink_task.c ****     uart4_queue_buffer buffer;
  19:Modules/src/mavlink_task.c ****     for (;;) {
  20:Modules/src/mavlink_task.c ****         if (xQueueReceive(uart4_queue, &buffer, portMAX_DELAY) == pdTRUE) {
  21:Modules/src/mavlink_task.c ****             MavlinkParse(buffer.addr, buffer.length);
  22:Modules/src/mavlink_task.c ****         }
  23:Modules/src/mavlink_task.c ****     }
  24:Modules/src/mavlink_task.c **** }
  25:Modules/src/mavlink_task.c **** 
  26:Modules/src/mavlink_task.c **** void MavlinkParse(uint8_t *buffer, size_t len) {
  27:Modules/src/mavlink_task.c ****     // printf("%u\r\n", len);
  28:Modules/src/mavlink_task.c ****     // printf("%.*s\r\n", len, buffer);
  29:Modules/src/mavlink_task.c ****     for (size_t i = 0; i < len; i++) {
  30:Modules/src/mavlink_task.c ****         // printf("%o", buffer[i]);
  31:Modules/src/mavlink_task.c ****         // printf("%c\r\n", buffer[i]);
  32:Modules/src/mavlink_task.c ****         if (mavlink_parse_char(mavlink_comm, buffer[i], &msg, &status)) {
  33:Modules/src/mavlink_task.c ****             MavlinkParsePayload(&msg);
  34:Modules/src/mavlink_task.c ****         }
  35:Modules/src/mavlink_task.c ****     }
  36:Modules/src/mavlink_task.c ****     printf("%d\r\n", (int)status.parse_state);
  37:Modules/src/mavlink_task.c ****     printf("\r\n");
  38:Modules/src/mavlink_task.c **** }
  39:Modules/src/mavlink_task.c **** 
  40:Modules/src/mavlink_task.c **** void MavlinkParsePayload(mavlink_message_t *msg) {
  48              		.loc 1 40 50 view -0
  49              		.cfi_startproc
  50              		@ args = 0, pretend = 0, frame = 40
  51              		@ frame_needed = 0, uses_anonymous_args = 0
  52              		.loc 1 40 50 is_stmt 0 view .LVU1
  53 0000 70B5     		push	{r4, r5, r6, lr}
  54              	.LCFI0:
ARM GAS  C:\Users\luoha\AppData\Local\Temp\ccarQJQt.s 			page 3


  55              		.cfi_def_cfa_offset 16
  56              		.cfi_offset 4, -16
  57              		.cfi_offset 5, -12
  58              		.cfi_offset 6, -8
  59              		.cfi_offset 14, -4
  60 0002 8AB0     		sub	sp, sp, #40
  61              	.LCFI1:
  62              		.cfi_def_cfa_offset 56
  63 0004 0446     		mov	r4, r0
  41:Modules/src/mavlink_task.c ****     printf("===============\r\n");
  64              		.loc 1 41 5 is_stmt 1 view .LVU2
  65 0006 294E     		ldr	r6, .L5
  66 0008 3046     		mov	r0, r6
  67              	.LVL1:
  68              		.loc 1 41 5 is_stmt 0 view .LVU3
  69 000a FFF7FEFF 		bl	puts
  70              	.LVL2:
  42:Modules/src/mavlink_task.c ****     printf("%u\r\n", msg->msgid);
  71              		.loc 1 42 5 is_stmt 1 view .LVU4
  72              		.loc 1 42 25 is_stmt 0 view .LVU5
  73 000e 637A     		ldrb	r3, [r4, #9]	@ zero_extendqisi2
  74 0010 A17A     		ldrb	r1, [r4, #10]	@ zero_extendqisi2
  75 0012 43EA0123 		orr	r3, r3, r1, lsl #8
  76 0016 E17A     		ldrb	r1, [r4, #11]	@ zero_extendqisi2
  77              		.loc 1 42 5 view .LVU6
  78 0018 254D     		ldr	r5, .L5+4
  79 001a 43EA0141 		orr	r1, r3, r1, lsl #16
  80 001e 2846     		mov	r0, r5
  81 0020 FFF7FEFF 		bl	printf
  82              	.LVL3:
  43:Modules/src/mavlink_task.c ****     printf("%u\r\n", msg->seq);
  83              		.loc 1 43 5 is_stmt 1 view .LVU7
  84 0024 A179     		ldrb	r1, [r4, #6]	@ zero_extendqisi2
  85 0026 2846     		mov	r0, r5
  86 0028 FFF7FEFF 		bl	printf
  87              	.LVL4:
  44:Modules/src/mavlink_task.c ****     printf("%u\r\n", msg->compid);
  88              		.loc 1 44 5 view .LVU8
  89 002c 217A     		ldrb	r1, [r4, #8]	@ zero_extendqisi2
  90 002e 2846     		mov	r0, r5
  91 0030 FFF7FEFF 		bl	printf
  92              	.LVL5:
  45:Modules/src/mavlink_task.c ****     printf("%u\r\n", msg->sysid);
  93              		.loc 1 45 5 view .LVU9
  94 0034 E179     		ldrb	r1, [r4, #7]	@ zero_extendqisi2
  95 0036 2846     		mov	r0, r5
  96 0038 FFF7FEFF 		bl	printf
  97              	.LVL6:
  46:Modules/src/mavlink_task.c ****     printf("===============\r\n");
  98              		.loc 1 46 5 view .LVU10
  99 003c 3046     		mov	r0, r6
 100 003e FFF7FEFF 		bl	puts
 101              	.LVL7:
  47:Modules/src/mavlink_task.c ****     switch (msg->msgid) {
 102              		.loc 1 47 5 view .LVU11
 103              		.loc 1 47 16 is_stmt 0 view .LVU12
 104 0042 637A     		ldrb	r3, [r4, #9]	@ zero_extendqisi2
ARM GAS  C:\Users\luoha\AppData\Local\Temp\ccarQJQt.s 			page 4


 105 0044 A27A     		ldrb	r2, [r4, #10]	@ zero_extendqisi2
 106 0046 43EA0223 		orr	r3, r3, r2, lsl #8
 107 004a E27A     		ldrb	r2, [r4, #11]	@ zero_extendqisi2
 108 004c 43EA0243 		orr	r3, r3, r2, lsl #16
 109              		.loc 1 47 5 view .LVU13
 110 0050 462B     		cmp	r3, #70
 111 0052 01D0     		beq	.L4
 112              	.L1:
  48:Modules/src/mavlink_task.c ****         case MAVLINK_MSG_ID_RC_CHANNELS_RAW: {
  49:Modules/src/mavlink_task.c ****             break;
  50:Modules/src/mavlink_task.c ****         }
  51:Modules/src/mavlink_task.c ****         case MAVLINK_MSG_ID_RC_CHANNELS_OVERRIDE: {
  52:Modules/src/mavlink_task.c ****             mavlink_rc_channels_override_t rc_channels_override;
  53:Modules/src/mavlink_task.c **** 			mavlink_msg_rc_channels_override_decode(msg, &rc_channels_override);
  54:Modules/src/mavlink_task.c ****             printf("===============\r\n");
  55:Modules/src/mavlink_task.c ****             fprintf("RC channel 1: %u\r\n", rc_channels_override.chan1_raw);
  56:Modules/src/mavlink_task.c ****             fprintf("RC channel 2: %u\r\n", rc_channels_override.chan2_raw);
  57:Modules/src/mavlink_task.c ****             fprintf("RC channel 3: %u\r\n", rc_channels_override.chan3_raw);
  58:Modules/src/mavlink_task.c ****             fprintf("RC channel 4: %u\r\n", rc_channels_override.chan4_raw);
  59:Modules/src/mavlink_task.c ****             printf("===============\r\n");
  60:Modules/src/mavlink_task.c ****             // printf("MAVLINK_MSG_ID_RC_CHANNELS_OVERRIDE\r\n");
  61:Modules/src/mavlink_task.c ****             break;
  62:Modules/src/mavlink_task.c ****         }
  63:Modules/src/mavlink_task.c ****         default: {
  64:Modules/src/mavlink_task.c ****             break;
  65:Modules/src/mavlink_task.c ****         }
  66:Modules/src/mavlink_task.c ****     }
  67:Modules/src/mavlink_task.c **** }...
 113              		.loc 1 67 1 view .LVU14
 114 0054 0AB0     		add	sp, sp, #40
 115              	.LCFI2:
 116              		.cfi_remember_state
 117              		.cfi_def_cfa_offset 16
 118              		@ sp needed
 119 0056 70BD     		pop	{r4, r5, r6, pc}
 120              	.LVL8:
 121              	.L4:
 122              	.LCFI3:
 123              		.cfi_restore_state
 124              	.LBB88:
  52:Modules/src/mavlink_task.c ****             mavlink_rc_channels_override_t rc_channels_override;
 125              		.loc 1 52 13 is_stmt 1 view .LVU15
  53:Modules/src/mavlink_task.c **** 			mavlink_msg_rc_channels_override_decode(msg, &rc_channels_override);
 126              		.loc 1 53 4 view .LVU16
 127              	.LBB89:
 128              	.LBI89:
 129              		.file 2 "Modules/include/MAVLink/common/./mavlink_msg_rc_channels_override.h"
   1:Modules/include/MAVLink/common/./mavlink_msg_rc_channels_override.h **** #pragma once
   2:Modules/include/MAVLink/common/./mavlink_msg_rc_channels_override.h **** // MESSAGE RC_CHANNELS_OVERRIDE PACKING
   3:Modules/include/MAVLink/common/./mavlink_msg_rc_channels_override.h **** 
   4:Modules/include/MAVLink/common/./mavlink_msg_rc_channels_override.h **** #define MAVLINK_MSG_ID_RC_CHANNELS_OVERRIDE 70
   5:Modules/include/MAVLink/common/./mavlink_msg_rc_channels_override.h **** 
   6:Modules/include/MAVLink/common/./mavlink_msg_rc_channels_override.h **** MAVPACKED(
   7:Modules/include/MAVLink/common/./mavlink_msg_rc_channels_override.h **** typedef struct __mavlink_rc_channels_override_t {
   8:Modules/include/MAVLink/common/./mavlink_msg_rc_channels_override.h ****  uint16_t chan1_raw; /*< [us] RC channel 1 value. A value of UINT16_MAX means to ignore this field.
   9:Modules/include/MAVLink/common/./mavlink_msg_rc_channels_override.h ****  uint16_t chan2_raw; /*< [us] RC channel 2 value. A value of UINT16_MAX means to ignore this field.
  10:Modules/include/MAVLink/common/./mavlink_msg_rc_channels_override.h ****  uint16_t chan3_raw; /*< [us] RC channel 3 value. A value of UINT16_MAX means to ignore this field.
ARM GAS  C:\Users\luoha\AppData\Local\Temp\ccarQJQt.s 			page 5


  11:Modules/include/MAVLink/common/./mavlink_msg_rc_channels_override.h ****  uint16_t chan4_raw; /*< [us] RC channel 4 value. A value of UINT16_MAX means to ignore this field.
  12:Modules/include/MAVLink/common/./mavlink_msg_rc_channels_override.h ****  uint16_t chan5_raw; /*< [us] RC channel 5 value. A value of UINT16_MAX means to ignore this field.
  13:Modules/include/MAVLink/common/./mavlink_msg_rc_channels_override.h ****  uint16_t chan6_raw; /*< [us] RC channel 6 value. A value of UINT16_MAX means to ignore this field.
  14:Modules/include/MAVLink/common/./mavlink_msg_rc_channels_override.h ****  uint16_t chan7_raw; /*< [us] RC channel 7 value. A value of UINT16_MAX means to ignore this field.
  15:Modules/include/MAVLink/common/./mavlink_msg_rc_channels_override.h ****  uint16_t chan8_raw; /*< [us] RC channel 8 value. A value of UINT16_MAX means to ignore this field.
  16:Modules/include/MAVLink/common/./mavlink_msg_rc_channels_override.h ****  uint8_t target_system; /*<  System ID*/
  17:Modules/include/MAVLink/common/./mavlink_msg_rc_channels_override.h ****  uint8_t target_component; /*<  Component ID*/
  18:Modules/include/MAVLink/common/./mavlink_msg_rc_channels_override.h ****  uint16_t chan9_raw; /*< [us] RC channel 9 value. A value of 0 or UINT16_MAX means to ignore this f
  19:Modules/include/MAVLink/common/./mavlink_msg_rc_channels_override.h ****  uint16_t chan10_raw; /*< [us] RC channel 10 value. A value of 0 or UINT16_MAX means to ignore this
  20:Modules/include/MAVLink/common/./mavlink_msg_rc_channels_override.h ****  uint16_t chan11_raw; /*< [us] RC channel 11 value. A value of 0 or UINT16_MAX means to ignore this
  21:Modules/include/MAVLink/common/./mavlink_msg_rc_channels_override.h ****  uint16_t chan12_raw; /*< [us] RC channel 12 value. A value of 0 or UINT16_MAX means to ignore this
  22:Modules/include/MAVLink/common/./mavlink_msg_rc_channels_override.h ****  uint16_t chan13_raw; /*< [us] RC channel 13 value. A value of 0 or UINT16_MAX means to ignore this
  23:Modules/include/MAVLink/common/./mavlink_msg_rc_channels_override.h ****  uint16_t chan14_raw; /*< [us] RC channel 14 value. A value of 0 or UINT16_MAX means to ignore this
  24:Modules/include/MAVLink/common/./mavlink_msg_rc_channels_override.h ****  uint16_t chan15_raw; /*< [us] RC channel 15 value. A value of 0 or UINT16_MAX means to ignore this
  25:Modules/include/MAVLink/common/./mavlink_msg_rc_channels_override.h ****  uint16_t chan16_raw; /*< [us] RC channel 16 value. A value of 0 or UINT16_MAX means to ignore this
  26:Modules/include/MAVLink/common/./mavlink_msg_rc_channels_override.h ****  uint16_t chan17_raw; /*< [us] RC channel 17 value. A value of 0 or UINT16_MAX means to ignore this
  27:Modules/include/MAVLink/common/./mavlink_msg_rc_channels_override.h ****  uint16_t chan18_raw; /*< [us] RC channel 18 value. A value of 0 or UINT16_MAX means to ignore this
  28:Modules/include/MAVLink/common/./mavlink_msg_rc_channels_override.h **** }) mavlink_rc_channels_override_t;
  29:Modules/include/MAVLink/common/./mavlink_msg_rc_channels_override.h **** 
  30:Modules/include/MAVLink/common/./mavlink_msg_rc_channels_override.h **** #define MAVLINK_MSG_ID_RC_CHANNELS_OVERRIDE_LEN 38
  31:Modules/include/MAVLink/common/./mavlink_msg_rc_channels_override.h **** #define MAVLINK_MSG_ID_RC_CHANNELS_OVERRIDE_MIN_LEN 18
  32:Modules/include/MAVLink/common/./mavlink_msg_rc_channels_override.h **** #define MAVLINK_MSG_ID_70_LEN 38
  33:Modules/include/MAVLink/common/./mavlink_msg_rc_channels_override.h **** #define MAVLINK_MSG_ID_70_MIN_LEN 18
  34:Modules/include/MAVLink/common/./mavlink_msg_rc_channels_override.h **** 
  35:Modules/include/MAVLink/common/./mavlink_msg_rc_channels_override.h **** #define MAVLINK_MSG_ID_RC_CHANNELS_OVERRIDE_CRC 124
  36:Modules/include/MAVLink/common/./mavlink_msg_rc_channels_override.h **** #define MAVLINK_MSG_ID_70_CRC 124
  37:Modules/include/MAVLink/common/./mavlink_msg_rc_channels_override.h **** 
  38:Modules/include/MAVLink/common/./mavlink_msg_rc_channels_override.h **** 
  39:Modules/include/MAVLink/common/./mavlink_msg_rc_channels_override.h **** 
  40:Modules/include/MAVLink/common/./mavlink_msg_rc_channels_override.h **** #if MAVLINK_COMMAND_24BIT
  41:Modules/include/MAVLink/common/./mavlink_msg_rc_channels_override.h **** #define MAVLINK_MESSAGE_INFO_RC_CHANNELS_OVERRIDE { \
  42:Modules/include/MAVLink/common/./mavlink_msg_rc_channels_override.h ****     70, \
  43:Modules/include/MAVLink/common/./mavlink_msg_rc_channels_override.h ****     "RC_CHANNELS_OVERRIDE", \
  44:Modules/include/MAVLink/common/./mavlink_msg_rc_channels_override.h ****     20, \
  45:Modules/include/MAVLink/common/./mavlink_msg_rc_channels_override.h ****     {  { "target_system", NULL, MAVLINK_TYPE_UINT8_T, 0, 16, offsetof(mavlink_rc_channels_override_
  46:Modules/include/MAVLink/common/./mavlink_msg_rc_channels_override.h ****          { "target_component", NULL, MAVLINK_TYPE_UINT8_T, 0, 17, offsetof(mavlink_rc_channels_over
  47:Modules/include/MAVLink/common/./mavlink_msg_rc_channels_override.h ****          { "chan1_raw", NULL, MAVLINK_TYPE_UINT16_T, 0, 0, offsetof(mavlink_rc_channels_override_t,
  48:Modules/include/MAVLink/common/./mavlink_msg_rc_channels_override.h ****          { "chan2_raw", NULL, MAVLINK_TYPE_UINT16_T, 0, 2, offsetof(mavlink_rc_channels_override_t,
  49:Modules/include/MAVLink/common/./mavlink_msg_rc_channels_override.h ****          { "chan3_raw", NULL, MAVLINK_TYPE_UINT16_T, 0, 4, offsetof(mavlink_rc_channels_override_t,
  50:Modules/include/MAVLink/common/./mavlink_msg_rc_channels_override.h ****          { "chan4_raw", NULL, MAVLINK_TYPE_UINT16_T, 0, 6, offsetof(mavlink_rc_channels_override_t,
  51:Modules/include/MAVLink/common/./mavlink_msg_rc_channels_override.h ****          { "chan5_raw", NULL, MAVLINK_TYPE_UINT16_T, 0, 8, offsetof(mavlink_rc_channels_override_t,
  52:Modules/include/MAVLink/common/./mavlink_msg_rc_channels_override.h ****          { "chan6_raw", NULL, MAVLINK_TYPE_UINT16_T, 0, 10, offsetof(mavlink_rc_channels_override_t
  53:Modules/include/MAVLink/common/./mavlink_msg_rc_channels_override.h ****          { "chan7_raw", NULL, MAVLINK_TYPE_UINT16_T, 0, 12, offsetof(mavlink_rc_channels_override_t
  54:Modules/include/MAVLink/common/./mavlink_msg_rc_channels_override.h ****          { "chan8_raw", NULL, MAVLINK_TYPE_UINT16_T, 0, 14, offsetof(mavlink_rc_channels_override_t
  55:Modules/include/MAVLink/common/./mavlink_msg_rc_channels_override.h ****          { "chan9_raw", NULL, MAVLINK_TYPE_UINT16_T, 0, 18, offsetof(mavlink_rc_channels_override_t
  56:Modules/include/MAVLink/common/./mavlink_msg_rc_channels_override.h ****          { "chan10_raw", NULL, MAVLINK_TYPE_UINT16_T, 0, 20, offsetof(mavlink_rc_channels_override_
  57:Modules/include/MAVLink/common/./mavlink_msg_rc_channels_override.h ****          { "chan11_raw", NULL, MAVLINK_TYPE_UINT16_T, 0, 22, offsetof(mavlink_rc_channels_override_
  58:Modules/include/MAVLink/common/./mavlink_msg_rc_channels_override.h ****          { "chan12_raw", NULL, MAVLINK_TYPE_UINT16_T, 0, 24, offsetof(mavlink_rc_channels_override_
  59:Modules/include/MAVLink/common/./mavlink_msg_rc_channels_override.h ****          { "chan13_raw", NULL, MAVLINK_TYPE_UINT16_T, 0, 26, offsetof(mavlink_rc_channels_override_
  60:Modules/include/MAVLink/common/./mavlink_msg_rc_channels_override.h ****          { "chan14_raw", NULL, MAVLINK_TYPE_UINT16_T, 0, 28, offsetof(mavlink_rc_channels_override_
  61:Modules/include/MAVLink/common/./mavlink_msg_rc_channels_override.h ****          { "chan15_raw", NULL, MAVLINK_TYPE_UINT16_T, 0, 30, offsetof(mavlink_rc_channels_override_
  62:Modules/include/MAVLink/common/./mavlink_msg_rc_channels_override.h ****          { "chan16_raw", NULL, MAVLINK_TYPE_UINT16_T, 0, 32, offsetof(mavlink_rc_channels_override_
  63:Modules/include/MAVLink/common/./mavlink_msg_rc_channels_override.h ****          { "chan17_raw", NULL, MAVLINK_TYPE_UINT16_T, 0, 34, offsetof(mavlink_rc_channels_override_
  64:Modules/include/MAVLink/common/./mavlink_msg_rc_channels_override.h ****          { "chan18_raw", NULL, MAVLINK_TYPE_UINT16_T, 0, 36, offsetof(mavlink_rc_channels_override_
  65:Modules/include/MAVLink/common/./mavlink_msg_rc_channels_override.h ****          } \
  66:Modules/include/MAVLink/common/./mavlink_msg_rc_channels_override.h **** }
  67:Modules/include/MAVLink/common/./mavlink_msg_rc_channels_override.h **** #else
ARM GAS  C:\Users\luoha\AppData\Local\Temp\ccarQJQt.s 			page 6


  68:Modules/include/MAVLink/common/./mavlink_msg_rc_channels_override.h **** #define MAVLINK_MESSAGE_INFO_RC_CHANNELS_OVERRIDE { \
  69:Modules/include/MAVLink/common/./mavlink_msg_rc_channels_override.h ****     "RC_CHANNELS_OVERRIDE", \
  70:Modules/include/MAVLink/common/./mavlink_msg_rc_channels_override.h ****     20, \
  71:Modules/include/MAVLink/common/./mavlink_msg_rc_channels_override.h ****     {  { "target_system", NULL, MAVLINK_TYPE_UINT8_T, 0, 16, offsetof(mavlink_rc_channels_override_
  72:Modules/include/MAVLink/common/./mavlink_msg_rc_channels_override.h ****          { "target_component", NULL, MAVLINK_TYPE_UINT8_T, 0, 17, offsetof(mavlink_rc_channels_over
  73:Modules/include/MAVLink/common/./mavlink_msg_rc_channels_override.h ****          { "chan1_raw", NULL, MAVLINK_TYPE_UINT16_T, 0, 0, offsetof(mavlink_rc_channels_override_t,
  74:Modules/include/MAVLink/common/./mavlink_msg_rc_channels_override.h ****          { "chan2_raw", NULL, MAVLINK_TYPE_UINT16_T, 0, 2, offsetof(mavlink_rc_channels_override_t,
  75:Modules/include/MAVLink/common/./mavlink_msg_rc_channels_override.h ****          { "chan3_raw", NULL, MAVLINK_TYPE_UINT16_T, 0, 4, offsetof(mavlink_rc_channels_override_t,
  76:Modules/include/MAVLink/common/./mavlink_msg_rc_channels_override.h ****          { "chan4_raw", NULL, MAVLINK_TYPE_UINT16_T, 0, 6, offsetof(mavlink_rc_channels_override_t,
  77:Modules/include/MAVLink/common/./mavlink_msg_rc_channels_override.h ****          { "chan5_raw", NULL, MAVLINK_TYPE_UINT16_T, 0, 8, offsetof(mavlink_rc_channels_override_t,
  78:Modules/include/MAVLink/common/./mavlink_msg_rc_channels_override.h ****          { "chan6_raw", NULL, MAVLINK_TYPE_UINT16_T, 0, 10, offsetof(mavlink_rc_channels_override_t
  79:Modules/include/MAVLink/common/./mavlink_msg_rc_channels_override.h ****          { "chan7_raw", NULL, MAVLINK_TYPE_UINT16_T, 0, 12, offsetof(mavlink_rc_channels_override_t
  80:Modules/include/MAVLink/common/./mavlink_msg_rc_channels_override.h ****          { "chan8_raw", NULL, MAVLINK_TYPE_UINT16_T, 0, 14, offsetof(mavlink_rc_channels_override_t
  81:Modules/include/MAVLink/common/./mavlink_msg_rc_channels_override.h ****          { "chan9_raw", NULL, MAVLINK_TYPE_UINT16_T, 0, 18, offsetof(mavlink_rc_channels_override_t
  82:Modules/include/MAVLink/common/./mavlink_msg_rc_channels_override.h ****          { "chan10_raw", NULL, MAVLINK_TYPE_UINT16_T, 0, 20, offsetof(mavlink_rc_channels_override_
  83:Modules/include/MAVLink/common/./mavlink_msg_rc_channels_override.h ****          { "chan11_raw", NULL, MAVLINK_TYPE_UINT16_T, 0, 22, offsetof(mavlink_rc_channels_override_
  84:Modules/include/MAVLink/common/./mavlink_msg_rc_channels_override.h ****          { "chan12_raw", NULL, MAVLINK_TYPE_UINT16_T, 0, 24, offsetof(mavlink_rc_channels_override_
  85:Modules/include/MAVLink/common/./mavlink_msg_rc_channels_override.h ****          { "chan13_raw", NULL, MAVLINK_TYPE_UINT16_T, 0, 26, offsetof(mavlink_rc_channels_override_
  86:Modules/include/MAVLink/common/./mavlink_msg_rc_channels_override.h ****          { "chan14_raw", NULL, MAVLINK_TYPE_UINT16_T, 0, 28, offsetof(mavlink_rc_channels_override_
  87:Modules/include/MAVLink/common/./mavlink_msg_rc_channels_override.h ****          { "chan15_raw", NULL, MAVLINK_TYPE_UINT16_T, 0, 30, offsetof(mavlink_rc_channels_override_
  88:Modules/include/MAVLink/common/./mavlink_msg_rc_channels_override.h ****          { "chan16_raw", NULL, MAVLINK_TYPE_UINT16_T, 0, 32, offsetof(mavlink_rc_channels_override_
  89:Modules/include/MAVLink/common/./mavlink_msg_rc_channels_override.h ****          { "chan17_raw", NULL, MAVLINK_TYPE_UINT16_T, 0, 34, offsetof(mavlink_rc_channels_override_
  90:Modules/include/MAVLink/common/./mavlink_msg_rc_channels_override.h ****          { "chan18_raw", NULL, MAVLINK_TYPE_UINT16_T, 0, 36, offsetof(mavlink_rc_channels_override_
  91:Modules/include/MAVLink/common/./mavlink_msg_rc_channels_override.h ****          } \
  92:Modules/include/MAVLink/common/./mavlink_msg_rc_channels_override.h **** }
  93:Modules/include/MAVLink/common/./mavlink_msg_rc_channels_override.h **** #endif
  94:Modules/include/MAVLink/common/./mavlink_msg_rc_channels_override.h **** 
  95:Modules/include/MAVLink/common/./mavlink_msg_rc_channels_override.h **** /**
  96:Modules/include/MAVLink/common/./mavlink_msg_rc_channels_override.h ****  * @brief Pack a rc_channels_override message
  97:Modules/include/MAVLink/common/./mavlink_msg_rc_channels_override.h ****  * @param system_id ID of this system
  98:Modules/include/MAVLink/common/./mavlink_msg_rc_channels_override.h ****  * @param component_id ID of this component (e.g. 200 for IMU)
  99:Modules/include/MAVLink/common/./mavlink_msg_rc_channels_override.h ****  * @param msg The MAVLink message to compress the data into
 100:Modules/include/MAVLink/common/./mavlink_msg_rc_channels_override.h ****  *
 101:Modules/include/MAVLink/common/./mavlink_msg_rc_channels_override.h ****  * @param target_system  System ID
 102:Modules/include/MAVLink/common/./mavlink_msg_rc_channels_override.h ****  * @param target_component  Component ID
 103:Modules/include/MAVLink/common/./mavlink_msg_rc_channels_override.h ****  * @param chan1_raw [us] RC channel 1 value. A value of UINT16_MAX means to ignore this field.
 104:Modules/include/MAVLink/common/./mavlink_msg_rc_channels_override.h ****  * @param chan2_raw [us] RC channel 2 value. A value of UINT16_MAX means to ignore this field.
 105:Modules/include/MAVLink/common/./mavlink_msg_rc_channels_override.h ****  * @param chan3_raw [us] RC channel 3 value. A value of UINT16_MAX means to ignore this field.
 106:Modules/include/MAVLink/common/./mavlink_msg_rc_channels_override.h ****  * @param chan4_raw [us] RC channel 4 value. A value of UINT16_MAX means to ignore this field.
 107:Modules/include/MAVLink/common/./mavlink_msg_rc_channels_override.h ****  * @param chan5_raw [us] RC channel 5 value. A value of UINT16_MAX means to ignore this field.
 108:Modules/include/MAVLink/common/./mavlink_msg_rc_channels_override.h ****  * @param chan6_raw [us] RC channel 6 value. A value of UINT16_MAX means to ignore this field.
 109:Modules/include/MAVLink/common/./mavlink_msg_rc_channels_override.h ****  * @param chan7_raw [us] RC channel 7 value. A value of UINT16_MAX means to ignore this field.
 110:Modules/include/MAVLink/common/./mavlink_msg_rc_channels_override.h ****  * @param chan8_raw [us] RC channel 8 value. A value of UINT16_MAX means to ignore this field.
 111:Modules/include/MAVLink/common/./mavlink_msg_rc_channels_override.h ****  * @param chan9_raw [us] RC channel 9 value. A value of 0 or UINT16_MAX means to ignore this field.
 112:Modules/include/MAVLink/common/./mavlink_msg_rc_channels_override.h ****  * @param chan10_raw [us] RC channel 10 value. A value of 0 or UINT16_MAX means to ignore this fiel
 113:Modules/include/MAVLink/common/./mavlink_msg_rc_channels_override.h ****  * @param chan11_raw [us] RC channel 11 value. A value of 0 or UINT16_MAX means to ignore this fiel
 114:Modules/include/MAVLink/common/./mavlink_msg_rc_channels_override.h ****  * @param chan12_raw [us] RC channel 12 value. A value of 0 or UINT16_MAX means to ignore this fiel
 115:Modules/include/MAVLink/common/./mavlink_msg_rc_channels_override.h ****  * @param chan13_raw [us] RC channel 13 value. A value of 0 or UINT16_MAX means to ignore this fiel
 116:Modules/include/MAVLink/common/./mavlink_msg_rc_channels_override.h ****  * @param chan14_raw [us] RC channel 14 value. A value of 0 or UINT16_MAX means to ignore this fiel
 117:Modules/include/MAVLink/common/./mavlink_msg_rc_channels_override.h ****  * @param chan15_raw [us] RC channel 15 value. A value of 0 or UINT16_MAX means to ignore this fiel
 118:Modules/include/MAVLink/common/./mavlink_msg_rc_channels_override.h ****  * @param chan16_raw [us] RC channel 16 value. A value of 0 or UINT16_MAX means to ignore this fiel
 119:Modules/include/MAVLink/common/./mavlink_msg_rc_channels_override.h ****  * @param chan17_raw [us] RC channel 17 value. A value of 0 or UINT16_MAX means to ignore this fiel
 120:Modules/include/MAVLink/common/./mavlink_msg_rc_channels_override.h ****  * @param chan18_raw [us] RC channel 18 value. A value of 0 or UINT16_MAX means to ignore this fiel
 121:Modules/include/MAVLink/common/./mavlink_msg_rc_channels_override.h ****  * @return length of the message in bytes (excluding serial stream start sign)
 122:Modules/include/MAVLink/common/./mavlink_msg_rc_channels_override.h ****  */
 123:Modules/include/MAVLink/common/./mavlink_msg_rc_channels_override.h **** static inline uint16_t mavlink_msg_rc_channels_override_pack(uint8_t system_id, uint8_t component_i
 124:Modules/include/MAVLink/common/./mavlink_msg_rc_channels_override.h ****                                uint8_t target_system, uint8_t target_component, uint16_t chan1_raw,
ARM GAS  C:\Users\luoha\AppData\Local\Temp\ccarQJQt.s 			page 7


 125:Modules/include/MAVLink/common/./mavlink_msg_rc_channels_override.h **** {
 126:Modules/include/MAVLink/common/./mavlink_msg_rc_channels_override.h **** #if MAVLINK_NEED_BYTE_SWAP || !MAVLINK_ALIGNED_FIELDS
 127:Modules/include/MAVLink/common/./mavlink_msg_rc_channels_override.h ****     char buf[MAVLINK_MSG_ID_RC_CHANNELS_OVERRIDE_LEN];
 128:Modules/include/MAVLink/common/./mavlink_msg_rc_channels_override.h ****     _mav_put_uint16_t(buf, 0, chan1_raw);
 129:Modules/include/MAVLink/common/./mavlink_msg_rc_channels_override.h ****     _mav_put_uint16_t(buf, 2, chan2_raw);
 130:Modules/include/MAVLink/common/./mavlink_msg_rc_channels_override.h ****     _mav_put_uint16_t(buf, 4, chan3_raw);
 131:Modules/include/MAVLink/common/./mavlink_msg_rc_channels_override.h ****     _mav_put_uint16_t(buf, 6, chan4_raw);
 132:Modules/include/MAVLink/common/./mavlink_msg_rc_channels_override.h ****     _mav_put_uint16_t(buf, 8, chan5_raw);
 133:Modules/include/MAVLink/common/./mavlink_msg_rc_channels_override.h ****     _mav_put_uint16_t(buf, 10, chan6_raw);
 134:Modules/include/MAVLink/common/./mavlink_msg_rc_channels_override.h ****     _mav_put_uint16_t(buf, 12, chan7_raw);
 135:Modules/include/MAVLink/common/./mavlink_msg_rc_channels_override.h ****     _mav_put_uint16_t(buf, 14, chan8_raw);
 136:Modules/include/MAVLink/common/./mavlink_msg_rc_channels_override.h ****     _mav_put_uint8_t(buf, 16, target_system);
 137:Modules/include/MAVLink/common/./mavlink_msg_rc_channels_override.h ****     _mav_put_uint8_t(buf, 17, target_component);
 138:Modules/include/MAVLink/common/./mavlink_msg_rc_channels_override.h ****     _mav_put_uint16_t(buf, 18, chan9_raw);
 139:Modules/include/MAVLink/common/./mavlink_msg_rc_channels_override.h ****     _mav_put_uint16_t(buf, 20, chan10_raw);
 140:Modules/include/MAVLink/common/./mavlink_msg_rc_channels_override.h ****     _mav_put_uint16_t(buf, 22, chan11_raw);
 141:Modules/include/MAVLink/common/./mavlink_msg_rc_channels_override.h ****     _mav_put_uint16_t(buf, 24, chan12_raw);
 142:Modules/include/MAVLink/common/./mavlink_msg_rc_channels_override.h ****     _mav_put_uint16_t(buf, 26, chan13_raw);
 143:Modules/include/MAVLink/common/./mavlink_msg_rc_channels_override.h ****     _mav_put_uint16_t(buf, 28, chan14_raw);
 144:Modules/include/MAVLink/common/./mavlink_msg_rc_channels_override.h ****     _mav_put_uint16_t(buf, 30, chan15_raw);
 145:Modules/include/MAVLink/common/./mavlink_msg_rc_channels_override.h ****     _mav_put_uint16_t(buf, 32, chan16_raw);
 146:Modules/include/MAVLink/common/./mavlink_msg_rc_channels_override.h ****     _mav_put_uint16_t(buf, 34, chan17_raw);
 147:Modules/include/MAVLink/common/./mavlink_msg_rc_channels_override.h ****     _mav_put_uint16_t(buf, 36, chan18_raw);
 148:Modules/include/MAVLink/common/./mavlink_msg_rc_channels_override.h **** 
 149:Modules/include/MAVLink/common/./mavlink_msg_rc_channels_override.h ****         memcpy(_MAV_PAYLOAD_NON_CONST(msg), buf, MAVLINK_MSG_ID_RC_CHANNELS_OVERRIDE_LEN);
 150:Modules/include/MAVLink/common/./mavlink_msg_rc_channels_override.h **** #else
 151:Modules/include/MAVLink/common/./mavlink_msg_rc_channels_override.h ****     mavlink_rc_channels_override_t packet;
 152:Modules/include/MAVLink/common/./mavlink_msg_rc_channels_override.h ****     packet.chan1_raw = chan1_raw;
 153:Modules/include/MAVLink/common/./mavlink_msg_rc_channels_override.h ****     packet.chan2_raw = chan2_raw;
 154:Modules/include/MAVLink/common/./mavlink_msg_rc_channels_override.h ****     packet.chan3_raw = chan3_raw;
 155:Modules/include/MAVLink/common/./mavlink_msg_rc_channels_override.h ****     packet.chan4_raw = chan4_raw;
 156:Modules/include/MAVLink/common/./mavlink_msg_rc_channels_override.h ****     packet.chan5_raw = chan5_raw;
 157:Modules/include/MAVLink/common/./mavlink_msg_rc_channels_override.h ****     packet.chan6_raw = chan6_raw;
 158:Modules/include/MAVLink/common/./mavlink_msg_rc_channels_override.h ****     packet.chan7_raw = chan7_raw;
 159:Modules/include/MAVLink/common/./mavlink_msg_rc_channels_override.h ****     packet.chan8_raw = chan8_raw;
 160:Modules/include/MAVLink/common/./mavlink_msg_rc_channels_override.h ****     packet.target_system = target_system;
 161:Modules/include/MAVLink/common/./mavlink_msg_rc_channels_override.h ****     packet.target_component = target_component;
 162:Modules/include/MAVLink/common/./mavlink_msg_rc_channels_override.h ****     packet.chan9_raw = chan9_raw;
 163:Modules/include/MAVLink/common/./mavlink_msg_rc_channels_override.h ****     packet.chan10_raw = chan10_raw;
 164:Modules/include/MAVLink/common/./mavlink_msg_rc_channels_override.h ****     packet.chan11_raw = chan11_raw;
 165:Modules/include/MAVLink/common/./mavlink_msg_rc_channels_override.h ****     packet.chan12_raw = chan12_raw;
 166:Modules/include/MAVLink/common/./mavlink_msg_rc_channels_override.h ****     packet.chan13_raw = chan13_raw;
 167:Modules/include/MAVLink/common/./mavlink_msg_rc_channels_override.h ****     packet.chan14_raw = chan14_raw;
 168:Modules/include/MAVLink/common/./mavlink_msg_rc_channels_override.h ****     packet.chan15_raw = chan15_raw;
 169:Modules/include/MAVLink/common/./mavlink_msg_rc_channels_override.h ****     packet.chan16_raw = chan16_raw;
 170:Modules/include/MAVLink/common/./mavlink_msg_rc_channels_override.h ****     packet.chan17_raw = chan17_raw;
 171:Modules/include/MAVLink/common/./mavlink_msg_rc_channels_override.h ****     packet.chan18_raw = chan18_raw;
 172:Modules/include/MAVLink/common/./mavlink_msg_rc_channels_override.h **** 
 173:Modules/include/MAVLink/common/./mavlink_msg_rc_channels_override.h ****         memcpy(_MAV_PAYLOAD_NON_CONST(msg), &packet, MAVLINK_MSG_ID_RC_CHANNELS_OVERRIDE_LEN);
 174:Modules/include/MAVLink/common/./mavlink_msg_rc_channels_override.h **** #endif
 175:Modules/include/MAVLink/common/./mavlink_msg_rc_channels_override.h **** 
 176:Modules/include/MAVLink/common/./mavlink_msg_rc_channels_override.h ****     msg->msgid = MAVLINK_MSG_ID_RC_CHANNELS_OVERRIDE;
 177:Modules/include/MAVLink/common/./mavlink_msg_rc_channels_override.h ****     return mavlink_finalize_message(msg, system_id, component_id, MAVLINK_MSG_ID_RC_CHANNELS_OVERRI
 178:Modules/include/MAVLink/common/./mavlink_msg_rc_channels_override.h **** }
 179:Modules/include/MAVLink/common/./mavlink_msg_rc_channels_override.h **** 
 180:Modules/include/MAVLink/common/./mavlink_msg_rc_channels_override.h **** /**
 181:Modules/include/MAVLink/common/./mavlink_msg_rc_channels_override.h ****  * @brief Pack a rc_channels_override message on a channel
ARM GAS  C:\Users\luoha\AppData\Local\Temp\ccarQJQt.s 			page 8


 182:Modules/include/MAVLink/common/./mavlink_msg_rc_channels_override.h ****  * @param system_id ID of this system
 183:Modules/include/MAVLink/common/./mavlink_msg_rc_channels_override.h ****  * @param component_id ID of this component (e.g. 200 for IMU)
 184:Modules/include/MAVLink/common/./mavlink_msg_rc_channels_override.h ****  * @param chan The MAVLink channel this message will be sent over
 185:Modules/include/MAVLink/common/./mavlink_msg_rc_channels_override.h ****  * @param msg The MAVLink message to compress the data into
 186:Modules/include/MAVLink/common/./mavlink_msg_rc_channels_override.h ****  * @param target_system  System ID
 187:Modules/include/MAVLink/common/./mavlink_msg_rc_channels_override.h ****  * @param target_component  Component ID
 188:Modules/include/MAVLink/common/./mavlink_msg_rc_channels_override.h ****  * @param chan1_raw [us] RC channel 1 value. A value of UINT16_MAX means to ignore this field.
 189:Modules/include/MAVLink/common/./mavlink_msg_rc_channels_override.h ****  * @param chan2_raw [us] RC channel 2 value. A value of UINT16_MAX means to ignore this field.
 190:Modules/include/MAVLink/common/./mavlink_msg_rc_channels_override.h ****  * @param chan3_raw [us] RC channel 3 value. A value of UINT16_MAX means to ignore this field.
 191:Modules/include/MAVLink/common/./mavlink_msg_rc_channels_override.h ****  * @param chan4_raw [us] RC channel 4 value. A value of UINT16_MAX means to ignore this field.
 192:Modules/include/MAVLink/common/./mavlink_msg_rc_channels_override.h ****  * @param chan5_raw [us] RC channel 5 value. A value of UINT16_MAX means to ignore this field.
 193:Modules/include/MAVLink/common/./mavlink_msg_rc_channels_override.h ****  * @param chan6_raw [us] RC channel 6 value. A value of UINT16_MAX means to ignore this field.
 194:Modules/include/MAVLink/common/./mavlink_msg_rc_channels_override.h ****  * @param chan7_raw [us] RC channel 7 value. A value of UINT16_MAX means to ignore this field.
 195:Modules/include/MAVLink/common/./mavlink_msg_rc_channels_override.h ****  * @param chan8_raw [us] RC channel 8 value. A value of UINT16_MAX means to ignore this field.
 196:Modules/include/MAVLink/common/./mavlink_msg_rc_channels_override.h ****  * @param chan9_raw [us] RC channel 9 value. A value of 0 or UINT16_MAX means to ignore this field.
 197:Modules/include/MAVLink/common/./mavlink_msg_rc_channels_override.h ****  * @param chan10_raw [us] RC channel 10 value. A value of 0 or UINT16_MAX means to ignore this fiel
 198:Modules/include/MAVLink/common/./mavlink_msg_rc_channels_override.h ****  * @param chan11_raw [us] RC channel 11 value. A value of 0 or UINT16_MAX means to ignore this fiel
 199:Modules/include/MAVLink/common/./mavlink_msg_rc_channels_override.h ****  * @param chan12_raw [us] RC channel 12 value. A value of 0 or UINT16_MAX means to ignore this fiel
 200:Modules/include/MAVLink/common/./mavlink_msg_rc_channels_override.h ****  * @param chan13_raw [us] RC channel 13 value. A value of 0 or UINT16_MAX means to ignore this fiel
 201:Modules/include/MAVLink/common/./mavlink_msg_rc_channels_override.h ****  * @param chan14_raw [us] RC channel 14 value. A value of 0 or UINT16_MAX means to ignore this fiel
 202:Modules/include/MAVLink/common/./mavlink_msg_rc_channels_override.h ****  * @param chan15_raw [us] RC channel 15 value. A value of 0 or UINT16_MAX means to ignore this fiel
 203:Modules/include/MAVLink/common/./mavlink_msg_rc_channels_override.h ****  * @param chan16_raw [us] RC channel 16 value. A value of 0 or UINT16_MAX means to ignore this fiel
 204:Modules/include/MAVLink/common/./mavlink_msg_rc_channels_override.h ****  * @param chan17_raw [us] RC channel 17 value. A value of 0 or UINT16_MAX means to ignore this fiel
 205:Modules/include/MAVLink/common/./mavlink_msg_rc_channels_override.h ****  * @param chan18_raw [us] RC channel 18 value. A value of 0 or UINT16_MAX means to ignore this fiel
 206:Modules/include/MAVLink/common/./mavlink_msg_rc_channels_override.h ****  * @return length of the message in bytes (excluding serial stream start sign)
 207:Modules/include/MAVLink/common/./mavlink_msg_rc_channels_override.h ****  */
 208:Modules/include/MAVLink/common/./mavlink_msg_rc_channels_override.h **** static inline uint16_t mavlink_msg_rc_channels_override_pack_chan(uint8_t system_id, uint8_t compon
 209:Modules/include/MAVLink/common/./mavlink_msg_rc_channels_override.h ****                                mavlink_message_t* msg,
 210:Modules/include/MAVLink/common/./mavlink_msg_rc_channels_override.h ****                                    uint8_t target_system,uint8_t target_component,uint16_t chan1_ra
 211:Modules/include/MAVLink/common/./mavlink_msg_rc_channels_override.h **** {
 212:Modules/include/MAVLink/common/./mavlink_msg_rc_channels_override.h **** #if MAVLINK_NEED_BYTE_SWAP || !MAVLINK_ALIGNED_FIELDS
 213:Modules/include/MAVLink/common/./mavlink_msg_rc_channels_override.h ****     char buf[MAVLINK_MSG_ID_RC_CHANNELS_OVERRIDE_LEN];
 214:Modules/include/MAVLink/common/./mavlink_msg_rc_channels_override.h ****     _mav_put_uint16_t(buf, 0, chan1_raw);
 215:Modules/include/MAVLink/common/./mavlink_msg_rc_channels_override.h ****     _mav_put_uint16_t(buf, 2, chan2_raw);
 216:Modules/include/MAVLink/common/./mavlink_msg_rc_channels_override.h ****     _mav_put_uint16_t(buf, 4, chan3_raw);
 217:Modules/include/MAVLink/common/./mavlink_msg_rc_channels_override.h ****     _mav_put_uint16_t(buf, 6, chan4_raw);
 218:Modules/include/MAVLink/common/./mavlink_msg_rc_channels_override.h ****     _mav_put_uint16_t(buf, 8, chan5_raw);
 219:Modules/include/MAVLink/common/./mavlink_msg_rc_channels_override.h ****     _mav_put_uint16_t(buf, 10, chan6_raw);
 220:Modules/include/MAVLink/common/./mavlink_msg_rc_channels_override.h ****     _mav_put_uint16_t(buf, 12, chan7_raw);
 221:Modules/include/MAVLink/common/./mavlink_msg_rc_channels_override.h ****     _mav_put_uint16_t(buf, 14, chan8_raw);
 222:Modules/include/MAVLink/common/./mavlink_msg_rc_channels_override.h ****     _mav_put_uint8_t(buf, 16, target_system);
 223:Modules/include/MAVLink/common/./mavlink_msg_rc_channels_override.h ****     _mav_put_uint8_t(buf, 17, target_component);
 224:Modules/include/MAVLink/common/./mavlink_msg_rc_channels_override.h ****     _mav_put_uint16_t(buf, 18, chan9_raw);
 225:Modules/include/MAVLink/common/./mavlink_msg_rc_channels_override.h ****     _mav_put_uint16_t(buf, 20, chan10_raw);
 226:Modules/include/MAVLink/common/./mavlink_msg_rc_channels_override.h ****     _mav_put_uint16_t(buf, 22, chan11_raw);
 227:Modules/include/MAVLink/common/./mavlink_msg_rc_channels_override.h ****     _mav_put_uint16_t(buf, 24, chan12_raw);
 228:Modules/include/MAVLink/common/./mavlink_msg_rc_channels_override.h ****     _mav_put_uint16_t(buf, 26, chan13_raw);
 229:Modules/include/MAVLink/common/./mavlink_msg_rc_channels_override.h ****     _mav_put_uint16_t(buf, 28, chan14_raw);
 230:Modules/include/MAVLink/common/./mavlink_msg_rc_channels_override.h ****     _mav_put_uint16_t(buf, 30, chan15_raw);
 231:Modules/include/MAVLink/common/./mavlink_msg_rc_channels_override.h ****     _mav_put_uint16_t(buf, 32, chan16_raw);
 232:Modules/include/MAVLink/common/./mavlink_msg_rc_channels_override.h ****     _mav_put_uint16_t(buf, 34, chan17_raw);
 233:Modules/include/MAVLink/common/./mavlink_msg_rc_channels_override.h ****     _mav_put_uint16_t(buf, 36, chan18_raw);
 234:Modules/include/MAVLink/common/./mavlink_msg_rc_channels_override.h **** 
 235:Modules/include/MAVLink/common/./mavlink_msg_rc_channels_override.h ****         memcpy(_MAV_PAYLOAD_NON_CONST(msg), buf, MAVLINK_MSG_ID_RC_CHANNELS_OVERRIDE_LEN);
 236:Modules/include/MAVLink/common/./mavlink_msg_rc_channels_override.h **** #else
 237:Modules/include/MAVLink/common/./mavlink_msg_rc_channels_override.h ****     mavlink_rc_channels_override_t packet;
 238:Modules/include/MAVLink/common/./mavlink_msg_rc_channels_override.h ****     packet.chan1_raw = chan1_raw;
ARM GAS  C:\Users\luoha\AppData\Local\Temp\ccarQJQt.s 			page 9


 239:Modules/include/MAVLink/common/./mavlink_msg_rc_channels_override.h ****     packet.chan2_raw = chan2_raw;
 240:Modules/include/MAVLink/common/./mavlink_msg_rc_channels_override.h ****     packet.chan3_raw = chan3_raw;
 241:Modules/include/MAVLink/common/./mavlink_msg_rc_channels_override.h ****     packet.chan4_raw = chan4_raw;
 242:Modules/include/MAVLink/common/./mavlink_msg_rc_channels_override.h ****     packet.chan5_raw = chan5_raw;
 243:Modules/include/MAVLink/common/./mavlink_msg_rc_channels_override.h ****     packet.chan6_raw = chan6_raw;
 244:Modules/include/MAVLink/common/./mavlink_msg_rc_channels_override.h ****     packet.chan7_raw = chan7_raw;
 245:Modules/include/MAVLink/common/./mavlink_msg_rc_channels_override.h ****     packet.chan8_raw = chan8_raw;
 246:Modules/include/MAVLink/common/./mavlink_msg_rc_channels_override.h ****     packet.target_system = target_system;
 247:Modules/include/MAVLink/common/./mavlink_msg_rc_channels_override.h ****     packet.target_component = target_component;
 248:Modules/include/MAVLink/common/./mavlink_msg_rc_channels_override.h ****     packet.chan9_raw = chan9_raw;
 249:Modules/include/MAVLink/common/./mavlink_msg_rc_channels_override.h ****     packet.chan10_raw = chan10_raw;
 250:Modules/include/MAVLink/common/./mavlink_msg_rc_channels_override.h ****     packet.chan11_raw = chan11_raw;
 251:Modules/include/MAVLink/common/./mavlink_msg_rc_channels_override.h ****     packet.chan12_raw = chan12_raw;
 252:Modules/include/MAVLink/common/./mavlink_msg_rc_channels_override.h ****     packet.chan13_raw = chan13_raw;
 253:Modules/include/MAVLink/common/./mavlink_msg_rc_channels_override.h ****     packet.chan14_raw = chan14_raw;
 254:Modules/include/MAVLink/common/./mavlink_msg_rc_channels_override.h ****     packet.chan15_raw = chan15_raw;
 255:Modules/include/MAVLink/common/./mavlink_msg_rc_channels_override.h ****     packet.chan16_raw = chan16_raw;
 256:Modules/include/MAVLink/common/./mavlink_msg_rc_channels_override.h ****     packet.chan17_raw = chan17_raw;
 257:Modules/include/MAVLink/common/./mavlink_msg_rc_channels_override.h ****     packet.chan18_raw = chan18_raw;
 258:Modules/include/MAVLink/common/./mavlink_msg_rc_channels_override.h **** 
 259:Modules/include/MAVLink/common/./mavlink_msg_rc_channels_override.h ****         memcpy(_MAV_PAYLOAD_NON_CONST(msg), &packet, MAVLINK_MSG_ID_RC_CHANNELS_OVERRIDE_LEN);
 260:Modules/include/MAVLink/common/./mavlink_msg_rc_channels_override.h **** #endif
 261:Modules/include/MAVLink/common/./mavlink_msg_rc_channels_override.h **** 
 262:Modules/include/MAVLink/common/./mavlink_msg_rc_channels_override.h ****     msg->msgid = MAVLINK_MSG_ID_RC_CHANNELS_OVERRIDE;
 263:Modules/include/MAVLink/common/./mavlink_msg_rc_channels_override.h ****     return mavlink_finalize_message_chan(msg, system_id, component_id, chan, MAVLINK_MSG_ID_RC_CHAN
 264:Modules/include/MAVLink/common/./mavlink_msg_rc_channels_override.h **** }
 265:Modules/include/MAVLink/common/./mavlink_msg_rc_channels_override.h **** 
 266:Modules/include/MAVLink/common/./mavlink_msg_rc_channels_override.h **** /**
 267:Modules/include/MAVLink/common/./mavlink_msg_rc_channels_override.h ****  * @brief Encode a rc_channels_override struct
 268:Modules/include/MAVLink/common/./mavlink_msg_rc_channels_override.h ****  *
 269:Modules/include/MAVLink/common/./mavlink_msg_rc_channels_override.h ****  * @param system_id ID of this system
 270:Modules/include/MAVLink/common/./mavlink_msg_rc_channels_override.h ****  * @param component_id ID of this component (e.g. 200 for IMU)
 271:Modules/include/MAVLink/common/./mavlink_msg_rc_channels_override.h ****  * @param msg The MAVLink message to compress the data into
 272:Modules/include/MAVLink/common/./mavlink_msg_rc_channels_override.h ****  * @param rc_channels_override C-struct to read the message contents from
 273:Modules/include/MAVLink/common/./mavlink_msg_rc_channels_override.h ****  */
 274:Modules/include/MAVLink/common/./mavlink_msg_rc_channels_override.h **** static inline uint16_t mavlink_msg_rc_channels_override_encode(uint8_t system_id, uint8_t component
 275:Modules/include/MAVLink/common/./mavlink_msg_rc_channels_override.h **** {
 276:Modules/include/MAVLink/common/./mavlink_msg_rc_channels_override.h ****     return mavlink_msg_rc_channels_override_pack(system_id, component_id, msg, rc_channels_override
 277:Modules/include/MAVLink/common/./mavlink_msg_rc_channels_override.h **** }
 278:Modules/include/MAVLink/common/./mavlink_msg_rc_channels_override.h **** 
 279:Modules/include/MAVLink/common/./mavlink_msg_rc_channels_override.h **** /**
 280:Modules/include/MAVLink/common/./mavlink_msg_rc_channels_override.h ****  * @brief Encode a rc_channels_override struct on a channel
 281:Modules/include/MAVLink/common/./mavlink_msg_rc_channels_override.h ****  *
 282:Modules/include/MAVLink/common/./mavlink_msg_rc_channels_override.h ****  * @param system_id ID of this system
 283:Modules/include/MAVLink/common/./mavlink_msg_rc_channels_override.h ****  * @param component_id ID of this component (e.g. 200 for IMU)
 284:Modules/include/MAVLink/common/./mavlink_msg_rc_channels_override.h ****  * @param chan The MAVLink channel this message will be sent over
 285:Modules/include/MAVLink/common/./mavlink_msg_rc_channels_override.h ****  * @param msg The MAVLink message to compress the data into
 286:Modules/include/MAVLink/common/./mavlink_msg_rc_channels_override.h ****  * @param rc_channels_override C-struct to read the message contents from
 287:Modules/include/MAVLink/common/./mavlink_msg_rc_channels_override.h ****  */
 288:Modules/include/MAVLink/common/./mavlink_msg_rc_channels_override.h **** static inline uint16_t mavlink_msg_rc_channels_override_encode_chan(uint8_t system_id, uint8_t comp
 289:Modules/include/MAVLink/common/./mavlink_msg_rc_channels_override.h **** {
 290:Modules/include/MAVLink/common/./mavlink_msg_rc_channels_override.h ****     return mavlink_msg_rc_channels_override_pack_chan(system_id, component_id, chan, msg, rc_channe
 291:Modules/include/MAVLink/common/./mavlink_msg_rc_channels_override.h **** }
 292:Modules/include/MAVLink/common/./mavlink_msg_rc_channels_override.h **** 
 293:Modules/include/MAVLink/common/./mavlink_msg_rc_channels_override.h **** /**
 294:Modules/include/MAVLink/common/./mavlink_msg_rc_channels_override.h ****  * @brief Send a rc_channels_override message
 295:Modules/include/MAVLink/common/./mavlink_msg_rc_channels_override.h ****  * @param chan MAVLink channel to send the message
ARM GAS  C:\Users\luoha\AppData\Local\Temp\ccarQJQt.s 			page 10


 296:Modules/include/MAVLink/common/./mavlink_msg_rc_channels_override.h ****  *
 297:Modules/include/MAVLink/common/./mavlink_msg_rc_channels_override.h ****  * @param target_system  System ID
 298:Modules/include/MAVLink/common/./mavlink_msg_rc_channels_override.h ****  * @param target_component  Component ID
 299:Modules/include/MAVLink/common/./mavlink_msg_rc_channels_override.h ****  * @param chan1_raw [us] RC channel 1 value. A value of UINT16_MAX means to ignore this field.
 300:Modules/include/MAVLink/common/./mavlink_msg_rc_channels_override.h ****  * @param chan2_raw [us] RC channel 2 value. A value of UINT16_MAX means to ignore this field.
 301:Modules/include/MAVLink/common/./mavlink_msg_rc_channels_override.h ****  * @param chan3_raw [us] RC channel 3 value. A value of UINT16_MAX means to ignore this field.
 302:Modules/include/MAVLink/common/./mavlink_msg_rc_channels_override.h ****  * @param chan4_raw [us] RC channel 4 value. A value of UINT16_MAX means to ignore this field.
 303:Modules/include/MAVLink/common/./mavlink_msg_rc_channels_override.h ****  * @param chan5_raw [us] RC channel 5 value. A value of UINT16_MAX means to ignore this field.
 304:Modules/include/MAVLink/common/./mavlink_msg_rc_channels_override.h ****  * @param chan6_raw [us] RC channel 6 value. A value of UINT16_MAX means to ignore this field.
 305:Modules/include/MAVLink/common/./mavlink_msg_rc_channels_override.h ****  * @param chan7_raw [us] RC channel 7 value. A value of UINT16_MAX means to ignore this field.
 306:Modules/include/MAVLink/common/./mavlink_msg_rc_channels_override.h ****  * @param chan8_raw [us] RC channel 8 value. A value of UINT16_MAX means to ignore this field.
 307:Modules/include/MAVLink/common/./mavlink_msg_rc_channels_override.h ****  * @param chan9_raw [us] RC channel 9 value. A value of 0 or UINT16_MAX means to ignore this field.
 308:Modules/include/MAVLink/common/./mavlink_msg_rc_channels_override.h ****  * @param chan10_raw [us] RC channel 10 value. A value of 0 or UINT16_MAX means to ignore this fiel
 309:Modules/include/MAVLink/common/./mavlink_msg_rc_channels_override.h ****  * @param chan11_raw [us] RC channel 11 value. A value of 0 or UINT16_MAX means to ignore this fiel
 310:Modules/include/MAVLink/common/./mavlink_msg_rc_channels_override.h ****  * @param chan12_raw [us] RC channel 12 value. A value of 0 or UINT16_MAX means to ignore this fiel
 311:Modules/include/MAVLink/common/./mavlink_msg_rc_channels_override.h ****  * @param chan13_raw [us] RC channel 13 value. A value of 0 or UINT16_MAX means to ignore this fiel
 312:Modules/include/MAVLink/common/./mavlink_msg_rc_channels_override.h ****  * @param chan14_raw [us] RC channel 14 value. A value of 0 or UINT16_MAX means to ignore this fiel
 313:Modules/include/MAVLink/common/./mavlink_msg_rc_channels_override.h ****  * @param chan15_raw [us] RC channel 15 value. A value of 0 or UINT16_MAX means to ignore this fiel
 314:Modules/include/MAVLink/common/./mavlink_msg_rc_channels_override.h ****  * @param chan16_raw [us] RC channel 16 value. A value of 0 or UINT16_MAX means to ignore this fiel
 315:Modules/include/MAVLink/common/./mavlink_msg_rc_channels_override.h ****  * @param chan17_raw [us] RC channel 17 value. A value of 0 or UINT16_MAX means to ignore this fiel
 316:Modules/include/MAVLink/common/./mavlink_msg_rc_channels_override.h ****  * @param chan18_raw [us] RC channel 18 value. A value of 0 or UINT16_MAX means to ignore this fiel
 317:Modules/include/MAVLink/common/./mavlink_msg_rc_channels_override.h ****  */
 318:Modules/include/MAVLink/common/./mavlink_msg_rc_channels_override.h **** #ifdef MAVLINK_USE_CONVENIENCE_FUNCTIONS
 319:Modules/include/MAVLink/common/./mavlink_msg_rc_channels_override.h **** 
 320:Modules/include/MAVLink/common/./mavlink_msg_rc_channels_override.h **** static inline void mavlink_msg_rc_channels_override_send(mavlink_channel_t chan, uint8_t target_sys
 321:Modules/include/MAVLink/common/./mavlink_msg_rc_channels_override.h **** {
 322:Modules/include/MAVLink/common/./mavlink_msg_rc_channels_override.h **** #if MAVLINK_NEED_BYTE_SWAP || !MAVLINK_ALIGNED_FIELDS
 323:Modules/include/MAVLink/common/./mavlink_msg_rc_channels_override.h ****     char buf[MAVLINK_MSG_ID_RC_CHANNELS_OVERRIDE_LEN];
 324:Modules/include/MAVLink/common/./mavlink_msg_rc_channels_override.h ****     _mav_put_uint16_t(buf, 0, chan1_raw);
 325:Modules/include/MAVLink/common/./mavlink_msg_rc_channels_override.h ****     _mav_put_uint16_t(buf, 2, chan2_raw);
 326:Modules/include/MAVLink/common/./mavlink_msg_rc_channels_override.h ****     _mav_put_uint16_t(buf, 4, chan3_raw);
 327:Modules/include/MAVLink/common/./mavlink_msg_rc_channels_override.h ****     _mav_put_uint16_t(buf, 6, chan4_raw);
 328:Modules/include/MAVLink/common/./mavlink_msg_rc_channels_override.h ****     _mav_put_uint16_t(buf, 8, chan5_raw);
 329:Modules/include/MAVLink/common/./mavlink_msg_rc_channels_override.h ****     _mav_put_uint16_t(buf, 10, chan6_raw);
 330:Modules/include/MAVLink/common/./mavlink_msg_rc_channels_override.h ****     _mav_put_uint16_t(buf, 12, chan7_raw);
 331:Modules/include/MAVLink/common/./mavlink_msg_rc_channels_override.h ****     _mav_put_uint16_t(buf, 14, chan8_raw);
 332:Modules/include/MAVLink/common/./mavlink_msg_rc_channels_override.h ****     _mav_put_uint8_t(buf, 16, target_system);
 333:Modules/include/MAVLink/common/./mavlink_msg_rc_channels_override.h ****     _mav_put_uint8_t(buf, 17, target_component);
 334:Modules/include/MAVLink/common/./mavlink_msg_rc_channels_override.h ****     _mav_put_uint16_t(buf, 18, chan9_raw);
 335:Modules/include/MAVLink/common/./mavlink_msg_rc_channels_override.h ****     _mav_put_uint16_t(buf, 20, chan10_raw);
 336:Modules/include/MAVLink/common/./mavlink_msg_rc_channels_override.h ****     _mav_put_uint16_t(buf, 22, chan11_raw);
 337:Modules/include/MAVLink/common/./mavlink_msg_rc_channels_override.h ****     _mav_put_uint16_t(buf, 24, chan12_raw);
 338:Modules/include/MAVLink/common/./mavlink_msg_rc_channels_override.h ****     _mav_put_uint16_t(buf, 26, chan13_raw);
 339:Modules/include/MAVLink/common/./mavlink_msg_rc_channels_override.h ****     _mav_put_uint16_t(buf, 28, chan14_raw);
 340:Modules/include/MAVLink/common/./mavlink_msg_rc_channels_override.h ****     _mav_put_uint16_t(buf, 30, chan15_raw);
 341:Modules/include/MAVLink/common/./mavlink_msg_rc_channels_override.h ****     _mav_put_uint16_t(buf, 32, chan16_raw);
 342:Modules/include/MAVLink/common/./mavlink_msg_rc_channels_override.h ****     _mav_put_uint16_t(buf, 34, chan17_raw);
 343:Modules/include/MAVLink/common/./mavlink_msg_rc_channels_override.h ****     _mav_put_uint16_t(buf, 36, chan18_raw);
 344:Modules/include/MAVLink/common/./mavlink_msg_rc_channels_override.h **** 
 345:Modules/include/MAVLink/common/./mavlink_msg_rc_channels_override.h ****     _mav_finalize_message_chan_send(chan, MAVLINK_MSG_ID_RC_CHANNELS_OVERRIDE, buf, MAVLINK_MSG_ID_
 346:Modules/include/MAVLink/common/./mavlink_msg_rc_channels_override.h **** #else
 347:Modules/include/MAVLink/common/./mavlink_msg_rc_channels_override.h ****     mavlink_rc_channels_override_t packet;
 348:Modules/include/MAVLink/common/./mavlink_msg_rc_channels_override.h ****     packet.chan1_raw = chan1_raw;
 349:Modules/include/MAVLink/common/./mavlink_msg_rc_channels_override.h ****     packet.chan2_raw = chan2_raw;
 350:Modules/include/MAVLink/common/./mavlink_msg_rc_channels_override.h ****     packet.chan3_raw = chan3_raw;
 351:Modules/include/MAVLink/common/./mavlink_msg_rc_channels_override.h ****     packet.chan4_raw = chan4_raw;
 352:Modules/include/MAVLink/common/./mavlink_msg_rc_channels_override.h ****     packet.chan5_raw = chan5_raw;
ARM GAS  C:\Users\luoha\AppData\Local\Temp\ccarQJQt.s 			page 11


 353:Modules/include/MAVLink/common/./mavlink_msg_rc_channels_override.h ****     packet.chan6_raw = chan6_raw;
 354:Modules/include/MAVLink/common/./mavlink_msg_rc_channels_override.h ****     packet.chan7_raw = chan7_raw;
 355:Modules/include/MAVLink/common/./mavlink_msg_rc_channels_override.h ****     packet.chan8_raw = chan8_raw;
 356:Modules/include/MAVLink/common/./mavlink_msg_rc_channels_override.h ****     packet.target_system = target_system;
 357:Modules/include/MAVLink/common/./mavlink_msg_rc_channels_override.h ****     packet.target_component = target_component;
 358:Modules/include/MAVLink/common/./mavlink_msg_rc_channels_override.h ****     packet.chan9_raw = chan9_raw;
 359:Modules/include/MAVLink/common/./mavlink_msg_rc_channels_override.h ****     packet.chan10_raw = chan10_raw;
 360:Modules/include/MAVLink/common/./mavlink_msg_rc_channels_override.h ****     packet.chan11_raw = chan11_raw;
 361:Modules/include/MAVLink/common/./mavlink_msg_rc_channels_override.h ****     packet.chan12_raw = chan12_raw;
 362:Modules/include/MAVLink/common/./mavlink_msg_rc_channels_override.h ****     packet.chan13_raw = chan13_raw;
 363:Modules/include/MAVLink/common/./mavlink_msg_rc_channels_override.h ****     packet.chan14_raw = chan14_raw;
 364:Modules/include/MAVLink/common/./mavlink_msg_rc_channels_override.h ****     packet.chan15_raw = chan15_raw;
 365:Modules/include/MAVLink/common/./mavlink_msg_rc_channels_override.h ****     packet.chan16_raw = chan16_raw;
 366:Modules/include/MAVLink/common/./mavlink_msg_rc_channels_override.h ****     packet.chan17_raw = chan17_raw;
 367:Modules/include/MAVLink/common/./mavlink_msg_rc_channels_override.h ****     packet.chan18_raw = chan18_raw;
 368:Modules/include/MAVLink/common/./mavlink_msg_rc_channels_override.h **** 
 369:Modules/include/MAVLink/common/./mavlink_msg_rc_channels_override.h ****     _mav_finalize_message_chan_send(chan, MAVLINK_MSG_ID_RC_CHANNELS_OVERRIDE, (const char *)&packe
 370:Modules/include/MAVLink/common/./mavlink_msg_rc_channels_override.h **** #endif
 371:Modules/include/MAVLink/common/./mavlink_msg_rc_channels_override.h **** }
 372:Modules/include/MAVLink/common/./mavlink_msg_rc_channels_override.h **** 
 373:Modules/include/MAVLink/common/./mavlink_msg_rc_channels_override.h **** /**
 374:Modules/include/MAVLink/common/./mavlink_msg_rc_channels_override.h ****  * @brief Send a rc_channels_override message
 375:Modules/include/MAVLink/common/./mavlink_msg_rc_channels_override.h ****  * @param chan MAVLink channel to send the message
 376:Modules/include/MAVLink/common/./mavlink_msg_rc_channels_override.h ****  * @param struct The MAVLink struct to serialize
 377:Modules/include/MAVLink/common/./mavlink_msg_rc_channels_override.h ****  */
 378:Modules/include/MAVLink/common/./mavlink_msg_rc_channels_override.h **** static inline void mavlink_msg_rc_channels_override_send_struct(mavlink_channel_t chan, const mavli
 379:Modules/include/MAVLink/common/./mavlink_msg_rc_channels_override.h **** {
 380:Modules/include/MAVLink/common/./mavlink_msg_rc_channels_override.h **** #if MAVLINK_NEED_BYTE_SWAP || !MAVLINK_ALIGNED_FIELDS
 381:Modules/include/MAVLink/common/./mavlink_msg_rc_channels_override.h ****     mavlink_msg_rc_channels_override_send(chan, rc_channels_override->target_system, rc_channels_ov
 382:Modules/include/MAVLink/common/./mavlink_msg_rc_channels_override.h **** #else
 383:Modules/include/MAVLink/common/./mavlink_msg_rc_channels_override.h ****     _mav_finalize_message_chan_send(chan, MAVLINK_MSG_ID_RC_CHANNELS_OVERRIDE, (const char *)rc_cha
 384:Modules/include/MAVLink/common/./mavlink_msg_rc_channels_override.h **** #endif
 385:Modules/include/MAVLink/common/./mavlink_msg_rc_channels_override.h **** }
 386:Modules/include/MAVLink/common/./mavlink_msg_rc_channels_override.h **** 
 387:Modules/include/MAVLink/common/./mavlink_msg_rc_channels_override.h **** #if MAVLINK_MSG_ID_RC_CHANNELS_OVERRIDE_LEN <= MAVLINK_MAX_PAYLOAD_LEN
 388:Modules/include/MAVLink/common/./mavlink_msg_rc_channels_override.h **** /*
 389:Modules/include/MAVLink/common/./mavlink_msg_rc_channels_override.h ****   This varient of _send() can be used to save stack space by re-using
 390:Modules/include/MAVLink/common/./mavlink_msg_rc_channels_override.h ****   memory from the receive buffer.  The caller provides a
 391:Modules/include/MAVLink/common/./mavlink_msg_rc_channels_override.h ****   mavlink_message_t which is the size of a full mavlink message. This
 392:Modules/include/MAVLink/common/./mavlink_msg_rc_channels_override.h ****   is usually the receive buffer for the channel, and allows a reply to an
 393:Modules/include/MAVLink/common/./mavlink_msg_rc_channels_override.h ****   incoming message with minimum stack space usage.
 394:Modules/include/MAVLink/common/./mavlink_msg_rc_channels_override.h ****  */
 395:Modules/include/MAVLink/common/./mavlink_msg_rc_channels_override.h **** static inline void mavlink_msg_rc_channels_override_send_buf(mavlink_message_t *msgbuf, mavlink_cha
 396:Modules/include/MAVLink/common/./mavlink_msg_rc_channels_override.h **** {
 397:Modules/include/MAVLink/common/./mavlink_msg_rc_channels_override.h **** #if MAVLINK_NEED_BYTE_SWAP || !MAVLINK_ALIGNED_FIELDS
 398:Modules/include/MAVLink/common/./mavlink_msg_rc_channels_override.h ****     char *buf = (char *)msgbuf;
 399:Modules/include/MAVLink/common/./mavlink_msg_rc_channels_override.h ****     _mav_put_uint16_t(buf, 0, chan1_raw);
 400:Modules/include/MAVLink/common/./mavlink_msg_rc_channels_override.h ****     _mav_put_uint16_t(buf, 2, chan2_raw);
 401:Modules/include/MAVLink/common/./mavlink_msg_rc_channels_override.h ****     _mav_put_uint16_t(buf, 4, chan3_raw);
 402:Modules/include/MAVLink/common/./mavlink_msg_rc_channels_override.h ****     _mav_put_uint16_t(buf, 6, chan4_raw);
 403:Modules/include/MAVLink/common/./mavlink_msg_rc_channels_override.h ****     _mav_put_uint16_t(buf, 8, chan5_raw);
 404:Modules/include/MAVLink/common/./mavlink_msg_rc_channels_override.h ****     _mav_put_uint16_t(buf, 10, chan6_raw);
 405:Modules/include/MAVLink/common/./mavlink_msg_rc_channels_override.h ****     _mav_put_uint16_t(buf, 12, chan7_raw);
 406:Modules/include/MAVLink/common/./mavlink_msg_rc_channels_override.h ****     _mav_put_uint16_t(buf, 14, chan8_raw);
 407:Modules/include/MAVLink/common/./mavlink_msg_rc_channels_override.h ****     _mav_put_uint8_t(buf, 16, target_system);
 408:Modules/include/MAVLink/common/./mavlink_msg_rc_channels_override.h ****     _mav_put_uint8_t(buf, 17, target_component);
 409:Modules/include/MAVLink/common/./mavlink_msg_rc_channels_override.h ****     _mav_put_uint16_t(buf, 18, chan9_raw);
ARM GAS  C:\Users\luoha\AppData\Local\Temp\ccarQJQt.s 			page 12


 410:Modules/include/MAVLink/common/./mavlink_msg_rc_channels_override.h ****     _mav_put_uint16_t(buf, 20, chan10_raw);
 411:Modules/include/MAVLink/common/./mavlink_msg_rc_channels_override.h ****     _mav_put_uint16_t(buf, 22, chan11_raw);
 412:Modules/include/MAVLink/common/./mavlink_msg_rc_channels_override.h ****     _mav_put_uint16_t(buf, 24, chan12_raw);
 413:Modules/include/MAVLink/common/./mavlink_msg_rc_channels_override.h ****     _mav_put_uint16_t(buf, 26, chan13_raw);
 414:Modules/include/MAVLink/common/./mavlink_msg_rc_channels_override.h ****     _mav_put_uint16_t(buf, 28, chan14_raw);
 415:Modules/include/MAVLink/common/./mavlink_msg_rc_channels_override.h ****     _mav_put_uint16_t(buf, 30, chan15_raw);
 416:Modules/include/MAVLink/common/./mavlink_msg_rc_channels_override.h ****     _mav_put_uint16_t(buf, 32, chan16_raw);
 417:Modules/include/MAVLink/common/./mavlink_msg_rc_channels_override.h ****     _mav_put_uint16_t(buf, 34, chan17_raw);
 418:Modules/include/MAVLink/common/./mavlink_msg_rc_channels_override.h ****     _mav_put_uint16_t(buf, 36, chan18_raw);
 419:Modules/include/MAVLink/common/./mavlink_msg_rc_channels_override.h **** 
 420:Modules/include/MAVLink/common/./mavlink_msg_rc_channels_override.h ****     _mav_finalize_message_chan_send(chan, MAVLINK_MSG_ID_RC_CHANNELS_OVERRIDE, buf, MAVLINK_MSG_ID_
 421:Modules/include/MAVLink/common/./mavlink_msg_rc_channels_override.h **** #else
 422:Modules/include/MAVLink/common/./mavlink_msg_rc_channels_override.h ****     mavlink_rc_channels_override_t *packet = (mavlink_rc_channels_override_t *)msgbuf;
 423:Modules/include/MAVLink/common/./mavlink_msg_rc_channels_override.h ****     packet->chan1_raw = chan1_raw;
 424:Modules/include/MAVLink/common/./mavlink_msg_rc_channels_override.h ****     packet->chan2_raw = chan2_raw;
 425:Modules/include/MAVLink/common/./mavlink_msg_rc_channels_override.h ****     packet->chan3_raw = chan3_raw;
 426:Modules/include/MAVLink/common/./mavlink_msg_rc_channels_override.h ****     packet->chan4_raw = chan4_raw;
 427:Modules/include/MAVLink/common/./mavlink_msg_rc_channels_override.h ****     packet->chan5_raw = chan5_raw;
 428:Modules/include/MAVLink/common/./mavlink_msg_rc_channels_override.h ****     packet->chan6_raw = chan6_raw;
 429:Modules/include/MAVLink/common/./mavlink_msg_rc_channels_override.h ****     packet->chan7_raw = chan7_raw;
 430:Modules/include/MAVLink/common/./mavlink_msg_rc_channels_override.h ****     packet->chan8_raw = chan8_raw;
 431:Modules/include/MAVLink/common/./mavlink_msg_rc_channels_override.h ****     packet->target_system = target_system;
 432:Modules/include/MAVLink/common/./mavlink_msg_rc_channels_override.h ****     packet->target_component = target_component;
 433:Modules/include/MAVLink/common/./mavlink_msg_rc_channels_override.h ****     packet->chan9_raw = chan9_raw;
 434:Modules/include/MAVLink/common/./mavlink_msg_rc_channels_override.h ****     packet->chan10_raw = chan10_raw;
 435:Modules/include/MAVLink/common/./mavlink_msg_rc_channels_override.h ****     packet->chan11_raw = chan11_raw;
 436:Modules/include/MAVLink/common/./mavlink_msg_rc_channels_override.h ****     packet->chan12_raw = chan12_raw;
 437:Modules/include/MAVLink/common/./mavlink_msg_rc_channels_override.h ****     packet->chan13_raw = chan13_raw;
 438:Modules/include/MAVLink/common/./mavlink_msg_rc_channels_override.h ****     packet->chan14_raw = chan14_raw;
 439:Modules/include/MAVLink/common/./mavlink_msg_rc_channels_override.h ****     packet->chan15_raw = chan15_raw;
 440:Modules/include/MAVLink/common/./mavlink_msg_rc_channels_override.h ****     packet->chan16_raw = chan16_raw;
 441:Modules/include/MAVLink/common/./mavlink_msg_rc_channels_override.h ****     packet->chan17_raw = chan17_raw;
 442:Modules/include/MAVLink/common/./mavlink_msg_rc_channels_override.h ****     packet->chan18_raw = chan18_raw;
 443:Modules/include/MAVLink/common/./mavlink_msg_rc_channels_override.h **** 
 444:Modules/include/MAVLink/common/./mavlink_msg_rc_channels_override.h ****     _mav_finalize_message_chan_send(chan, MAVLINK_MSG_ID_RC_CHANNELS_OVERRIDE, (const char *)packet
 445:Modules/include/MAVLink/common/./mavlink_msg_rc_channels_override.h **** #endif
 446:Modules/include/MAVLink/common/./mavlink_msg_rc_channels_override.h **** }
 447:Modules/include/MAVLink/common/./mavlink_msg_rc_channels_override.h **** #endif
 448:Modules/include/MAVLink/common/./mavlink_msg_rc_channels_override.h **** 
 449:Modules/include/MAVLink/common/./mavlink_msg_rc_channels_override.h **** #endif
 450:Modules/include/MAVLink/common/./mavlink_msg_rc_channels_override.h **** 
 451:Modules/include/MAVLink/common/./mavlink_msg_rc_channels_override.h **** // MESSAGE RC_CHANNELS_OVERRIDE UNPACKING
 452:Modules/include/MAVLink/common/./mavlink_msg_rc_channels_override.h **** 
 453:Modules/include/MAVLink/common/./mavlink_msg_rc_channels_override.h **** 
 454:Modules/include/MAVLink/common/./mavlink_msg_rc_channels_override.h **** /**
 455:Modules/include/MAVLink/common/./mavlink_msg_rc_channels_override.h ****  * @brief Get field target_system from rc_channels_override message
 456:Modules/include/MAVLink/common/./mavlink_msg_rc_channels_override.h ****  *
 457:Modules/include/MAVLink/common/./mavlink_msg_rc_channels_override.h ****  * @return  System ID
 458:Modules/include/MAVLink/common/./mavlink_msg_rc_channels_override.h ****  */
 459:Modules/include/MAVLink/common/./mavlink_msg_rc_channels_override.h **** static inline uint8_t mavlink_msg_rc_channels_override_get_target_system(const mavlink_message_t* m
 460:Modules/include/MAVLink/common/./mavlink_msg_rc_channels_override.h **** {
 461:Modules/include/MAVLink/common/./mavlink_msg_rc_channels_override.h ****     return _MAV_RETURN_uint8_t(msg,  16);
 462:Modules/include/MAVLink/common/./mavlink_msg_rc_channels_override.h **** }
 463:Modules/include/MAVLink/common/./mavlink_msg_rc_channels_override.h **** 
 464:Modules/include/MAVLink/common/./mavlink_msg_rc_channels_override.h **** /**
 465:Modules/include/MAVLink/common/./mavlink_msg_rc_channels_override.h ****  * @brief Get field target_component from rc_channels_override message
 466:Modules/include/MAVLink/common/./mavlink_msg_rc_channels_override.h ****  *
ARM GAS  C:\Users\luoha\AppData\Local\Temp\ccarQJQt.s 			page 13


 467:Modules/include/MAVLink/common/./mavlink_msg_rc_channels_override.h ****  * @return  Component ID
 468:Modules/include/MAVLink/common/./mavlink_msg_rc_channels_override.h ****  */
 469:Modules/include/MAVLink/common/./mavlink_msg_rc_channels_override.h **** static inline uint8_t mavlink_msg_rc_channels_override_get_target_component(const mavlink_message_t
 470:Modules/include/MAVLink/common/./mavlink_msg_rc_channels_override.h **** {
 471:Modules/include/MAVLink/common/./mavlink_msg_rc_channels_override.h ****     return _MAV_RETURN_uint8_t(msg,  17);
 472:Modules/include/MAVLink/common/./mavlink_msg_rc_channels_override.h **** }
 473:Modules/include/MAVLink/common/./mavlink_msg_rc_channels_override.h **** 
 474:Modules/include/MAVLink/common/./mavlink_msg_rc_channels_override.h **** /**
 475:Modules/include/MAVLink/common/./mavlink_msg_rc_channels_override.h ****  * @brief Get field chan1_raw from rc_channels_override message
 476:Modules/include/MAVLink/common/./mavlink_msg_rc_channels_override.h ****  *
 477:Modules/include/MAVLink/common/./mavlink_msg_rc_channels_override.h ****  * @return [us] RC channel 1 value. A value of UINT16_MAX means to ignore this field.
 478:Modules/include/MAVLink/common/./mavlink_msg_rc_channels_override.h ****  */
 479:Modules/include/MAVLink/common/./mavlink_msg_rc_channels_override.h **** static inline uint16_t mavlink_msg_rc_channels_override_get_chan1_raw(const mavlink_message_t* msg)
 480:Modules/include/MAVLink/common/./mavlink_msg_rc_channels_override.h **** {
 481:Modules/include/MAVLink/common/./mavlink_msg_rc_channels_override.h ****     return _MAV_RETURN_uint16_t(msg,  0);
 482:Modules/include/MAVLink/common/./mavlink_msg_rc_channels_override.h **** }
 483:Modules/include/MAVLink/common/./mavlink_msg_rc_channels_override.h **** 
 484:Modules/include/MAVLink/common/./mavlink_msg_rc_channels_override.h **** /**
 485:Modules/include/MAVLink/common/./mavlink_msg_rc_channels_override.h ****  * @brief Get field chan2_raw from rc_channels_override message
 486:Modules/include/MAVLink/common/./mavlink_msg_rc_channels_override.h ****  *
 487:Modules/include/MAVLink/common/./mavlink_msg_rc_channels_override.h ****  * @return [us] RC channel 2 value. A value of UINT16_MAX means to ignore this field.
 488:Modules/include/MAVLink/common/./mavlink_msg_rc_channels_override.h ****  */
 489:Modules/include/MAVLink/common/./mavlink_msg_rc_channels_override.h **** static inline uint16_t mavlink_msg_rc_channels_override_get_chan2_raw(const mavlink_message_t* msg)
 490:Modules/include/MAVLink/common/./mavlink_msg_rc_channels_override.h **** {
 491:Modules/include/MAVLink/common/./mavlink_msg_rc_channels_override.h ****     return _MAV_RETURN_uint16_t(msg,  2);
 492:Modules/include/MAVLink/common/./mavlink_msg_rc_channels_override.h **** }
 493:Modules/include/MAVLink/common/./mavlink_msg_rc_channels_override.h **** 
 494:Modules/include/MAVLink/common/./mavlink_msg_rc_channels_override.h **** /**
 495:Modules/include/MAVLink/common/./mavlink_msg_rc_channels_override.h ****  * @brief Get field chan3_raw from rc_channels_override message
 496:Modules/include/MAVLink/common/./mavlink_msg_rc_channels_override.h ****  *
 497:Modules/include/MAVLink/common/./mavlink_msg_rc_channels_override.h ****  * @return [us] RC channel 3 value. A value of UINT16_MAX means to ignore this field.
 498:Modules/include/MAVLink/common/./mavlink_msg_rc_channels_override.h ****  */
 499:Modules/include/MAVLink/common/./mavlink_msg_rc_channels_override.h **** static inline uint16_t mavlink_msg_rc_channels_override_get_chan3_raw(const mavlink_message_t* msg)
 500:Modules/include/MAVLink/common/./mavlink_msg_rc_channels_override.h **** {
 501:Modules/include/MAVLink/common/./mavlink_msg_rc_channels_override.h ****     return _MAV_RETURN_uint16_t(msg,  4);
 502:Modules/include/MAVLink/common/./mavlink_msg_rc_channels_override.h **** }
 503:Modules/include/MAVLink/common/./mavlink_msg_rc_channels_override.h **** 
 504:Modules/include/MAVLink/common/./mavlink_msg_rc_channels_override.h **** /**
 505:Modules/include/MAVLink/common/./mavlink_msg_rc_channels_override.h ****  * @brief Get field chan4_raw from rc_channels_override message
 506:Modules/include/MAVLink/common/./mavlink_msg_rc_channels_override.h ****  *
 507:Modules/include/MAVLink/common/./mavlink_msg_rc_channels_override.h ****  * @return [us] RC channel 4 value. A value of UINT16_MAX means to ignore this field.
 508:Modules/include/MAVLink/common/./mavlink_msg_rc_channels_override.h ****  */
 509:Modules/include/MAVLink/common/./mavlink_msg_rc_channels_override.h **** static inline uint16_t mavlink_msg_rc_channels_override_get_chan4_raw(const mavlink_message_t* msg)
 510:Modules/include/MAVLink/common/./mavlink_msg_rc_channels_override.h **** {
 511:Modules/include/MAVLink/common/./mavlink_msg_rc_channels_override.h ****     return _MAV_RETURN_uint16_t(msg,  6);
 512:Modules/include/MAVLink/common/./mavlink_msg_rc_channels_override.h **** }
 513:Modules/include/MAVLink/common/./mavlink_msg_rc_channels_override.h **** 
 514:Modules/include/MAVLink/common/./mavlink_msg_rc_channels_override.h **** /**
 515:Modules/include/MAVLink/common/./mavlink_msg_rc_channels_override.h ****  * @brief Get field chan5_raw from rc_channels_override message
 516:Modules/include/MAVLink/common/./mavlink_msg_rc_channels_override.h ****  *
 517:Modules/include/MAVLink/common/./mavlink_msg_rc_channels_override.h ****  * @return [us] RC channel 5 value. A value of UINT16_MAX means to ignore this field.
 518:Modules/include/MAVLink/common/./mavlink_msg_rc_channels_override.h ****  */
 519:Modules/include/MAVLink/common/./mavlink_msg_rc_channels_override.h **** static inline uint16_t mavlink_msg_rc_channels_override_get_chan5_raw(const mavlink_message_t* msg)
 520:Modules/include/MAVLink/common/./mavlink_msg_rc_channels_override.h **** {
 521:Modules/include/MAVLink/common/./mavlink_msg_rc_channels_override.h ****     return _MAV_RETURN_uint16_t(msg,  8);
 522:Modules/include/MAVLink/common/./mavlink_msg_rc_channels_override.h **** }
 523:Modules/include/MAVLink/common/./mavlink_msg_rc_channels_override.h **** 
ARM GAS  C:\Users\luoha\AppData\Local\Temp\ccarQJQt.s 			page 14


 524:Modules/include/MAVLink/common/./mavlink_msg_rc_channels_override.h **** /**
 525:Modules/include/MAVLink/common/./mavlink_msg_rc_channels_override.h ****  * @brief Get field chan6_raw from rc_channels_override message
 526:Modules/include/MAVLink/common/./mavlink_msg_rc_channels_override.h ****  *
 527:Modules/include/MAVLink/common/./mavlink_msg_rc_channels_override.h ****  * @return [us] RC channel 6 value. A value of UINT16_MAX means to ignore this field.
 528:Modules/include/MAVLink/common/./mavlink_msg_rc_channels_override.h ****  */
 529:Modules/include/MAVLink/common/./mavlink_msg_rc_channels_override.h **** static inline uint16_t mavlink_msg_rc_channels_override_get_chan6_raw(const mavlink_message_t* msg)
 530:Modules/include/MAVLink/common/./mavlink_msg_rc_channels_override.h **** {
 531:Modules/include/MAVLink/common/./mavlink_msg_rc_channels_override.h ****     return _MAV_RETURN_uint16_t(msg,  10);
 532:Modules/include/MAVLink/common/./mavlink_msg_rc_channels_override.h **** }
 533:Modules/include/MAVLink/common/./mavlink_msg_rc_channels_override.h **** 
 534:Modules/include/MAVLink/common/./mavlink_msg_rc_channels_override.h **** /**
 535:Modules/include/MAVLink/common/./mavlink_msg_rc_channels_override.h ****  * @brief Get field chan7_raw from rc_channels_override message
 536:Modules/include/MAVLink/common/./mavlink_msg_rc_channels_override.h ****  *
 537:Modules/include/MAVLink/common/./mavlink_msg_rc_channels_override.h ****  * @return [us] RC channel 7 value. A value of UINT16_MAX means to ignore this field.
 538:Modules/include/MAVLink/common/./mavlink_msg_rc_channels_override.h ****  */
 539:Modules/include/MAVLink/common/./mavlink_msg_rc_channels_override.h **** static inline uint16_t mavlink_msg_rc_channels_override_get_chan7_raw(const mavlink_message_t* msg)
 540:Modules/include/MAVLink/common/./mavlink_msg_rc_channels_override.h **** {
 541:Modules/include/MAVLink/common/./mavlink_msg_rc_channels_override.h ****     return _MAV_RETURN_uint16_t(msg,  12);
 542:Modules/include/MAVLink/common/./mavlink_msg_rc_channels_override.h **** }
 543:Modules/include/MAVLink/common/./mavlink_msg_rc_channels_override.h **** 
 544:Modules/include/MAVLink/common/./mavlink_msg_rc_channels_override.h **** /**
 545:Modules/include/MAVLink/common/./mavlink_msg_rc_channels_override.h ****  * @brief Get field chan8_raw from rc_channels_override message
 546:Modules/include/MAVLink/common/./mavlink_msg_rc_channels_override.h ****  *
 547:Modules/include/MAVLink/common/./mavlink_msg_rc_channels_override.h ****  * @return [us] RC channel 8 value. A value of UINT16_MAX means to ignore this field.
 548:Modules/include/MAVLink/common/./mavlink_msg_rc_channels_override.h ****  */
 549:Modules/include/MAVLink/common/./mavlink_msg_rc_channels_override.h **** static inline uint16_t mavlink_msg_rc_channels_override_get_chan8_raw(const mavlink_message_t* msg)
 550:Modules/include/MAVLink/common/./mavlink_msg_rc_channels_override.h **** {
 551:Modules/include/MAVLink/common/./mavlink_msg_rc_channels_override.h ****     return _MAV_RETURN_uint16_t(msg,  14);
 552:Modules/include/MAVLink/common/./mavlink_msg_rc_channels_override.h **** }
 553:Modules/include/MAVLink/common/./mavlink_msg_rc_channels_override.h **** 
 554:Modules/include/MAVLink/common/./mavlink_msg_rc_channels_override.h **** /**
 555:Modules/include/MAVLink/common/./mavlink_msg_rc_channels_override.h ****  * @brief Get field chan9_raw from rc_channels_override message
 556:Modules/include/MAVLink/common/./mavlink_msg_rc_channels_override.h ****  *
 557:Modules/include/MAVLink/common/./mavlink_msg_rc_channels_override.h ****  * @return [us] RC channel 9 value. A value of 0 or UINT16_MAX means to ignore this field.
 558:Modules/include/MAVLink/common/./mavlink_msg_rc_channels_override.h ****  */
 559:Modules/include/MAVLink/common/./mavlink_msg_rc_channels_override.h **** static inline uint16_t mavlink_msg_rc_channels_override_get_chan9_raw(const mavlink_message_t* msg)
 560:Modules/include/MAVLink/common/./mavlink_msg_rc_channels_override.h **** {
 561:Modules/include/MAVLink/common/./mavlink_msg_rc_channels_override.h ****     return _MAV_RETURN_uint16_t(msg,  18);
 562:Modules/include/MAVLink/common/./mavlink_msg_rc_channels_override.h **** }
 563:Modules/include/MAVLink/common/./mavlink_msg_rc_channels_override.h **** 
 564:Modules/include/MAVLink/common/./mavlink_msg_rc_channels_override.h **** /**
 565:Modules/include/MAVLink/common/./mavlink_msg_rc_channels_override.h ****  * @brief Get field chan10_raw from rc_channels_override message
 566:Modules/include/MAVLink/common/./mavlink_msg_rc_channels_override.h ****  *
 567:Modules/include/MAVLink/common/./mavlink_msg_rc_channels_override.h ****  * @return [us] RC channel 10 value. A value of 0 or UINT16_MAX means to ignore this field.
 568:Modules/include/MAVLink/common/./mavlink_msg_rc_channels_override.h ****  */
 569:Modules/include/MAVLink/common/./mavlink_msg_rc_channels_override.h **** static inline uint16_t mavlink_msg_rc_channels_override_get_chan10_raw(const mavlink_message_t* msg
 570:Modules/include/MAVLink/common/./mavlink_msg_rc_channels_override.h **** {
 571:Modules/include/MAVLink/common/./mavlink_msg_rc_channels_override.h ****     return _MAV_RETURN_uint16_t(msg,  20);
 572:Modules/include/MAVLink/common/./mavlink_msg_rc_channels_override.h **** }
 573:Modules/include/MAVLink/common/./mavlink_msg_rc_channels_override.h **** 
 574:Modules/include/MAVLink/common/./mavlink_msg_rc_channels_override.h **** /**
 575:Modules/include/MAVLink/common/./mavlink_msg_rc_channels_override.h ****  * @brief Get field chan11_raw from rc_channels_override message
 576:Modules/include/MAVLink/common/./mavlink_msg_rc_channels_override.h ****  *
 577:Modules/include/MAVLink/common/./mavlink_msg_rc_channels_override.h ****  * @return [us] RC channel 11 value. A value of 0 or UINT16_MAX means to ignore this field.
 578:Modules/include/MAVLink/common/./mavlink_msg_rc_channels_override.h ****  */
 579:Modules/include/MAVLink/common/./mavlink_msg_rc_channels_override.h **** static inline uint16_t mavlink_msg_rc_channels_override_get_chan11_raw(const mavlink_message_t* msg
 580:Modules/include/MAVLink/common/./mavlink_msg_rc_channels_override.h **** {
ARM GAS  C:\Users\luoha\AppData\Local\Temp\ccarQJQt.s 			page 15


 581:Modules/include/MAVLink/common/./mavlink_msg_rc_channels_override.h ****     return _MAV_RETURN_uint16_t(msg,  22);
 582:Modules/include/MAVLink/common/./mavlink_msg_rc_channels_override.h **** }
 583:Modules/include/MAVLink/common/./mavlink_msg_rc_channels_override.h **** 
 584:Modules/include/MAVLink/common/./mavlink_msg_rc_channels_override.h **** /**
 585:Modules/include/MAVLink/common/./mavlink_msg_rc_channels_override.h ****  * @brief Get field chan12_raw from rc_channels_override message
 586:Modules/include/MAVLink/common/./mavlink_msg_rc_channels_override.h ****  *
 587:Modules/include/MAVLink/common/./mavlink_msg_rc_channels_override.h ****  * @return [us] RC channel 12 value. A value of 0 or UINT16_MAX means to ignore this field.
 588:Modules/include/MAVLink/common/./mavlink_msg_rc_channels_override.h ****  */
 589:Modules/include/MAVLink/common/./mavlink_msg_rc_channels_override.h **** static inline uint16_t mavlink_msg_rc_channels_override_get_chan12_raw(const mavlink_message_t* msg
 590:Modules/include/MAVLink/common/./mavlink_msg_rc_channels_override.h **** {
 591:Modules/include/MAVLink/common/./mavlink_msg_rc_channels_override.h ****     return _MAV_RETURN_uint16_t(msg,  24);
 592:Modules/include/MAVLink/common/./mavlink_msg_rc_channels_override.h **** }
 593:Modules/include/MAVLink/common/./mavlink_msg_rc_channels_override.h **** 
 594:Modules/include/MAVLink/common/./mavlink_msg_rc_channels_override.h **** /**
 595:Modules/include/MAVLink/common/./mavlink_msg_rc_channels_override.h ****  * @brief Get field chan13_raw from rc_channels_override message
 596:Modules/include/MAVLink/common/./mavlink_msg_rc_channels_override.h ****  *
 597:Modules/include/MAVLink/common/./mavlink_msg_rc_channels_override.h ****  * @return [us] RC channel 13 value. A value of 0 or UINT16_MAX means to ignore this field.
 598:Modules/include/MAVLink/common/./mavlink_msg_rc_channels_override.h ****  */
 599:Modules/include/MAVLink/common/./mavlink_msg_rc_channels_override.h **** static inline uint16_t mavlink_msg_rc_channels_override_get_chan13_raw(const mavlink_message_t* msg
 600:Modules/include/MAVLink/common/./mavlink_msg_rc_channels_override.h **** {
 601:Modules/include/MAVLink/common/./mavlink_msg_rc_channels_override.h ****     return _MAV_RETURN_uint16_t(msg,  26);
 602:Modules/include/MAVLink/common/./mavlink_msg_rc_channels_override.h **** }
 603:Modules/include/MAVLink/common/./mavlink_msg_rc_channels_override.h **** 
 604:Modules/include/MAVLink/common/./mavlink_msg_rc_channels_override.h **** /**
 605:Modules/include/MAVLink/common/./mavlink_msg_rc_channels_override.h ****  * @brief Get field chan14_raw from rc_channels_override message
 606:Modules/include/MAVLink/common/./mavlink_msg_rc_channels_override.h ****  *
 607:Modules/include/MAVLink/common/./mavlink_msg_rc_channels_override.h ****  * @return [us] RC channel 14 value. A value of 0 or UINT16_MAX means to ignore this field.
 608:Modules/include/MAVLink/common/./mavlink_msg_rc_channels_override.h ****  */
 609:Modules/include/MAVLink/common/./mavlink_msg_rc_channels_override.h **** static inline uint16_t mavlink_msg_rc_channels_override_get_chan14_raw(const mavlink_message_t* msg
 610:Modules/include/MAVLink/common/./mavlink_msg_rc_channels_override.h **** {
 611:Modules/include/MAVLink/common/./mavlink_msg_rc_channels_override.h ****     return _MAV_RETURN_uint16_t(msg,  28);
 612:Modules/include/MAVLink/common/./mavlink_msg_rc_channels_override.h **** }
 613:Modules/include/MAVLink/common/./mavlink_msg_rc_channels_override.h **** 
 614:Modules/include/MAVLink/common/./mavlink_msg_rc_channels_override.h **** /**
 615:Modules/include/MAVLink/common/./mavlink_msg_rc_channels_override.h ****  * @brief Get field chan15_raw from rc_channels_override message
 616:Modules/include/MAVLink/common/./mavlink_msg_rc_channels_override.h ****  *
 617:Modules/include/MAVLink/common/./mavlink_msg_rc_channels_override.h ****  * @return [us] RC channel 15 value. A value of 0 or UINT16_MAX means to ignore this field.
 618:Modules/include/MAVLink/common/./mavlink_msg_rc_channels_override.h ****  */
 619:Modules/include/MAVLink/common/./mavlink_msg_rc_channels_override.h **** static inline uint16_t mavlink_msg_rc_channels_override_get_chan15_raw(const mavlink_message_t* msg
 620:Modules/include/MAVLink/common/./mavlink_msg_rc_channels_override.h **** {
 621:Modules/include/MAVLink/common/./mavlink_msg_rc_channels_override.h ****     return _MAV_RETURN_uint16_t(msg,  30);
 622:Modules/include/MAVLink/common/./mavlink_msg_rc_channels_override.h **** }
 623:Modules/include/MAVLink/common/./mavlink_msg_rc_channels_override.h **** 
 624:Modules/include/MAVLink/common/./mavlink_msg_rc_channels_override.h **** /**
 625:Modules/include/MAVLink/common/./mavlink_msg_rc_channels_override.h ****  * @brief Get field chan16_raw from rc_channels_override message
 626:Modules/include/MAVLink/common/./mavlink_msg_rc_channels_override.h ****  *
 627:Modules/include/MAVLink/common/./mavlink_msg_rc_channels_override.h ****  * @return [us] RC channel 16 value. A value of 0 or UINT16_MAX means to ignore this field.
 628:Modules/include/MAVLink/common/./mavlink_msg_rc_channels_override.h ****  */
 629:Modules/include/MAVLink/common/./mavlink_msg_rc_channels_override.h **** static inline uint16_t mavlink_msg_rc_channels_override_get_chan16_raw(const mavlink_message_t* msg
 630:Modules/include/MAVLink/common/./mavlink_msg_rc_channels_override.h **** {
 631:Modules/include/MAVLink/common/./mavlink_msg_rc_channels_override.h ****     return _MAV_RETURN_uint16_t(msg,  32);
 632:Modules/include/MAVLink/common/./mavlink_msg_rc_channels_override.h **** }
 633:Modules/include/MAVLink/common/./mavlink_msg_rc_channels_override.h **** 
 634:Modules/include/MAVLink/common/./mavlink_msg_rc_channels_override.h **** /**
 635:Modules/include/MAVLink/common/./mavlink_msg_rc_channels_override.h ****  * @brief Get field chan17_raw from rc_channels_override message
 636:Modules/include/MAVLink/common/./mavlink_msg_rc_channels_override.h ****  *
 637:Modules/include/MAVLink/common/./mavlink_msg_rc_channels_override.h ****  * @return [us] RC channel 17 value. A value of 0 or UINT16_MAX means to ignore this field.
ARM GAS  C:\Users\luoha\AppData\Local\Temp\ccarQJQt.s 			page 16


 638:Modules/include/MAVLink/common/./mavlink_msg_rc_channels_override.h ****  */
 639:Modules/include/MAVLink/common/./mavlink_msg_rc_channels_override.h **** static inline uint16_t mavlink_msg_rc_channels_override_get_chan17_raw(const mavlink_message_t* msg
 640:Modules/include/MAVLink/common/./mavlink_msg_rc_channels_override.h **** {
 641:Modules/include/MAVLink/common/./mavlink_msg_rc_channels_override.h ****     return _MAV_RETURN_uint16_t(msg,  34);
 642:Modules/include/MAVLink/common/./mavlink_msg_rc_channels_override.h **** }
 643:Modules/include/MAVLink/common/./mavlink_msg_rc_channels_override.h **** 
 644:Modules/include/MAVLink/common/./mavlink_msg_rc_channels_override.h **** /**
 645:Modules/include/MAVLink/common/./mavlink_msg_rc_channels_override.h ****  * @brief Get field chan18_raw from rc_channels_override message
 646:Modules/include/MAVLink/common/./mavlink_msg_rc_channels_override.h ****  *
 647:Modules/include/MAVLink/common/./mavlink_msg_rc_channels_override.h ****  * @return [us] RC channel 18 value. A value of 0 or UINT16_MAX means to ignore this field.
 648:Modules/include/MAVLink/common/./mavlink_msg_rc_channels_override.h ****  */
 649:Modules/include/MAVLink/common/./mavlink_msg_rc_channels_override.h **** static inline uint16_t mavlink_msg_rc_channels_override_get_chan18_raw(const mavlink_message_t* msg
 650:Modules/include/MAVLink/common/./mavlink_msg_rc_channels_override.h **** {
 651:Modules/include/MAVLink/common/./mavlink_msg_rc_channels_override.h ****     return _MAV_RETURN_uint16_t(msg,  36);
 652:Modules/include/MAVLink/common/./mavlink_msg_rc_channels_override.h **** }
 653:Modules/include/MAVLink/common/./mavlink_msg_rc_channels_override.h **** 
 654:Modules/include/MAVLink/common/./mavlink_msg_rc_channels_override.h **** /**
 655:Modules/include/MAVLink/common/./mavlink_msg_rc_channels_override.h ****  * @brief Decode a rc_channels_override message into a struct
 656:Modules/include/MAVLink/common/./mavlink_msg_rc_channels_override.h ****  *
 657:Modules/include/MAVLink/common/./mavlink_msg_rc_channels_override.h ****  * @param msg The message to decode
 658:Modules/include/MAVLink/common/./mavlink_msg_rc_channels_override.h ****  * @param rc_channels_override C-struct to decode the message contents into
 659:Modules/include/MAVLink/common/./mavlink_msg_rc_channels_override.h ****  */
 660:Modules/include/MAVLink/common/./mavlink_msg_rc_channels_override.h **** static inline void mavlink_msg_rc_channels_override_decode(const mavlink_message_t* msg, mavlink_rc
 130              		.loc 2 660 20 view .LVU17
 131              	.LBB90:
 661:Modules/include/MAVLink/common/./mavlink_msg_rc_channels_override.h **** {
 662:Modules/include/MAVLink/common/./mavlink_msg_rc_channels_override.h **** #if MAVLINK_NEED_BYTE_SWAP || !MAVLINK_ALIGNED_FIELDS
 663:Modules/include/MAVLink/common/./mavlink_msg_rc_channels_override.h ****     rc_channels_override->chan1_raw = mavlink_msg_rc_channels_override_get_chan1_raw(msg);
 664:Modules/include/MAVLink/common/./mavlink_msg_rc_channels_override.h ****     rc_channels_override->chan2_raw = mavlink_msg_rc_channels_override_get_chan2_raw(msg);
 665:Modules/include/MAVLink/common/./mavlink_msg_rc_channels_override.h ****     rc_channels_override->chan3_raw = mavlink_msg_rc_channels_override_get_chan3_raw(msg);
 666:Modules/include/MAVLink/common/./mavlink_msg_rc_channels_override.h ****     rc_channels_override->chan4_raw = mavlink_msg_rc_channels_override_get_chan4_raw(msg);
 667:Modules/include/MAVLink/common/./mavlink_msg_rc_channels_override.h ****     rc_channels_override->chan5_raw = mavlink_msg_rc_channels_override_get_chan5_raw(msg);
 668:Modules/include/MAVLink/common/./mavlink_msg_rc_channels_override.h ****     rc_channels_override->chan6_raw = mavlink_msg_rc_channels_override_get_chan6_raw(msg);
 669:Modules/include/MAVLink/common/./mavlink_msg_rc_channels_override.h ****     rc_channels_override->chan7_raw = mavlink_msg_rc_channels_override_get_chan7_raw(msg);
 670:Modules/include/MAVLink/common/./mavlink_msg_rc_channels_override.h ****     rc_channels_override->chan8_raw = mavlink_msg_rc_channels_override_get_chan8_raw(msg);
 671:Modules/include/MAVLink/common/./mavlink_msg_rc_channels_override.h ****     rc_channels_override->target_system = mavlink_msg_rc_channels_override_get_target_system(msg);
 672:Modules/include/MAVLink/common/./mavlink_msg_rc_channels_override.h ****     rc_channels_override->target_component = mavlink_msg_rc_channels_override_get_target_component(
 673:Modules/include/MAVLink/common/./mavlink_msg_rc_channels_override.h ****     rc_channels_override->chan9_raw = mavlink_msg_rc_channels_override_get_chan9_raw(msg);
 674:Modules/include/MAVLink/common/./mavlink_msg_rc_channels_override.h ****     rc_channels_override->chan10_raw = mavlink_msg_rc_channels_override_get_chan10_raw(msg);
 675:Modules/include/MAVLink/common/./mavlink_msg_rc_channels_override.h ****     rc_channels_override->chan11_raw = mavlink_msg_rc_channels_override_get_chan11_raw(msg);
 676:Modules/include/MAVLink/common/./mavlink_msg_rc_channels_override.h ****     rc_channels_override->chan12_raw = mavlink_msg_rc_channels_override_get_chan12_raw(msg);
 677:Modules/include/MAVLink/common/./mavlink_msg_rc_channels_override.h ****     rc_channels_override->chan13_raw = mavlink_msg_rc_channels_override_get_chan13_raw(msg);
 678:Modules/include/MAVLink/common/./mavlink_msg_rc_channels_override.h ****     rc_channels_override->chan14_raw = mavlink_msg_rc_channels_override_get_chan14_raw(msg);
 679:Modules/include/MAVLink/common/./mavlink_msg_rc_channels_override.h ****     rc_channels_override->chan15_raw = mavlink_msg_rc_channels_override_get_chan15_raw(msg);
 680:Modules/include/MAVLink/common/./mavlink_msg_rc_channels_override.h ****     rc_channels_override->chan16_raw = mavlink_msg_rc_channels_override_get_chan16_raw(msg);
 681:Modules/include/MAVLink/common/./mavlink_msg_rc_channels_override.h ****     rc_channels_override->chan17_raw = mavlink_msg_rc_channels_override_get_chan17_raw(msg);
 682:Modules/include/MAVLink/common/./mavlink_msg_rc_channels_override.h ****     rc_channels_override->chan18_raw = mavlink_msg_rc_channels_override_get_chan18_raw(msg);
 683:Modules/include/MAVLink/common/./mavlink_msg_rc_channels_override.h **** #else
 684:Modules/include/MAVLink/common/./mavlink_msg_rc_channels_override.h ****         uint8_t len = msg->len < MAVLINK_MSG_ID_RC_CHANNELS_OVERRIDE_LEN? msg->len : MAVLINK_MSG_ID
 132              		.loc 2 684 9 view .LVU18
 133              		.loc 2 684 26 is_stmt 0 view .LVU19
 134 0058 E578     		ldrb	r5, [r4, #3]	@ zero_extendqisi2
 135              		.loc 2 684 17 view .LVU20
 136 005a 262D     		cmp	r5, #38
 137 005c 28BF     		it	cs
 138 005e 2625     		movcs	r5, #38
 139              	.LVL9:
ARM GAS  C:\Users\luoha\AppData\Local\Temp\ccarQJQt.s 			page 17


 685:Modules/include/MAVLink/common/./mavlink_msg_rc_channels_override.h ****         memset(rc_channels_override, 0, MAVLINK_MSG_ID_RC_CHANNELS_OVERRIDE_LEN);
 140              		.loc 2 685 9 is_stmt 1 view .LVU21
 141 0060 2622     		movs	r2, #38
 142 0062 0021     		movs	r1, #0
 143 0064 6846     		mov	r0, sp
 144 0066 FFF7FEFF 		bl	memset
 145              	.LVL10:
 686:Modules/include/MAVLink/common/./mavlink_msg_rc_channels_override.h ****     memcpy(rc_channels_override, _MAV_PAYLOAD(msg), len);
 146              		.loc 2 686 5 view .LVU22
 147 006a 2A46     		mov	r2, r5
 148 006c 04F10C01 		add	r1, r4, #12
 149 0070 6846     		mov	r0, sp
 150 0072 FFF7FEFF 		bl	memcpy
 151              	.LVL11:
 152              		.loc 2 686 5 is_stmt 0 view .LVU23
 153              	.LBE90:
 154              	.LBE89:
  54:Modules/src/mavlink_task.c ****             printf("===============\r\n");
 155              		.loc 1 54 13 is_stmt 1 view .LVU24
 156 0076 3046     		mov	r0, r6
 157 0078 FFF7FEFF 		bl	puts
 158              	.LVL12:
  55:Modules/src/mavlink_task.c ****             fprintf("RC channel 1: %u\r\n", rc_channels_override.chan1_raw);
 159              		.loc 1 55 13 view .LVU25
 160 007c BDF80010 		ldrh	r1, [sp]
 161 0080 0C48     		ldr	r0, .L5+8
 162 0082 FFF7FEFF 		bl	fprintf
 163              	.LVL13:
  56:Modules/src/mavlink_task.c ****             fprintf("RC channel 2: %u\r\n", rc_channels_override.chan2_raw);
 164              		.loc 1 56 13 view .LVU26
 165 0086 BDF80210 		ldrh	r1, [sp, #2]
 166 008a 0B48     		ldr	r0, .L5+12
 167 008c FFF7FEFF 		bl	fprintf
 168              	.LVL14:
  57:Modules/src/mavlink_task.c ****             fprintf("RC channel 3: %u\r\n", rc_channels_override.chan3_raw);
 169              		.loc 1 57 13 view .LVU27
 170 0090 BDF80410 		ldrh	r1, [sp, #4]
 171 0094 0948     		ldr	r0, .L5+16
 172 0096 FFF7FEFF 		bl	fprintf
 173              	.LVL15:
  58:Modules/src/mavlink_task.c ****             fprintf("RC channel 4: %u\r\n", rc_channels_override.chan4_raw);
 174              		.loc 1 58 13 view .LVU28
 175 009a BDF80610 		ldrh	r1, [sp, #6]
 176 009e 0848     		ldr	r0, .L5+20
 177 00a0 FFF7FEFF 		bl	fprintf
 178              	.LVL16:
  59:Modules/src/mavlink_task.c ****             printf("===============\r\n");
 179              		.loc 1 59 13 view .LVU29
 180 00a4 3046     		mov	r0, r6
 181 00a6 FFF7FEFF 		bl	puts
 182              	.LVL17:
  61:Modules/src/mavlink_task.c ****             break;
 183              		.loc 1 61 13 view .LVU30
 184              	.LBE88:
 185              		.loc 1 67 1 is_stmt 0 view .LVU31
 186 00aa D3E7     		b	.L1
 187              	.L6:
ARM GAS  C:\Users\luoha\AppData\Local\Temp\ccarQJQt.s 			page 18


 188              		.align	2
 189              	.L5:
 190 00ac 00000000 		.word	.LC0
 191 00b0 14000000 		.word	.LC1
 192 00b4 1C000000 		.word	.LC2
 193 00b8 30000000 		.word	.LC3
 194 00bc 44000000 		.word	.LC4
 195 00c0 58000000 		.word	.LC5
 196              		.cfi_endproc
 197              	.LFE2738:
 199              		.section	.rodata.MavlinkParse.str1.4,"aMS",%progbits,1
 200              		.align	2
 201              	.LC6:
 202 0000 25640D0A 		.ascii	"%d\015\012\000"
 202      00
 203 0005 000000   		.align	2
 204              	.LC7:
 205 0008 0D00     		.ascii	"\015\000"
 206              		.section	.text.MavlinkParse,"ax",%progbits
 207              		.align	1
 208              		.syntax unified
 209              		.thumb
 210              		.thumb_func
 211              		.fpu fpv4-sp-d16
 213              	MavlinkParse:
 214              	.LVL18:
 215              	.LFB2737:
  26:Modules/src/mavlink_task.c **** void MavlinkParse(uint8_t *buffer, size_t len) {
 216              		.loc 1 26 48 is_stmt 1 view -0
 217              		.cfi_startproc
 218              		@ args = 0, pretend = 0, frame = 568
 219              		@ frame_needed = 0, uses_anonymous_args = 0
  26:Modules/src/mavlink_task.c **** void MavlinkParse(uint8_t *buffer, size_t len) {
 220              		.loc 1 26 48 is_stmt 0 view .LVU33
 221 0000 2DE9F04F 		push	{r4, r5, r6, r7, r8, r9, r10, fp, lr}
 222              	.LCFI4:
 223              		.cfi_def_cfa_offset 36
 224              		.cfi_offset 4, -36
 225              		.cfi_offset 5, -32
 226              		.cfi_offset 6, -28
 227              		.cfi_offset 7, -24
 228              		.cfi_offset 8, -20
 229              		.cfi_offset 9, -16
 230              		.cfi_offset 10, -12
 231              		.cfi_offset 11, -8
 232              		.cfi_offset 14, -4
 233 0004 ADF50F7D 		sub	sp, sp, #572
 234              	.LCFI5:
 235              		.cfi_def_cfa_offset 608
 236 0008 0290     		str	r0, [sp, #8]
 237 000a 0191     		str	r1, [sp, #4]
  29:Modules/src/mavlink_task.c ****     for (size_t i = 0; i < len; i++) {
 238              		.loc 1 29 5 is_stmt 1 view .LVU34
 239              	.LBB211:
  29:Modules/src/mavlink_task.c ****     for (size_t i = 0; i < len; i++) {
 240              		.loc 1 29 10 view .LVU35
 241              	.LVL19:
ARM GAS  C:\Users\luoha\AppData\Local\Temp\ccarQJQt.s 			page 19


  29:Modules/src/mavlink_task.c ****     for (size_t i = 0; i < len; i++) {
 242              		.loc 1 29 17 is_stmt 0 view .LVU36
 243 000c 0026     		movs	r6, #0
 244 000e B246     		mov	r10, r6
  29:Modules/src/mavlink_task.c ****     for (size_t i = 0; i < len; i++) {
 245              		.loc 1 29 5 view .LVU37
 246 0010 ADE0     		b	.L8
 247              	.LVL20:
 248              	.L24:
 249              	.LBB212:
 250              	.LBB213:
 251              	.LBB214:
 252              	.LBB215:
 253              	.LBB216:
 254              		.file 3 "Modules/include/MAVLink/common/../mavlink_helpers.h"
   1:Modules/include/MAVLink/common/../mavlink_helpers.h **** #pragma once
   2:Modules/include/MAVLink/common/../mavlink_helpers.h **** 
   3:Modules/include/MAVLink/common/../mavlink_helpers.h **** #include "string.h"
   4:Modules/include/MAVLink/common/../mavlink_helpers.h **** #include "checksum.h"
   5:Modules/include/MAVLink/common/../mavlink_helpers.h **** #include "mavlink_types.h"
   6:Modules/include/MAVLink/common/../mavlink_helpers.h **** #include "mavlink_conversions.h"
   7:Modules/include/MAVLink/common/../mavlink_helpers.h **** #include <stdio.h>
   8:Modules/include/MAVLink/common/../mavlink_helpers.h **** 
   9:Modules/include/MAVLink/common/../mavlink_helpers.h **** #ifndef MAVLINK_HELPER
  10:Modules/include/MAVLink/common/../mavlink_helpers.h **** #define MAVLINK_HELPER
  11:Modules/include/MAVLink/common/../mavlink_helpers.h **** #endif
  12:Modules/include/MAVLink/common/../mavlink_helpers.h **** 
  13:Modules/include/MAVLink/common/../mavlink_helpers.h **** #include "mavlink_sha256.h"
  14:Modules/include/MAVLink/common/../mavlink_helpers.h **** 
  15:Modules/include/MAVLink/common/../mavlink_helpers.h **** #ifdef MAVLINK_USE_CXX_NAMESPACE
  16:Modules/include/MAVLink/common/../mavlink_helpers.h **** namespace mavlink {
  17:Modules/include/MAVLink/common/../mavlink_helpers.h **** #endif
  18:Modules/include/MAVLink/common/../mavlink_helpers.h **** 
  19:Modules/include/MAVLink/common/../mavlink_helpers.h **** /*
  20:Modules/include/MAVLink/common/../mavlink_helpers.h ****  * Internal function to give access to the channel status for each channel
  21:Modules/include/MAVLink/common/../mavlink_helpers.h ****  */
  22:Modules/include/MAVLink/common/../mavlink_helpers.h **** #ifndef MAVLINK_GET_CHANNEL_STATUS
  23:Modules/include/MAVLink/common/../mavlink_helpers.h **** MAVLINK_HELPER mavlink_status_t* mavlink_get_channel_status(uint8_t chan)
  24:Modules/include/MAVLink/common/../mavlink_helpers.h **** {
  25:Modules/include/MAVLink/common/../mavlink_helpers.h **** #ifdef MAVLINK_EXTERNAL_RX_STATUS
  26:Modules/include/MAVLink/common/../mavlink_helpers.h **** 	// No m_mavlink_status array defined in function,
  27:Modules/include/MAVLink/common/../mavlink_helpers.h **** 	// has to be defined externally
  28:Modules/include/MAVLink/common/../mavlink_helpers.h **** #else
  29:Modules/include/MAVLink/common/../mavlink_helpers.h **** 	static mavlink_status_t m_mavlink_status[MAVLINK_COMM_NUM_BUFFERS];
  30:Modules/include/MAVLink/common/../mavlink_helpers.h **** #endif
  31:Modules/include/MAVLink/common/../mavlink_helpers.h **** 	return &m_mavlink_status[chan];
  32:Modules/include/MAVLink/common/../mavlink_helpers.h **** }
  33:Modules/include/MAVLink/common/../mavlink_helpers.h **** #endif
  34:Modules/include/MAVLink/common/../mavlink_helpers.h **** 
  35:Modules/include/MAVLink/common/../mavlink_helpers.h **** /*
  36:Modules/include/MAVLink/common/../mavlink_helpers.h ****  * Internal function to give access to the channel buffer for each channel
  37:Modules/include/MAVLink/common/../mavlink_helpers.h ****  */
  38:Modules/include/MAVLink/common/../mavlink_helpers.h **** #ifndef MAVLINK_GET_CHANNEL_BUFFER
  39:Modules/include/MAVLink/common/../mavlink_helpers.h **** MAVLINK_HELPER mavlink_message_t* mavlink_get_channel_buffer(uint8_t chan)
  40:Modules/include/MAVLink/common/../mavlink_helpers.h **** {
  41:Modules/include/MAVLink/common/../mavlink_helpers.h **** 	
  42:Modules/include/MAVLink/common/../mavlink_helpers.h **** #ifdef MAVLINK_EXTERNAL_RX_BUFFER
ARM GAS  C:\Users\luoha\AppData\Local\Temp\ccarQJQt.s 			page 20


  43:Modules/include/MAVLink/common/../mavlink_helpers.h **** 	// No m_mavlink_buffer array defined in function,
  44:Modules/include/MAVLink/common/../mavlink_helpers.h **** 	// has to be defined externally
  45:Modules/include/MAVLink/common/../mavlink_helpers.h **** #else
  46:Modules/include/MAVLink/common/../mavlink_helpers.h **** 	static mavlink_message_t m_mavlink_buffer[MAVLINK_COMM_NUM_BUFFERS];
  47:Modules/include/MAVLink/common/../mavlink_helpers.h **** #endif
  48:Modules/include/MAVLink/common/../mavlink_helpers.h **** 	return &m_mavlink_buffer[chan];
  49:Modules/include/MAVLink/common/../mavlink_helpers.h **** }
  50:Modules/include/MAVLink/common/../mavlink_helpers.h **** #endif // MAVLINK_GET_CHANNEL_BUFFER
  51:Modules/include/MAVLink/common/../mavlink_helpers.h **** 
  52:Modules/include/MAVLink/common/../mavlink_helpers.h **** /* Enable this option to check the length of each message.
  53:Modules/include/MAVLink/common/../mavlink_helpers.h ****     This allows invalid messages to be caught much sooner. Use if the transmission
  54:Modules/include/MAVLink/common/../mavlink_helpers.h ****     medium is prone to missing (or extra) characters (e.g. a radio that fades in
  55:Modules/include/MAVLink/common/../mavlink_helpers.h ****     and out). Only use if the channel will only contain messages types listed in
  56:Modules/include/MAVLink/common/../mavlink_helpers.h ****     the headers.
  57:Modules/include/MAVLink/common/../mavlink_helpers.h **** */
  58:Modules/include/MAVLink/common/../mavlink_helpers.h **** //#define MAVLINK_CHECK_MESSAGE_LENGTH
  59:Modules/include/MAVLink/common/../mavlink_helpers.h **** 
  60:Modules/include/MAVLink/common/../mavlink_helpers.h **** /**
  61:Modules/include/MAVLink/common/../mavlink_helpers.h ****  * @brief Reset the status of a channel.
  62:Modules/include/MAVLink/common/../mavlink_helpers.h ****  */
  63:Modules/include/MAVLink/common/../mavlink_helpers.h **** MAVLINK_HELPER void mavlink_reset_channel_status(uint8_t chan)
  64:Modules/include/MAVLink/common/../mavlink_helpers.h **** {
  65:Modules/include/MAVLink/common/../mavlink_helpers.h **** 	mavlink_status_t *status = mavlink_get_channel_status(chan);
  66:Modules/include/MAVLink/common/../mavlink_helpers.h **** 	status->parse_state = MAVLINK_PARSE_STATE_IDLE;
  67:Modules/include/MAVLink/common/../mavlink_helpers.h **** }
  68:Modules/include/MAVLink/common/../mavlink_helpers.h **** 
  69:Modules/include/MAVLink/common/../mavlink_helpers.h **** /**
  70:Modules/include/MAVLink/common/../mavlink_helpers.h ****  * @brief create a signature block for a packet
  71:Modules/include/MAVLink/common/../mavlink_helpers.h ****  */
  72:Modules/include/MAVLink/common/../mavlink_helpers.h **** MAVLINK_HELPER uint8_t mavlink_sign_packet(mavlink_signing_t *signing,
  73:Modules/include/MAVLink/common/../mavlink_helpers.h **** 					   uint8_t signature[MAVLINK_SIGNATURE_BLOCK_LEN],
  74:Modules/include/MAVLink/common/../mavlink_helpers.h **** 					   const uint8_t *header, uint8_t header_len,
  75:Modules/include/MAVLink/common/../mavlink_helpers.h **** 					   const uint8_t *packet, uint8_t packet_len,
  76:Modules/include/MAVLink/common/../mavlink_helpers.h **** 					   const uint8_t crc[2])
  77:Modules/include/MAVLink/common/../mavlink_helpers.h **** {
  78:Modules/include/MAVLink/common/../mavlink_helpers.h **** 	mavlink_sha256_ctx ctx;
  79:Modules/include/MAVLink/common/../mavlink_helpers.h **** 	union {
  80:Modules/include/MAVLink/common/../mavlink_helpers.h **** 	    uint64_t t64;
  81:Modules/include/MAVLink/common/../mavlink_helpers.h **** 	    uint8_t t8[8];
  82:Modules/include/MAVLink/common/../mavlink_helpers.h **** 	} tstamp;
  83:Modules/include/MAVLink/common/../mavlink_helpers.h **** 	if (signing == NULL || !(signing->flags & MAVLINK_SIGNING_FLAG_SIGN_OUTGOING)) {
  84:Modules/include/MAVLink/common/../mavlink_helpers.h **** 	    return 0;
  85:Modules/include/MAVLink/common/../mavlink_helpers.h **** 	}
  86:Modules/include/MAVLink/common/../mavlink_helpers.h **** 	signature[0] = signing->link_id;
  87:Modules/include/MAVLink/common/../mavlink_helpers.h **** 	tstamp.t64 = signing->timestamp;
  88:Modules/include/MAVLink/common/../mavlink_helpers.h **** 	memcpy(&signature[1], tstamp.t8, 6);
  89:Modules/include/MAVLink/common/../mavlink_helpers.h **** 	signing->timestamp++;
  90:Modules/include/MAVLink/common/../mavlink_helpers.h **** 	
  91:Modules/include/MAVLink/common/../mavlink_helpers.h **** 	mavlink_sha256_init(&ctx);
  92:Modules/include/MAVLink/common/../mavlink_helpers.h **** 	mavlink_sha256_update(&ctx, signing->secret_key, sizeof(signing->secret_key));
  93:Modules/include/MAVLink/common/../mavlink_helpers.h **** 	mavlink_sha256_update(&ctx, header, header_len);
  94:Modules/include/MAVLink/common/../mavlink_helpers.h **** 	mavlink_sha256_update(&ctx, packet, packet_len);
  95:Modules/include/MAVLink/common/../mavlink_helpers.h **** 	mavlink_sha256_update(&ctx, crc, 2);
  96:Modules/include/MAVLink/common/../mavlink_helpers.h **** 	mavlink_sha256_update(&ctx, signature, 7);
  97:Modules/include/MAVLink/common/../mavlink_helpers.h **** 	mavlink_sha256_final_48(&ctx, &signature[7]);
  98:Modules/include/MAVLink/common/../mavlink_helpers.h **** 	
  99:Modules/include/MAVLink/common/../mavlink_helpers.h **** 	return MAVLINK_SIGNATURE_BLOCK_LEN;
ARM GAS  C:\Users\luoha\AppData\Local\Temp\ccarQJQt.s 			page 21


 100:Modules/include/MAVLink/common/../mavlink_helpers.h **** }
 101:Modules/include/MAVLink/common/../mavlink_helpers.h **** 
 102:Modules/include/MAVLink/common/../mavlink_helpers.h **** /**
 103:Modules/include/MAVLink/common/../mavlink_helpers.h ****  * @brief Trim payload of any trailing zero-populated bytes (MAVLink 2 only).
 104:Modules/include/MAVLink/common/../mavlink_helpers.h ****  *
 105:Modules/include/MAVLink/common/../mavlink_helpers.h ****  * @param payload Serialised payload buffer.
 106:Modules/include/MAVLink/common/../mavlink_helpers.h ****  * @param length Length of full-width payload buffer.
 107:Modules/include/MAVLink/common/../mavlink_helpers.h ****  * @return Length of payload after zero-filled bytes are trimmed.
 108:Modules/include/MAVLink/common/../mavlink_helpers.h ****  */
 109:Modules/include/MAVLink/common/../mavlink_helpers.h **** MAVLINK_HELPER uint8_t _mav_trim_payload(const char *payload, uint8_t length)
 110:Modules/include/MAVLink/common/../mavlink_helpers.h **** {
 111:Modules/include/MAVLink/common/../mavlink_helpers.h **** 	while (length > 1 && payload[length-1] == 0) {
 112:Modules/include/MAVLink/common/../mavlink_helpers.h **** 		length--;
 113:Modules/include/MAVLink/common/../mavlink_helpers.h **** 	}
 114:Modules/include/MAVLink/common/../mavlink_helpers.h **** 	return length;
 115:Modules/include/MAVLink/common/../mavlink_helpers.h **** }
 116:Modules/include/MAVLink/common/../mavlink_helpers.h **** 
 117:Modules/include/MAVLink/common/../mavlink_helpers.h **** /**
 118:Modules/include/MAVLink/common/../mavlink_helpers.h ****  * @brief check a signature block for a packet
 119:Modules/include/MAVLink/common/../mavlink_helpers.h ****  */
 120:Modules/include/MAVLink/common/../mavlink_helpers.h **** MAVLINK_HELPER bool mavlink_signature_check(mavlink_signing_t *signing,
 121:Modules/include/MAVLink/common/../mavlink_helpers.h **** 					    mavlink_signing_streams_t *signing_streams,
 122:Modules/include/MAVLink/common/../mavlink_helpers.h **** 					    const mavlink_message_t *msg)
 123:Modules/include/MAVLink/common/../mavlink_helpers.h **** {
 124:Modules/include/MAVLink/common/../mavlink_helpers.h **** 	if (signing == NULL) {
 125:Modules/include/MAVLink/common/../mavlink_helpers.h **** 		return true;
 126:Modules/include/MAVLink/common/../mavlink_helpers.h **** 	}
 127:Modules/include/MAVLink/common/../mavlink_helpers.h ****         const uint8_t *p = (const uint8_t *)&msg->magic;
 128:Modules/include/MAVLink/common/../mavlink_helpers.h **** 	const uint8_t *psig = msg->signature;
 129:Modules/include/MAVLink/common/../mavlink_helpers.h ****         const uint8_t *incoming_signature = psig+7;
 130:Modules/include/MAVLink/common/../mavlink_helpers.h **** 	mavlink_sha256_ctx ctx;
 131:Modules/include/MAVLink/common/../mavlink_helpers.h **** 	uint8_t signature[6];
 132:Modules/include/MAVLink/common/../mavlink_helpers.h **** 	uint16_t i;
 133:Modules/include/MAVLink/common/../mavlink_helpers.h ****         
 134:Modules/include/MAVLink/common/../mavlink_helpers.h **** 	mavlink_sha256_init(&ctx);
 135:Modules/include/MAVLink/common/../mavlink_helpers.h **** 	mavlink_sha256_update(&ctx, signing->secret_key, sizeof(signing->secret_key));
 136:Modules/include/MAVLink/common/../mavlink_helpers.h **** 	mavlink_sha256_update(&ctx, p, MAVLINK_CORE_HEADER_LEN+1+msg->len);
 137:Modules/include/MAVLink/common/../mavlink_helpers.h **** 	mavlink_sha256_update(&ctx, msg->ck, 2);
 138:Modules/include/MAVLink/common/../mavlink_helpers.h **** 	mavlink_sha256_update(&ctx, psig, 1+6);
 139:Modules/include/MAVLink/common/../mavlink_helpers.h **** 	mavlink_sha256_final_48(&ctx, signature);
 140:Modules/include/MAVLink/common/../mavlink_helpers.h **** 	if (memcmp(signature, incoming_signature, 6) != 0) {
 141:Modules/include/MAVLink/common/../mavlink_helpers.h **** 		return false;
 142:Modules/include/MAVLink/common/../mavlink_helpers.h **** 	}
 143:Modules/include/MAVLink/common/../mavlink_helpers.h **** 
 144:Modules/include/MAVLink/common/../mavlink_helpers.h **** 	// now check timestamp
 145:Modules/include/MAVLink/common/../mavlink_helpers.h **** 	union tstamp {
 146:Modules/include/MAVLink/common/../mavlink_helpers.h **** 	    uint64_t t64;
 147:Modules/include/MAVLink/common/../mavlink_helpers.h **** 	    uint8_t t8[8];
 148:Modules/include/MAVLink/common/../mavlink_helpers.h **** 	} tstamp;
 149:Modules/include/MAVLink/common/../mavlink_helpers.h **** 	uint8_t link_id = psig[0];
 150:Modules/include/MAVLink/common/../mavlink_helpers.h **** 	tstamp.t64 = 0;
 151:Modules/include/MAVLink/common/../mavlink_helpers.h **** 	memcpy(tstamp.t8, psig+1, 6);
 152:Modules/include/MAVLink/common/../mavlink_helpers.h **** 
 153:Modules/include/MAVLink/common/../mavlink_helpers.h **** 	if (signing_streams == NULL) {
 154:Modules/include/MAVLink/common/../mavlink_helpers.h **** 		return false;
 155:Modules/include/MAVLink/common/../mavlink_helpers.h **** 	}
 156:Modules/include/MAVLink/common/../mavlink_helpers.h **** 	
ARM GAS  C:\Users\luoha\AppData\Local\Temp\ccarQJQt.s 			page 22


 157:Modules/include/MAVLink/common/../mavlink_helpers.h **** 	// find stream
 158:Modules/include/MAVLink/common/../mavlink_helpers.h **** 	for (i=0; i<signing_streams->num_signing_streams; i++) {
 159:Modules/include/MAVLink/common/../mavlink_helpers.h **** 		if (msg->sysid == signing_streams->stream[i].sysid &&
 160:Modules/include/MAVLink/common/../mavlink_helpers.h **** 		    msg->compid == signing_streams->stream[i].compid &&
 161:Modules/include/MAVLink/common/../mavlink_helpers.h **** 		    link_id == signing_streams->stream[i].link_id) {
 162:Modules/include/MAVLink/common/../mavlink_helpers.h **** 			break;
 163:Modules/include/MAVLink/common/../mavlink_helpers.h **** 		}
 164:Modules/include/MAVLink/common/../mavlink_helpers.h **** 	}
 165:Modules/include/MAVLink/common/../mavlink_helpers.h **** 	if (i == signing_streams->num_signing_streams) {
 166:Modules/include/MAVLink/common/../mavlink_helpers.h **** 		if (signing_streams->num_signing_streams >= MAVLINK_MAX_SIGNING_STREAMS) {
 167:Modules/include/MAVLink/common/../mavlink_helpers.h **** 			// over max number of streams
 168:Modules/include/MAVLink/common/../mavlink_helpers.h **** 			return false;
 169:Modules/include/MAVLink/common/../mavlink_helpers.h **** 		}
 170:Modules/include/MAVLink/common/../mavlink_helpers.h **** 		// new stream. Only accept if timestamp is not more than 1 minute old
 171:Modules/include/MAVLink/common/../mavlink_helpers.h **** 		if (tstamp.t64 + 6000*1000UL < signing->timestamp) {
 172:Modules/include/MAVLink/common/../mavlink_helpers.h **** 			return false;
 173:Modules/include/MAVLink/common/../mavlink_helpers.h **** 		}
 174:Modules/include/MAVLink/common/../mavlink_helpers.h **** 		// add new stream
 175:Modules/include/MAVLink/common/../mavlink_helpers.h **** 		signing_streams->stream[i].sysid = msg->sysid;
 176:Modules/include/MAVLink/common/../mavlink_helpers.h **** 		signing_streams->stream[i].compid = msg->compid;
 177:Modules/include/MAVLink/common/../mavlink_helpers.h **** 		signing_streams->stream[i].link_id = link_id;
 178:Modules/include/MAVLink/common/../mavlink_helpers.h **** 		signing_streams->num_signing_streams++;
 179:Modules/include/MAVLink/common/../mavlink_helpers.h **** 	} else {
 180:Modules/include/MAVLink/common/../mavlink_helpers.h **** 		union tstamp last_tstamp;
 181:Modules/include/MAVLink/common/../mavlink_helpers.h **** 		last_tstamp.t64 = 0;
 182:Modules/include/MAVLink/common/../mavlink_helpers.h **** 		memcpy(last_tstamp.t8, signing_streams->stream[i].timestamp_bytes, 6);
 183:Modules/include/MAVLink/common/../mavlink_helpers.h **** 		if (tstamp.t64 <= last_tstamp.t64) {
 184:Modules/include/MAVLink/common/../mavlink_helpers.h **** 			// repeating old timestamp
 185:Modules/include/MAVLink/common/../mavlink_helpers.h **** 			return false;
 186:Modules/include/MAVLink/common/../mavlink_helpers.h **** 		}
 187:Modules/include/MAVLink/common/../mavlink_helpers.h **** 	}
 188:Modules/include/MAVLink/common/../mavlink_helpers.h **** 
 189:Modules/include/MAVLink/common/../mavlink_helpers.h **** 	// remember last timestamp
 190:Modules/include/MAVLink/common/../mavlink_helpers.h **** 	memcpy(signing_streams->stream[i].timestamp_bytes, psig+1, 6);
 191:Modules/include/MAVLink/common/../mavlink_helpers.h **** 
 192:Modules/include/MAVLink/common/../mavlink_helpers.h **** 	// our next timestamp must be at least this timestamp
 193:Modules/include/MAVLink/common/../mavlink_helpers.h **** 	if (tstamp.t64 > signing->timestamp) {
 194:Modules/include/MAVLink/common/../mavlink_helpers.h **** 		signing->timestamp = tstamp.t64;
 195:Modules/include/MAVLink/common/../mavlink_helpers.h **** 	}
 196:Modules/include/MAVLink/common/../mavlink_helpers.h **** 	return true;
 197:Modules/include/MAVLink/common/../mavlink_helpers.h **** }
 198:Modules/include/MAVLink/common/../mavlink_helpers.h **** 
 199:Modules/include/MAVLink/common/../mavlink_helpers.h **** 
 200:Modules/include/MAVLink/common/../mavlink_helpers.h **** /**
 201:Modules/include/MAVLink/common/../mavlink_helpers.h ****  * @brief Finalize a MAVLink message with channel assignment
 202:Modules/include/MAVLink/common/../mavlink_helpers.h ****  *
 203:Modules/include/MAVLink/common/../mavlink_helpers.h ****  * This function calculates the checksum and sets length and aircraft id correctly.
 204:Modules/include/MAVLink/common/../mavlink_helpers.h ****  * It assumes that the message id and the payload are already correctly set. This function
 205:Modules/include/MAVLink/common/../mavlink_helpers.h ****  * can also be used if the message header has already been written before (as in mavlink_msg_xxx_pa
 206:Modules/include/MAVLink/common/../mavlink_helpers.h ****  * instead of mavlink_msg_xxx_pack_headerless), it just introduces little extra overhead.
 207:Modules/include/MAVLink/common/../mavlink_helpers.h ****  *
 208:Modules/include/MAVLink/common/../mavlink_helpers.h ****  * @param msg Message to finalize
 209:Modules/include/MAVLink/common/../mavlink_helpers.h ****  * @param system_id Id of the sending (this) system, 1-127
 210:Modules/include/MAVLink/common/../mavlink_helpers.h ****  * @param length Message length
 211:Modules/include/MAVLink/common/../mavlink_helpers.h ****  */
 212:Modules/include/MAVLink/common/../mavlink_helpers.h **** MAVLINK_HELPER uint16_t mavlink_finalize_message_buffer(mavlink_message_t* msg, uint8_t system_id, 
 213:Modules/include/MAVLink/common/../mavlink_helpers.h **** 						      mavlink_status_t* status, uint8_t min_length, uint8_t length, uint8_t crc_extra)
ARM GAS  C:\Users\luoha\AppData\Local\Temp\ccarQJQt.s 			page 23


 214:Modules/include/MAVLink/common/../mavlink_helpers.h **** {
 215:Modules/include/MAVLink/common/../mavlink_helpers.h **** 	bool mavlink1 = (status->flags & MAVLINK_STATUS_FLAG_OUT_MAVLINK1) != 0;
 216:Modules/include/MAVLink/common/../mavlink_helpers.h **** 	bool signing = 	(!mavlink1) && status->signing && (status->signing->flags & MAVLINK_SIGNING_FLAG_S
 217:Modules/include/MAVLink/common/../mavlink_helpers.h **** 	uint8_t signature_len = signing? MAVLINK_SIGNATURE_BLOCK_LEN : 0;
 218:Modules/include/MAVLink/common/../mavlink_helpers.h ****         uint8_t header_len = MAVLINK_CORE_HEADER_LEN+1;
 219:Modules/include/MAVLink/common/../mavlink_helpers.h **** 	uint8_t buf[MAVLINK_CORE_HEADER_LEN+1];
 220:Modules/include/MAVLink/common/../mavlink_helpers.h **** 	if (mavlink1) {
 221:Modules/include/MAVLink/common/../mavlink_helpers.h **** 		msg->magic = MAVLINK_STX_MAVLINK1;
 222:Modules/include/MAVLink/common/../mavlink_helpers.h **** 		header_len = MAVLINK_CORE_HEADER_MAVLINK1_LEN+1;
 223:Modules/include/MAVLink/common/../mavlink_helpers.h **** 	} else {
 224:Modules/include/MAVLink/common/../mavlink_helpers.h **** 		msg->magic = MAVLINK_STX;
 225:Modules/include/MAVLink/common/../mavlink_helpers.h **** 	}
 226:Modules/include/MAVLink/common/../mavlink_helpers.h **** 	msg->len = mavlink1?min_length:_mav_trim_payload(_MAV_PAYLOAD(msg), length);
 227:Modules/include/MAVLink/common/../mavlink_helpers.h **** 	msg->sysid = system_id;
 228:Modules/include/MAVLink/common/../mavlink_helpers.h **** 	msg->compid = component_id;
 229:Modules/include/MAVLink/common/../mavlink_helpers.h **** 	msg->incompat_flags = 0;
 230:Modules/include/MAVLink/common/../mavlink_helpers.h **** 	if (signing) {
 231:Modules/include/MAVLink/common/../mavlink_helpers.h **** 		msg->incompat_flags |= MAVLINK_IFLAG_SIGNED;
 232:Modules/include/MAVLink/common/../mavlink_helpers.h **** 	}
 233:Modules/include/MAVLink/common/../mavlink_helpers.h **** 	msg->compat_flags = 0;
 234:Modules/include/MAVLink/common/../mavlink_helpers.h **** 	msg->seq = status->current_tx_seq;
 235:Modules/include/MAVLink/common/../mavlink_helpers.h **** 	status->current_tx_seq = status->current_tx_seq + 1;
 236:Modules/include/MAVLink/common/../mavlink_helpers.h **** 
 237:Modules/include/MAVLink/common/../mavlink_helpers.h **** 	// form the header as a byte array for the crc
 238:Modules/include/MAVLink/common/../mavlink_helpers.h **** 	buf[0] = msg->magic;
 239:Modules/include/MAVLink/common/../mavlink_helpers.h **** 	buf[1] = msg->len;
 240:Modules/include/MAVLink/common/../mavlink_helpers.h **** 	if (mavlink1) {
 241:Modules/include/MAVLink/common/../mavlink_helpers.h **** 		buf[2] = msg->seq;
 242:Modules/include/MAVLink/common/../mavlink_helpers.h **** 		buf[3] = msg->sysid;
 243:Modules/include/MAVLink/common/../mavlink_helpers.h **** 		buf[4] = msg->compid;
 244:Modules/include/MAVLink/common/../mavlink_helpers.h **** 		buf[5] = msg->msgid & 0xFF;
 245:Modules/include/MAVLink/common/../mavlink_helpers.h **** 	} else {
 246:Modules/include/MAVLink/common/../mavlink_helpers.h **** 		buf[2] = msg->incompat_flags;
 247:Modules/include/MAVLink/common/../mavlink_helpers.h **** 		buf[3] = msg->compat_flags;
 248:Modules/include/MAVLink/common/../mavlink_helpers.h **** 		buf[4] = msg->seq;
 249:Modules/include/MAVLink/common/../mavlink_helpers.h **** 		buf[5] = msg->sysid;
 250:Modules/include/MAVLink/common/../mavlink_helpers.h **** 		buf[6] = msg->compid;
 251:Modules/include/MAVLink/common/../mavlink_helpers.h **** 		buf[7] = msg->msgid & 0xFF;
 252:Modules/include/MAVLink/common/../mavlink_helpers.h **** 		buf[8] = (msg->msgid >> 8) & 0xFF;
 253:Modules/include/MAVLink/common/../mavlink_helpers.h **** 		buf[9] = (msg->msgid >> 16) & 0xFF;
 254:Modules/include/MAVLink/common/../mavlink_helpers.h **** 	}
 255:Modules/include/MAVLink/common/../mavlink_helpers.h **** 	
 256:Modules/include/MAVLink/common/../mavlink_helpers.h **** 	uint16_t checksum = crc_calculate(&buf[1], header_len-1);
 257:Modules/include/MAVLink/common/../mavlink_helpers.h **** 	crc_accumulate_buffer(&checksum, _MAV_PAYLOAD(msg), msg->len);
 258:Modules/include/MAVLink/common/../mavlink_helpers.h **** 	crc_accumulate(crc_extra, &checksum);
 259:Modules/include/MAVLink/common/../mavlink_helpers.h **** 	mavlink_ck_a(msg) = (uint8_t)(checksum & 0xFF);
 260:Modules/include/MAVLink/common/../mavlink_helpers.h **** 	mavlink_ck_b(msg) = (uint8_t)(checksum >> 8);
 261:Modules/include/MAVLink/common/../mavlink_helpers.h **** 
 262:Modules/include/MAVLink/common/../mavlink_helpers.h **** 	msg->checksum = checksum;
 263:Modules/include/MAVLink/common/../mavlink_helpers.h **** 
 264:Modules/include/MAVLink/common/../mavlink_helpers.h **** 	if (signing) {
 265:Modules/include/MAVLink/common/../mavlink_helpers.h **** 		mavlink_sign_packet(status->signing,
 266:Modules/include/MAVLink/common/../mavlink_helpers.h **** 				    msg->signature,
 267:Modules/include/MAVLink/common/../mavlink_helpers.h **** 				    (const uint8_t *)buf, header_len,
 268:Modules/include/MAVLink/common/../mavlink_helpers.h **** 				    (const uint8_t *)_MAV_PAYLOAD(msg), msg->len,
 269:Modules/include/MAVLink/common/../mavlink_helpers.h **** 				    (const uint8_t *)_MAV_PAYLOAD(msg)+(uint16_t)msg->len);
 270:Modules/include/MAVLink/common/../mavlink_helpers.h **** 	}
ARM GAS  C:\Users\luoha\AppData\Local\Temp\ccarQJQt.s 			page 24


 271:Modules/include/MAVLink/common/../mavlink_helpers.h **** 	
 272:Modules/include/MAVLink/common/../mavlink_helpers.h **** 	return msg->len + header_len + 2 + signature_len;
 273:Modules/include/MAVLink/common/../mavlink_helpers.h **** }
 274:Modules/include/MAVLink/common/../mavlink_helpers.h **** 
 275:Modules/include/MAVLink/common/../mavlink_helpers.h **** MAVLINK_HELPER uint16_t mavlink_finalize_message_chan(mavlink_message_t* msg, uint8_t system_id, ui
 276:Modules/include/MAVLink/common/../mavlink_helpers.h **** 						      uint8_t chan, uint8_t min_length, uint8_t length, uint8_t crc_extra)
 277:Modules/include/MAVLink/common/../mavlink_helpers.h **** {
 278:Modules/include/MAVLink/common/../mavlink_helpers.h **** 	mavlink_status_t *status = mavlink_get_channel_status(chan);
 279:Modules/include/MAVLink/common/../mavlink_helpers.h **** 	return mavlink_finalize_message_buffer(msg, system_id, component_id, status, min_length, length, c
 280:Modules/include/MAVLink/common/../mavlink_helpers.h **** }
 281:Modules/include/MAVLink/common/../mavlink_helpers.h **** 
 282:Modules/include/MAVLink/common/../mavlink_helpers.h **** /**
 283:Modules/include/MAVLink/common/../mavlink_helpers.h ****  * @brief Finalize a MAVLink message with MAVLINK_COMM_0 as default channel
 284:Modules/include/MAVLink/common/../mavlink_helpers.h ****  */
 285:Modules/include/MAVLink/common/../mavlink_helpers.h **** MAVLINK_HELPER uint16_t mavlink_finalize_message(mavlink_message_t* msg, uint8_t system_id, uint8_t
 286:Modules/include/MAVLink/common/../mavlink_helpers.h **** 						 uint8_t min_length, uint8_t length, uint8_t crc_extra)
 287:Modules/include/MAVLink/common/../mavlink_helpers.h **** {
 288:Modules/include/MAVLink/common/../mavlink_helpers.h ****     return mavlink_finalize_message_chan(msg, system_id, component_id, MAVLINK_COMM_0, min_length, 
 289:Modules/include/MAVLink/common/../mavlink_helpers.h **** }
 290:Modules/include/MAVLink/common/../mavlink_helpers.h **** 
 291:Modules/include/MAVLink/common/../mavlink_helpers.h **** static inline void _mav_parse_error(mavlink_status_t *status)
 292:Modules/include/MAVLink/common/../mavlink_helpers.h **** {
 293:Modules/include/MAVLink/common/../mavlink_helpers.h ****     status->parse_error++;
 294:Modules/include/MAVLink/common/../mavlink_helpers.h **** }
 295:Modules/include/MAVLink/common/../mavlink_helpers.h **** 
 296:Modules/include/MAVLink/common/../mavlink_helpers.h **** #ifdef MAVLINK_USE_CONVENIENCE_FUNCTIONS
 297:Modules/include/MAVLink/common/../mavlink_helpers.h **** MAVLINK_HELPER void _mavlink_send_uart(mavlink_channel_t chan, const char *buf, uint16_t len);
 298:Modules/include/MAVLink/common/../mavlink_helpers.h **** 
 299:Modules/include/MAVLink/common/../mavlink_helpers.h **** /**
 300:Modules/include/MAVLink/common/../mavlink_helpers.h ****  * @brief Finalize a MAVLink message with channel assignment and send
 301:Modules/include/MAVLink/common/../mavlink_helpers.h ****  */
 302:Modules/include/MAVLink/common/../mavlink_helpers.h **** MAVLINK_HELPER void _mav_finalize_message_chan_send(mavlink_channel_t chan, uint32_t msgid,
 303:Modules/include/MAVLink/common/../mavlink_helpers.h ****                                                     const char *packet, 
 304:Modules/include/MAVLink/common/../mavlink_helpers.h **** 						    uint8_t min_length, uint8_t length, uint8_t crc_extra)
 305:Modules/include/MAVLink/common/../mavlink_helpers.h **** {
 306:Modules/include/MAVLink/common/../mavlink_helpers.h **** 	uint16_t checksum;
 307:Modules/include/MAVLink/common/../mavlink_helpers.h **** 	uint8_t buf[MAVLINK_NUM_HEADER_BYTES];
 308:Modules/include/MAVLink/common/../mavlink_helpers.h **** 	uint8_t ck[2];
 309:Modules/include/MAVLink/common/../mavlink_helpers.h **** 	mavlink_status_t *status = mavlink_get_channel_status(chan);
 310:Modules/include/MAVLink/common/../mavlink_helpers.h ****         uint8_t header_len = MAVLINK_CORE_HEADER_LEN;
 311:Modules/include/MAVLink/common/../mavlink_helpers.h **** 	uint8_t signature_len = 0;
 312:Modules/include/MAVLink/common/../mavlink_helpers.h **** 	uint8_t signature[MAVLINK_SIGNATURE_BLOCK_LEN];
 313:Modules/include/MAVLink/common/../mavlink_helpers.h **** 	bool mavlink1 = (status->flags & MAVLINK_STATUS_FLAG_OUT_MAVLINK1) != 0;
 314:Modules/include/MAVLink/common/../mavlink_helpers.h **** 	bool signing = 	(!mavlink1) && status->signing && (status->signing->flags & MAVLINK_SIGNING_FLAG_S
 315:Modules/include/MAVLink/common/../mavlink_helpers.h **** 
 316:Modules/include/MAVLink/common/../mavlink_helpers.h ****         if (mavlink1) {
 317:Modules/include/MAVLink/common/../mavlink_helpers.h ****             length = min_length;
 318:Modules/include/MAVLink/common/../mavlink_helpers.h ****             if (msgid > 255) {
 319:Modules/include/MAVLink/common/../mavlink_helpers.h ****                 // can't send 16 bit messages
 320:Modules/include/MAVLink/common/../mavlink_helpers.h ****                 _mav_parse_error(status);
 321:Modules/include/MAVLink/common/../mavlink_helpers.h ****                 return;
 322:Modules/include/MAVLink/common/../mavlink_helpers.h ****             }
 323:Modules/include/MAVLink/common/../mavlink_helpers.h ****             header_len = MAVLINK_CORE_HEADER_MAVLINK1_LEN;
 324:Modules/include/MAVLink/common/../mavlink_helpers.h ****             buf[0] = MAVLINK_STX_MAVLINK1;
 325:Modules/include/MAVLink/common/../mavlink_helpers.h ****             buf[1] = length;
 326:Modules/include/MAVLink/common/../mavlink_helpers.h ****             buf[2] = status->current_tx_seq;
 327:Modules/include/MAVLink/common/../mavlink_helpers.h ****             buf[3] = mavlink_system.sysid;
ARM GAS  C:\Users\luoha\AppData\Local\Temp\ccarQJQt.s 			page 25


 328:Modules/include/MAVLink/common/../mavlink_helpers.h ****             buf[4] = mavlink_system.compid;
 329:Modules/include/MAVLink/common/../mavlink_helpers.h ****             buf[5] = msgid & 0xFF;
 330:Modules/include/MAVLink/common/../mavlink_helpers.h ****         } else {
 331:Modules/include/MAVLink/common/../mavlink_helpers.h **** 	    uint8_t incompat_flags = 0;
 332:Modules/include/MAVLink/common/../mavlink_helpers.h **** 	    if (signing) {
 333:Modules/include/MAVLink/common/../mavlink_helpers.h **** 		incompat_flags |= MAVLINK_IFLAG_SIGNED;
 334:Modules/include/MAVLink/common/../mavlink_helpers.h **** 	    }
 335:Modules/include/MAVLink/common/../mavlink_helpers.h ****             length = _mav_trim_payload(packet, length);
 336:Modules/include/MAVLink/common/../mavlink_helpers.h ****             buf[0] = MAVLINK_STX;
 337:Modules/include/MAVLink/common/../mavlink_helpers.h ****             buf[1] = length;
 338:Modules/include/MAVLink/common/../mavlink_helpers.h ****             buf[2] = incompat_flags;
 339:Modules/include/MAVLink/common/../mavlink_helpers.h ****             buf[3] = 0; // compat_flags
 340:Modules/include/MAVLink/common/../mavlink_helpers.h ****             buf[4] = status->current_tx_seq;
 341:Modules/include/MAVLink/common/../mavlink_helpers.h ****             buf[5] = mavlink_system.sysid;
 342:Modules/include/MAVLink/common/../mavlink_helpers.h ****             buf[6] = mavlink_system.compid;
 343:Modules/include/MAVLink/common/../mavlink_helpers.h ****             buf[7] = msgid & 0xFF;
 344:Modules/include/MAVLink/common/../mavlink_helpers.h ****             buf[8] = (msgid >> 8) & 0xFF;
 345:Modules/include/MAVLink/common/../mavlink_helpers.h ****             buf[9] = (msgid >> 16) & 0xFF;
 346:Modules/include/MAVLink/common/../mavlink_helpers.h ****         }
 347:Modules/include/MAVLink/common/../mavlink_helpers.h **** 	status->current_tx_seq++;
 348:Modules/include/MAVLink/common/../mavlink_helpers.h **** 	checksum = crc_calculate((const uint8_t*)&buf[1], header_len);
 349:Modules/include/MAVLink/common/../mavlink_helpers.h **** 	crc_accumulate_buffer(&checksum, packet, length);
 350:Modules/include/MAVLink/common/../mavlink_helpers.h **** 	crc_accumulate(crc_extra, &checksum);
 351:Modules/include/MAVLink/common/../mavlink_helpers.h **** 	ck[0] = (uint8_t)(checksum & 0xFF);
 352:Modules/include/MAVLink/common/../mavlink_helpers.h **** 	ck[1] = (uint8_t)(checksum >> 8);
 353:Modules/include/MAVLink/common/../mavlink_helpers.h **** 
 354:Modules/include/MAVLink/common/../mavlink_helpers.h **** 	if (signing) {
 355:Modules/include/MAVLink/common/../mavlink_helpers.h **** 		// possibly add a signature
 356:Modules/include/MAVLink/common/../mavlink_helpers.h **** 		signature_len = mavlink_sign_packet(status->signing, signature, buf, header_len+1,
 357:Modules/include/MAVLink/common/../mavlink_helpers.h **** 						    (const uint8_t *)packet, length, ck);
 358:Modules/include/MAVLink/common/../mavlink_helpers.h **** 	}
 359:Modules/include/MAVLink/common/../mavlink_helpers.h **** 	
 360:Modules/include/MAVLink/common/../mavlink_helpers.h **** 	MAVLINK_START_UART_SEND(chan, header_len + 3 + (uint16_t)length + (uint16_t)signature_len);
 361:Modules/include/MAVLink/common/../mavlink_helpers.h **** 	_mavlink_send_uart(chan, (const char *)buf, header_len+1);
 362:Modules/include/MAVLink/common/../mavlink_helpers.h **** 	_mavlink_send_uart(chan, packet, length);
 363:Modules/include/MAVLink/common/../mavlink_helpers.h **** 	_mavlink_send_uart(chan, (const char *)ck, 2);
 364:Modules/include/MAVLink/common/../mavlink_helpers.h **** 	if (signature_len != 0) {
 365:Modules/include/MAVLink/common/../mavlink_helpers.h **** 		_mavlink_send_uart(chan, (const char *)signature, signature_len);
 366:Modules/include/MAVLink/common/../mavlink_helpers.h **** 	}
 367:Modules/include/MAVLink/common/../mavlink_helpers.h **** 	MAVLINK_END_UART_SEND(chan, header_len + 3 + (uint16_t)length + (uint16_t)signature_len);
 368:Modules/include/MAVLink/common/../mavlink_helpers.h **** }
 369:Modules/include/MAVLink/common/../mavlink_helpers.h **** 
 370:Modules/include/MAVLink/common/../mavlink_helpers.h **** /**
 371:Modules/include/MAVLink/common/../mavlink_helpers.h ****  * @brief re-send a message over a uart channel
 372:Modules/include/MAVLink/common/../mavlink_helpers.h ****  * this is more stack efficient than re-marshalling the message
 373:Modules/include/MAVLink/common/../mavlink_helpers.h ****  * If the message is signed then the original signature is also sent
 374:Modules/include/MAVLink/common/../mavlink_helpers.h ****  */
 375:Modules/include/MAVLink/common/../mavlink_helpers.h **** MAVLINK_HELPER void _mavlink_resend_uart(mavlink_channel_t chan, const mavlink_message_t *msg)
 376:Modules/include/MAVLink/common/../mavlink_helpers.h **** {
 377:Modules/include/MAVLink/common/../mavlink_helpers.h **** 	uint8_t ck[2];
 378:Modules/include/MAVLink/common/../mavlink_helpers.h **** 
 379:Modules/include/MAVLink/common/../mavlink_helpers.h **** 	ck[0] = (uint8_t)(msg->checksum & 0xFF);
 380:Modules/include/MAVLink/common/../mavlink_helpers.h **** 	ck[1] = (uint8_t)(msg->checksum >> 8);
 381:Modules/include/MAVLink/common/../mavlink_helpers.h **** 	// XXX use the right sequence here
 382:Modules/include/MAVLink/common/../mavlink_helpers.h **** 
 383:Modules/include/MAVLink/common/../mavlink_helpers.h ****         uint8_t header_len;
 384:Modules/include/MAVLink/common/../mavlink_helpers.h ****         uint8_t signature_len;
ARM GAS  C:\Users\luoha\AppData\Local\Temp\ccarQJQt.s 			page 26


 385:Modules/include/MAVLink/common/../mavlink_helpers.h ****         
 386:Modules/include/MAVLink/common/../mavlink_helpers.h ****         if (msg->magic == MAVLINK_STX_MAVLINK1) {
 387:Modules/include/MAVLink/common/../mavlink_helpers.h ****             header_len = MAVLINK_CORE_HEADER_MAVLINK1_LEN + 1;
 388:Modules/include/MAVLink/common/../mavlink_helpers.h ****             signature_len = 0;
 389:Modules/include/MAVLink/common/../mavlink_helpers.h ****             MAVLINK_START_UART_SEND(chan, header_len + msg->len + 2 + signature_len);
 390:Modules/include/MAVLink/common/../mavlink_helpers.h ****             // we can't send the structure directly as it has extra mavlink2 elements in it
 391:Modules/include/MAVLink/common/../mavlink_helpers.h ****             uint8_t buf[MAVLINK_CORE_HEADER_MAVLINK1_LEN + 1];
 392:Modules/include/MAVLink/common/../mavlink_helpers.h ****             buf[0] = msg->magic;
 393:Modules/include/MAVLink/common/../mavlink_helpers.h ****             buf[1] = msg->len;
 394:Modules/include/MAVLink/common/../mavlink_helpers.h ****             buf[2] = msg->seq;
 395:Modules/include/MAVLink/common/../mavlink_helpers.h ****             buf[3] = msg->sysid;
 396:Modules/include/MAVLink/common/../mavlink_helpers.h ****             buf[4] = msg->compid;
 397:Modules/include/MAVLink/common/../mavlink_helpers.h ****             buf[5] = msg->msgid & 0xFF;
 398:Modules/include/MAVLink/common/../mavlink_helpers.h ****             _mavlink_send_uart(chan, (const char*)buf, header_len);
 399:Modules/include/MAVLink/common/../mavlink_helpers.h ****         } else {
 400:Modules/include/MAVLink/common/../mavlink_helpers.h ****             header_len = MAVLINK_CORE_HEADER_LEN + 1;
 401:Modules/include/MAVLink/common/../mavlink_helpers.h ****             signature_len = (msg->incompat_flags & MAVLINK_IFLAG_SIGNED)?MAVLINK_SIGNATURE_BLOCK_LE
 402:Modules/include/MAVLink/common/../mavlink_helpers.h ****             MAVLINK_START_UART_SEND(chan, header_len + msg->len + 2 + signature_len);
 403:Modules/include/MAVLink/common/../mavlink_helpers.h ****             uint8_t buf[MAVLINK_CORE_HEADER_LEN + 1];
 404:Modules/include/MAVLink/common/../mavlink_helpers.h ****             buf[0] = msg->magic;
 405:Modules/include/MAVLink/common/../mavlink_helpers.h ****             buf[1] = msg->len;
 406:Modules/include/MAVLink/common/../mavlink_helpers.h ****             buf[2] = msg->incompat_flags;
 407:Modules/include/MAVLink/common/../mavlink_helpers.h ****             buf[3] = msg->compat_flags;
 408:Modules/include/MAVLink/common/../mavlink_helpers.h ****             buf[4] = msg->seq;
 409:Modules/include/MAVLink/common/../mavlink_helpers.h ****             buf[5] = msg->sysid;
 410:Modules/include/MAVLink/common/../mavlink_helpers.h ****             buf[6] = msg->compid;
 411:Modules/include/MAVLink/common/../mavlink_helpers.h ****             buf[7] = msg->msgid & 0xFF;
 412:Modules/include/MAVLink/common/../mavlink_helpers.h ****             buf[8] = (msg->msgid >> 8) & 0xFF;
 413:Modules/include/MAVLink/common/../mavlink_helpers.h ****             buf[9] = (msg->msgid >> 16) & 0xFF;
 414:Modules/include/MAVLink/common/../mavlink_helpers.h ****             _mavlink_send_uart(chan, (const char *)buf, header_len);
 415:Modules/include/MAVLink/common/../mavlink_helpers.h ****         }
 416:Modules/include/MAVLink/common/../mavlink_helpers.h **** 	_mavlink_send_uart(chan, _MAV_PAYLOAD(msg), msg->len);
 417:Modules/include/MAVLink/common/../mavlink_helpers.h **** 	_mavlink_send_uart(chan, (const char *)ck, 2);
 418:Modules/include/MAVLink/common/../mavlink_helpers.h ****         if (signature_len != 0) {
 419:Modules/include/MAVLink/common/../mavlink_helpers.h **** 	    _mavlink_send_uart(chan, (const char *)msg->signature, MAVLINK_SIGNATURE_BLOCK_LEN);
 420:Modules/include/MAVLink/common/../mavlink_helpers.h ****         }
 421:Modules/include/MAVLink/common/../mavlink_helpers.h ****         MAVLINK_END_UART_SEND(chan, header_len + msg->len + 2 + signature_len);
 422:Modules/include/MAVLink/common/../mavlink_helpers.h **** }
 423:Modules/include/MAVLink/common/../mavlink_helpers.h **** #endif // MAVLINK_USE_CONVENIENCE_FUNCTIONS
 424:Modules/include/MAVLink/common/../mavlink_helpers.h **** 
 425:Modules/include/MAVLink/common/../mavlink_helpers.h **** /**
 426:Modules/include/MAVLink/common/../mavlink_helpers.h ****  * @brief Pack a message to send it over a serial byte stream
 427:Modules/include/MAVLink/common/../mavlink_helpers.h ****  */
 428:Modules/include/MAVLink/common/../mavlink_helpers.h **** MAVLINK_HELPER uint16_t mavlink_msg_to_send_buffer(uint8_t *buf, const mavlink_message_t *msg)
 429:Modules/include/MAVLink/common/../mavlink_helpers.h **** {
 430:Modules/include/MAVLink/common/../mavlink_helpers.h **** 	uint8_t signature_len, header_len;
 431:Modules/include/MAVLink/common/../mavlink_helpers.h **** 	uint8_t *ck;
 432:Modules/include/MAVLink/common/../mavlink_helpers.h ****         uint8_t length = msg->len;
 433:Modules/include/MAVLink/common/../mavlink_helpers.h ****         
 434:Modules/include/MAVLink/common/../mavlink_helpers.h **** 	if (msg->magic == MAVLINK_STX_MAVLINK1) {
 435:Modules/include/MAVLink/common/../mavlink_helpers.h **** 		signature_len = 0;
 436:Modules/include/MAVLink/common/../mavlink_helpers.h **** 		header_len = MAVLINK_CORE_HEADER_MAVLINK1_LEN;
 437:Modules/include/MAVLink/common/../mavlink_helpers.h **** 		buf[0] = msg->magic;
 438:Modules/include/MAVLink/common/../mavlink_helpers.h **** 		buf[1] = length;
 439:Modules/include/MAVLink/common/../mavlink_helpers.h **** 		buf[2] = msg->seq;
 440:Modules/include/MAVLink/common/../mavlink_helpers.h **** 		buf[3] = msg->sysid;
 441:Modules/include/MAVLink/common/../mavlink_helpers.h **** 		buf[4] = msg->compid;
ARM GAS  C:\Users\luoha\AppData\Local\Temp\ccarQJQt.s 			page 27


 442:Modules/include/MAVLink/common/../mavlink_helpers.h **** 		buf[5] = msg->msgid & 0xFF;
 443:Modules/include/MAVLink/common/../mavlink_helpers.h **** 		memcpy(&buf[6], _MAV_PAYLOAD(msg), msg->len);
 444:Modules/include/MAVLink/common/../mavlink_helpers.h **** 		ck = buf + header_len + 1 + (uint16_t)msg->len;
 445:Modules/include/MAVLink/common/../mavlink_helpers.h **** 	} else {
 446:Modules/include/MAVLink/common/../mavlink_helpers.h **** 		length = _mav_trim_payload(_MAV_PAYLOAD(msg), length);
 447:Modules/include/MAVLink/common/../mavlink_helpers.h **** 		header_len = MAVLINK_CORE_HEADER_LEN;
 448:Modules/include/MAVLink/common/../mavlink_helpers.h **** 		buf[0] = msg->magic;
 449:Modules/include/MAVLink/common/../mavlink_helpers.h **** 		buf[1] = length;
 450:Modules/include/MAVLink/common/../mavlink_helpers.h **** 		buf[2] = msg->incompat_flags;
 451:Modules/include/MAVLink/common/../mavlink_helpers.h **** 		buf[3] = msg->compat_flags;
 452:Modules/include/MAVLink/common/../mavlink_helpers.h **** 		buf[4] = msg->seq;
 453:Modules/include/MAVLink/common/../mavlink_helpers.h **** 		buf[5] = msg->sysid;
 454:Modules/include/MAVLink/common/../mavlink_helpers.h **** 		buf[6] = msg->compid;
 455:Modules/include/MAVLink/common/../mavlink_helpers.h **** 		buf[7] = msg->msgid & 0xFF;
 456:Modules/include/MAVLink/common/../mavlink_helpers.h **** 		buf[8] = (msg->msgid >> 8) & 0xFF;
 457:Modules/include/MAVLink/common/../mavlink_helpers.h **** 		buf[9] = (msg->msgid >> 16) & 0xFF;
 458:Modules/include/MAVLink/common/../mavlink_helpers.h **** 		memcpy(&buf[10], _MAV_PAYLOAD(msg), length);
 459:Modules/include/MAVLink/common/../mavlink_helpers.h **** 		ck = buf + header_len + 1 + (uint16_t)length;
 460:Modules/include/MAVLink/common/../mavlink_helpers.h **** 		signature_len = (msg->incompat_flags & MAVLINK_IFLAG_SIGNED)?MAVLINK_SIGNATURE_BLOCK_LEN:0;
 461:Modules/include/MAVLink/common/../mavlink_helpers.h **** 	}
 462:Modules/include/MAVLink/common/../mavlink_helpers.h **** 	ck[0] = (uint8_t)(msg->checksum & 0xFF);
 463:Modules/include/MAVLink/common/../mavlink_helpers.h **** 	ck[1] = (uint8_t)(msg->checksum >> 8);
 464:Modules/include/MAVLink/common/../mavlink_helpers.h **** 	if (signature_len > 0) {
 465:Modules/include/MAVLink/common/../mavlink_helpers.h **** 		memcpy(&ck[2], msg->signature, signature_len);
 466:Modules/include/MAVLink/common/../mavlink_helpers.h **** 	}
 467:Modules/include/MAVLink/common/../mavlink_helpers.h **** 
 468:Modules/include/MAVLink/common/../mavlink_helpers.h **** 	return header_len + 1 + 2 + (uint16_t)length + (uint16_t)signature_len;
 469:Modules/include/MAVLink/common/../mavlink_helpers.h **** }
 470:Modules/include/MAVLink/common/../mavlink_helpers.h **** 
 471:Modules/include/MAVLink/common/../mavlink_helpers.h **** union __mavlink_bitfield {
 472:Modules/include/MAVLink/common/../mavlink_helpers.h **** 	uint8_t uint8;
 473:Modules/include/MAVLink/common/../mavlink_helpers.h **** 	int8_t int8;
 474:Modules/include/MAVLink/common/../mavlink_helpers.h **** 	uint16_t uint16;
 475:Modules/include/MAVLink/common/../mavlink_helpers.h **** 	int16_t int16;
 476:Modules/include/MAVLink/common/../mavlink_helpers.h **** 	uint32_t uint32;
 477:Modules/include/MAVLink/common/../mavlink_helpers.h **** 	int32_t int32;
 478:Modules/include/MAVLink/common/../mavlink_helpers.h **** };
 479:Modules/include/MAVLink/common/../mavlink_helpers.h **** 
 480:Modules/include/MAVLink/common/../mavlink_helpers.h **** 
 481:Modules/include/MAVLink/common/../mavlink_helpers.h **** MAVLINK_HELPER void mavlink_start_checksum(mavlink_message_t* msg)
 482:Modules/include/MAVLink/common/../mavlink_helpers.h **** {
 483:Modules/include/MAVLink/common/../mavlink_helpers.h **** 	uint16_t crcTmp = 0;
 484:Modules/include/MAVLink/common/../mavlink_helpers.h **** 	crc_init(&crcTmp);
 485:Modules/include/MAVLink/common/../mavlink_helpers.h **** 	msg->checksum = crcTmp;
 486:Modules/include/MAVLink/common/../mavlink_helpers.h **** }
 487:Modules/include/MAVLink/common/../mavlink_helpers.h **** 
 488:Modules/include/MAVLink/common/../mavlink_helpers.h **** MAVLINK_HELPER void mavlink_update_checksum(mavlink_message_t* msg, uint8_t c)
 489:Modules/include/MAVLink/common/../mavlink_helpers.h **** {
 490:Modules/include/MAVLink/common/../mavlink_helpers.h **** 	uint16_t checksum = msg->checksum;
 491:Modules/include/MAVLink/common/../mavlink_helpers.h **** 	crc_accumulate(c, &checksum);
 492:Modules/include/MAVLink/common/../mavlink_helpers.h **** 	msg->checksum = checksum;
 493:Modules/include/MAVLink/common/../mavlink_helpers.h **** }
 494:Modules/include/MAVLink/common/../mavlink_helpers.h **** 
 495:Modules/include/MAVLink/common/../mavlink_helpers.h **** /*
 496:Modules/include/MAVLink/common/../mavlink_helpers.h ****   return the crc_entry value for a msgid
 497:Modules/include/MAVLink/common/../mavlink_helpers.h **** */
 498:Modules/include/MAVLink/common/../mavlink_helpers.h **** #ifndef MAVLINK_GET_MSG_ENTRY
ARM GAS  C:\Users\luoha\AppData\Local\Temp\ccarQJQt.s 			page 28


 499:Modules/include/MAVLink/common/../mavlink_helpers.h **** MAVLINK_HELPER const mavlink_msg_entry_t *mavlink_get_msg_entry(uint32_t msgid)
 500:Modules/include/MAVLink/common/../mavlink_helpers.h **** {
 501:Modules/include/MAVLink/common/../mavlink_helpers.h **** 	static const mavlink_msg_entry_t mavlink_message_crcs[] = MAVLINK_MESSAGE_CRCS;
 502:Modules/include/MAVLink/common/../mavlink_helpers.h ****         /*
 503:Modules/include/MAVLink/common/../mavlink_helpers.h **** 	  use a bisection search to find the right entry. A perfect hash may be better
 504:Modules/include/MAVLink/common/../mavlink_helpers.h **** 	  Note that this assumes the table is sorted by msgid
 505:Modules/include/MAVLink/common/../mavlink_helpers.h **** 	*/
 506:Modules/include/MAVLink/common/../mavlink_helpers.h ****         uint32_t low=0, high=sizeof(mavlink_message_crcs)/sizeof(mavlink_message_crcs[0]) - 1;
 507:Modules/include/MAVLink/common/../mavlink_helpers.h ****         while (low < high) {
 508:Modules/include/MAVLink/common/../mavlink_helpers.h ****             uint32_t mid = (low+1+high)/2;
 509:Modules/include/MAVLink/common/../mavlink_helpers.h ****             if (msgid < mavlink_message_crcs[mid].msgid) {
 510:Modules/include/MAVLink/common/../mavlink_helpers.h ****                 high = mid-1;
 511:Modules/include/MAVLink/common/../mavlink_helpers.h ****                 continue;
 512:Modules/include/MAVLink/common/../mavlink_helpers.h ****             }
 513:Modules/include/MAVLink/common/../mavlink_helpers.h ****             if (msgid > mavlink_message_crcs[mid].msgid) {
 514:Modules/include/MAVLink/common/../mavlink_helpers.h ****                 low = mid;
 515:Modules/include/MAVLink/common/../mavlink_helpers.h ****                 continue;
 516:Modules/include/MAVLink/common/../mavlink_helpers.h ****             }
 517:Modules/include/MAVLink/common/../mavlink_helpers.h ****             low = mid;
 518:Modules/include/MAVLink/common/../mavlink_helpers.h ****             break;
 519:Modules/include/MAVLink/common/../mavlink_helpers.h ****         }
 520:Modules/include/MAVLink/common/../mavlink_helpers.h ****         if (mavlink_message_crcs[low].msgid != msgid) {
 521:Modules/include/MAVLink/common/../mavlink_helpers.h ****             // msgid is not in the table
 522:Modules/include/MAVLink/common/../mavlink_helpers.h ****             return NULL;
 523:Modules/include/MAVLink/common/../mavlink_helpers.h ****         }
 524:Modules/include/MAVLink/common/../mavlink_helpers.h ****         return &mavlink_message_crcs[low];
 525:Modules/include/MAVLink/common/../mavlink_helpers.h **** }
 526:Modules/include/MAVLink/common/../mavlink_helpers.h **** #endif // MAVLINK_GET_MSG_ENTRY
 527:Modules/include/MAVLink/common/../mavlink_helpers.h **** 
 528:Modules/include/MAVLink/common/../mavlink_helpers.h **** /*
 529:Modules/include/MAVLink/common/../mavlink_helpers.h ****   return the crc_extra value for a message
 530:Modules/include/MAVLink/common/../mavlink_helpers.h **** */
 531:Modules/include/MAVLink/common/../mavlink_helpers.h **** MAVLINK_HELPER uint8_t mavlink_get_crc_extra(const mavlink_message_t *msg)
 532:Modules/include/MAVLink/common/../mavlink_helpers.h **** {
 533:Modules/include/MAVLink/common/../mavlink_helpers.h **** 	const mavlink_msg_entry_t *e = mavlink_get_msg_entry(msg->msgid);
 534:Modules/include/MAVLink/common/../mavlink_helpers.h **** 	return e?e->crc_extra:0;
 535:Modules/include/MAVLink/common/../mavlink_helpers.h **** }
 536:Modules/include/MAVLink/common/../mavlink_helpers.h **** 
 537:Modules/include/MAVLink/common/../mavlink_helpers.h **** /*
 538:Modules/include/MAVLink/common/../mavlink_helpers.h ****   return the min message length
 539:Modules/include/MAVLink/common/../mavlink_helpers.h **** */
 540:Modules/include/MAVLink/common/../mavlink_helpers.h **** #define MAVLINK_HAVE_MIN_MESSAGE_LENGTH
 541:Modules/include/MAVLink/common/../mavlink_helpers.h **** MAVLINK_HELPER uint8_t mavlink_min_message_length(const mavlink_message_t *msg)
 542:Modules/include/MAVLink/common/../mavlink_helpers.h **** {
 543:Modules/include/MAVLink/common/../mavlink_helpers.h **** 	const mavlink_msg_entry_t *e = mavlink_get_msg_entry(msg->msgid);
 544:Modules/include/MAVLink/common/../mavlink_helpers.h ****         return e?e->min_msg_len:0;
 545:Modules/include/MAVLink/common/../mavlink_helpers.h **** }
 546:Modules/include/MAVLink/common/../mavlink_helpers.h **** 
 547:Modules/include/MAVLink/common/../mavlink_helpers.h **** /*
 548:Modules/include/MAVLink/common/../mavlink_helpers.h ****   return the max message length (including extensions)
 549:Modules/include/MAVLink/common/../mavlink_helpers.h **** */
 550:Modules/include/MAVLink/common/../mavlink_helpers.h **** #define MAVLINK_HAVE_MAX_MESSAGE_LENGTH
 551:Modules/include/MAVLink/common/../mavlink_helpers.h **** MAVLINK_HELPER uint8_t mavlink_max_message_length(const mavlink_message_t *msg)
 552:Modules/include/MAVLink/common/../mavlink_helpers.h **** {
 553:Modules/include/MAVLink/common/../mavlink_helpers.h **** 	const mavlink_msg_entry_t *e = mavlink_get_msg_entry(msg->msgid);
 554:Modules/include/MAVLink/common/../mavlink_helpers.h ****         return e?e->max_msg_len:0;
 555:Modules/include/MAVLink/common/../mavlink_helpers.h **** }
ARM GAS  C:\Users\luoha\AppData\Local\Temp\ccarQJQt.s 			page 29


 556:Modules/include/MAVLink/common/../mavlink_helpers.h **** 
 557:Modules/include/MAVLink/common/../mavlink_helpers.h **** /**
 558:Modules/include/MAVLink/common/../mavlink_helpers.h ****  * This is a variant of mavlink_frame_char() but with caller supplied
 559:Modules/include/MAVLink/common/../mavlink_helpers.h ****  * parsing buffers. It is useful when you want to create a MAVLink
 560:Modules/include/MAVLink/common/../mavlink_helpers.h ****  * parser in a library that doesn't use any global variables
 561:Modules/include/MAVLink/common/../mavlink_helpers.h ****  *
 562:Modules/include/MAVLink/common/../mavlink_helpers.h ****  * @param rxmsg    parsing message buffer
 563:Modules/include/MAVLink/common/../mavlink_helpers.h ****  * @param status   parsing status buffer
 564:Modules/include/MAVLink/common/../mavlink_helpers.h ****  * @param c        The char to parse
 565:Modules/include/MAVLink/common/../mavlink_helpers.h ****  *
 566:Modules/include/MAVLink/common/../mavlink_helpers.h ****  * @param r_message NULL if no message could be decoded, otherwise the message data
 567:Modules/include/MAVLink/common/../mavlink_helpers.h ****  * @param r_mavlink_status if a message was decoded, this is filled with the channel's stats
 568:Modules/include/MAVLink/common/../mavlink_helpers.h ****  * @return 0 if no message could be decoded, 1 on good message and CRC, 2 on bad CRC
 569:Modules/include/MAVLink/common/../mavlink_helpers.h ****  *
 570:Modules/include/MAVLink/common/../mavlink_helpers.h ****  */
 571:Modules/include/MAVLink/common/../mavlink_helpers.h **** MAVLINK_HELPER uint8_t mavlink_frame_char_buffer(mavlink_message_t* rxmsg, 
 572:Modules/include/MAVLink/common/../mavlink_helpers.h ****                                                  mavlink_status_t* status,
 573:Modules/include/MAVLink/common/../mavlink_helpers.h ****                                                  uint8_t c, 
 574:Modules/include/MAVLink/common/../mavlink_helpers.h ****                                                  mavlink_message_t* r_message, 
 575:Modules/include/MAVLink/common/../mavlink_helpers.h ****                                                  mavlink_status_t* r_mavlink_status)
 576:Modules/include/MAVLink/common/../mavlink_helpers.h **** {
 577:Modules/include/MAVLink/common/../mavlink_helpers.h **** 	int bufferIndex = 0;
 578:Modules/include/MAVLink/common/../mavlink_helpers.h **** 
 579:Modules/include/MAVLink/common/../mavlink_helpers.h **** 	status->msg_received = MAVLINK_FRAMING_INCOMPLETE;
 580:Modules/include/MAVLink/common/../mavlink_helpers.h **** 
 581:Modules/include/MAVLink/common/../mavlink_helpers.h **** 	switch (status->parse_state)
 582:Modules/include/MAVLink/common/../mavlink_helpers.h **** 	{
 583:Modules/include/MAVLink/common/../mavlink_helpers.h **** 	case MAVLINK_PARSE_STATE_UNINIT:
 584:Modules/include/MAVLink/common/../mavlink_helpers.h **** 	case MAVLINK_PARSE_STATE_IDLE:
 585:Modules/include/MAVLink/common/../mavlink_helpers.h **** 		if (c == MAVLINK_STX)
 255              		.loc 3 585 3 is_stmt 1 view .LVU38
 256              		.loc 3 585 6 is_stmt 0 view .LVU39
 257 0012 BBF1FD0F 		cmp	fp, #253
 258 0016 12D0     		beq	.L149
 586:Modules/include/MAVLink/common/../mavlink_helpers.h **** 		{
 587:Modules/include/MAVLink/common/../mavlink_helpers.h **** 			status->parse_state = MAVLINK_PARSE_STATE_GOT_STX;
 588:Modules/include/MAVLink/common/../mavlink_helpers.h **** 			rxmsg->len = 0;
 589:Modules/include/MAVLink/common/../mavlink_helpers.h **** 			rxmsg->magic = c;
 590:Modules/include/MAVLink/common/../mavlink_helpers.h ****                         status->flags &= ~MAVLINK_STATUS_FLAG_IN_MAVLINK1;
 591:Modules/include/MAVLink/common/../mavlink_helpers.h **** 			mavlink_start_checksum(rxmsg);
 592:Modules/include/MAVLink/common/../mavlink_helpers.h **** 		} else if (c == MAVLINK_STX_MAVLINK1)
 259              		.loc 3 592 10 is_stmt 1 view .LVU40
 260              		.loc 3 592 13 is_stmt 0 view .LVU41
 261 0018 BBF1FE0F 		cmp	fp, #254
 262 001c 7DD1     		bne	.L9
 593:Modules/include/MAVLink/common/../mavlink_helpers.h **** 		{
 594:Modules/include/MAVLink/common/../mavlink_helpers.h **** 			status->parse_state = MAVLINK_PARSE_STATE_GOT_STX;
 263              		.loc 3 594 4 is_stmt 1 view .LVU42
 264              		.loc 3 594 24 is_stmt 0 view .LVU43
 265 001e B34A     		ldr	r2, .L182
 266 0020 0223     		movs	r3, #2
 267 0022 D370     		strb	r3, [r2, #3]
 595:Modules/include/MAVLink/common/../mavlink_helpers.h **** 			rxmsg->len = 0;
 268              		.loc 3 595 4 is_stmt 1 view .LVU44
 269              		.loc 3 595 15 is_stmt 0 view .LVU45
 270 0024 B24B     		ldr	r3, .L182+4
 271 0026 0021     		movs	r1, #0
ARM GAS  C:\Users\luoha\AppData\Local\Temp\ccarQJQt.s 			page 30


 272 0028 D970     		strb	r1, [r3, #3]
 596:Modules/include/MAVLink/common/../mavlink_helpers.h **** 			rxmsg->magic = c;
 273              		.loc 3 596 4 is_stmt 1 view .LVU46
 274              		.loc 3 596 17 is_stmt 0 view .LVU47
 275 002a 83F802B0 		strb	fp, [r3, #2]
 597:Modules/include/MAVLink/common/../mavlink_helpers.h ****                         status->flags |= MAVLINK_STATUS_FLAG_IN_MAVLINK1;
 276              		.loc 3 597 25 is_stmt 1 view .LVU48
 277              		.loc 3 597 39 is_stmt 0 view .LVU49
 278 002e 117B     		ldrb	r1, [r2, #12]	@ zero_extendqisi2
 279 0030 41F00101 		orr	r1, r1, #1
 280 0034 1173     		strb	r1, [r2, #12]
 598:Modules/include/MAVLink/common/../mavlink_helpers.h **** 			mavlink_start_checksum(rxmsg);
 281              		.loc 3 598 4 is_stmt 1 view .LVU50
 282              	.LVL21:
 283              	.LBB217:
 284              	.LBI217:
 481:Modules/include/MAVLink/common/../mavlink_helpers.h **** {
 285              		.loc 3 481 21 view .LVU51
 286              	.LBB218:
 483:Modules/include/MAVLink/common/../mavlink_helpers.h **** 	crc_init(&crcTmp);
 287              		.loc 3 483 2 view .LVU52
 484:Modules/include/MAVLink/common/../mavlink_helpers.h **** 	msg->checksum = crcTmp;
 288              		.loc 3 484 2 view .LVU53
 484:Modules/include/MAVLink/common/../mavlink_helpers.h **** 	msg->checksum = crcTmp;
 289              		.loc 3 484 2 is_stmt 0 view .LVU54
 290              	.LBE218:
 291              	.LBE217:
 292              	.LBE216:
 293              	.LBE215:
 294              	.LBE214:
 295              	.LBE213:
 296              	.LBE212:
 297              	.LBE211:
 298              		.file 4 "Modules/include/MAVLink/common/../checksum.h"
   1:Modules/include/MAVLink/common/../checksum.h **** #pragma once
   2:Modules/include/MAVLink/common/../checksum.h **** 
   3:Modules/include/MAVLink/common/../checksum.h **** #if defined(MAVLINK_USE_CXX_NAMESPACE)
   4:Modules/include/MAVLink/common/../checksum.h **** namespace mavlink {
   5:Modules/include/MAVLink/common/../checksum.h **** #elif defined(__cplusplus)
   6:Modules/include/MAVLink/common/../checksum.h **** extern "C" {
   7:Modules/include/MAVLink/common/../checksum.h **** #endif
   8:Modules/include/MAVLink/common/../checksum.h **** 
   9:Modules/include/MAVLink/common/../checksum.h **** // Visual Studio versions before 2010 don't have stdint.h, so we just error out.
  10:Modules/include/MAVLink/common/../checksum.h **** #if (defined _MSC_VER) && (_MSC_VER < 1600)
  11:Modules/include/MAVLink/common/../checksum.h **** #error "The C-MAVLink implementation requires Visual Studio 2010 or greater"
  12:Modules/include/MAVLink/common/../checksum.h **** #endif
  13:Modules/include/MAVLink/common/../checksum.h **** 
  14:Modules/include/MAVLink/common/../checksum.h **** #include <stdint.h>
  15:Modules/include/MAVLink/common/../checksum.h **** 
  16:Modules/include/MAVLink/common/../checksum.h **** /**
  17:Modules/include/MAVLink/common/../checksum.h ****  *
  18:Modules/include/MAVLink/common/../checksum.h ****  *  CALCULATE THE CHECKSUM
  19:Modules/include/MAVLink/common/../checksum.h ****  *
  20:Modules/include/MAVLink/common/../checksum.h ****  */
  21:Modules/include/MAVLink/common/../checksum.h **** 
  22:Modules/include/MAVLink/common/../checksum.h **** #define X25_INIT_CRC 0xffff
  23:Modules/include/MAVLink/common/../checksum.h **** #define X25_VALIDATE_CRC 0xf0b8
ARM GAS  C:\Users\luoha\AppData\Local\Temp\ccarQJQt.s 			page 31


  24:Modules/include/MAVLink/common/../checksum.h **** 
  25:Modules/include/MAVLink/common/../checksum.h **** #ifndef HAVE_CRC_ACCUMULATE
  26:Modules/include/MAVLink/common/../checksum.h **** /**
  27:Modules/include/MAVLink/common/../checksum.h ****  * @brief Accumulate the X.25 CRC by adding one char at a time.
  28:Modules/include/MAVLink/common/../checksum.h ****  *
  29:Modules/include/MAVLink/common/../checksum.h ****  * The checksum function adds the hash of one char at a time to the
  30:Modules/include/MAVLink/common/../checksum.h ****  * 16 bit checksum (uint16_t).
  31:Modules/include/MAVLink/common/../checksum.h ****  *
  32:Modules/include/MAVLink/common/../checksum.h ****  * @param data new char to hash
  33:Modules/include/MAVLink/common/../checksum.h ****  * @param crcAccum the already accumulated checksum
  34:Modules/include/MAVLink/common/../checksum.h ****  **/
  35:Modules/include/MAVLink/common/../checksum.h **** static inline void crc_accumulate(uint8_t data, uint16_t *crcAccum)
  36:Modules/include/MAVLink/common/../checksum.h **** {
  37:Modules/include/MAVLink/common/../checksum.h ****         /*Accumulate one byte of data into the CRC*/
  38:Modules/include/MAVLink/common/../checksum.h ****         uint8_t tmp;
  39:Modules/include/MAVLink/common/../checksum.h **** 
  40:Modules/include/MAVLink/common/../checksum.h ****         tmp = data ^ (uint8_t)(*crcAccum &0xff);
  41:Modules/include/MAVLink/common/../checksum.h ****         tmp ^= (tmp<<4);
  42:Modules/include/MAVLink/common/../checksum.h ****         *crcAccum = (*crcAccum>>8) ^ (tmp<<8) ^ (tmp <<3) ^ (tmp>>4);
  43:Modules/include/MAVLink/common/../checksum.h **** }
  44:Modules/include/MAVLink/common/../checksum.h **** #endif
  45:Modules/include/MAVLink/common/../checksum.h **** 
  46:Modules/include/MAVLink/common/../checksum.h **** 
  47:Modules/include/MAVLink/common/../checksum.h **** /**
  48:Modules/include/MAVLink/common/../checksum.h ****  * @brief Initiliaze the buffer for the X.25 CRC
  49:Modules/include/MAVLink/common/../checksum.h ****  *
  50:Modules/include/MAVLink/common/../checksum.h ****  * @param crcAccum the 16 bit X.25 CRC
  51:Modules/include/MAVLink/common/../checksum.h ****  */
  52:Modules/include/MAVLink/common/../checksum.h **** static inline void crc_init(uint16_t* crcAccum)
  53:Modules/include/MAVLink/common/../checksum.h **** {
  54:Modules/include/MAVLink/common/../checksum.h ****         *crcAccum = X25_INIT_CRC;
 299              		.loc 4 54 9 is_stmt 1 view .LVU55
 300              	.LBB377:
 301              	.LBB370:
 302              	.LBB363:
 303              	.LBB347:
 304              	.LBB344:
 305              	.LBB341:
 306              	.LBB220:
 307              	.LBB219:
 485:Modules/include/MAVLink/common/../mavlink_helpers.h **** }
 308              		.loc 3 485 2 view .LVU56
 485:Modules/include/MAVLink/common/../mavlink_helpers.h **** }
 309              		.loc 3 485 16 is_stmt 0 view .LVU57
 310 0036 4FF6FF72 		movw	r2, #65535
 311 003a 1A80     		strh	r2, [r3]	@ movhi
 312              	.LVL22:
 486:Modules/include/MAVLink/common/../mavlink_helpers.h **** 
 313              		.loc 3 486 1 view .LVU58
 314 003c 6DE0     		b	.L9
 315              	.LVL23:
 316              	.L149:
 486:Modules/include/MAVLink/common/../mavlink_helpers.h **** 
 317              		.loc 3 486 1 view .LVU59
 318              	.LBE219:
 319              	.LBE220:
 587:Modules/include/MAVLink/common/../mavlink_helpers.h **** 			rxmsg->len = 0;
ARM GAS  C:\Users\luoha\AppData\Local\Temp\ccarQJQt.s 			page 32


 320              		.loc 3 587 4 is_stmt 1 view .LVU60
 587:Modules/include/MAVLink/common/../mavlink_helpers.h **** 			rxmsg->len = 0;
 321              		.loc 3 587 24 is_stmt 0 view .LVU61
 322 003e AB4A     		ldr	r2, .L182
 323 0040 0223     		movs	r3, #2
 324 0042 D370     		strb	r3, [r2, #3]
 588:Modules/include/MAVLink/common/../mavlink_helpers.h **** 			rxmsg->magic = c;
 325              		.loc 3 588 4 is_stmt 1 view .LVU62
 588:Modules/include/MAVLink/common/../mavlink_helpers.h **** 			rxmsg->magic = c;
 326              		.loc 3 588 15 is_stmt 0 view .LVU63
 327 0044 AA4B     		ldr	r3, .L182+4
 328 0046 0021     		movs	r1, #0
 329 0048 D970     		strb	r1, [r3, #3]
 589:Modules/include/MAVLink/common/../mavlink_helpers.h ****                         status->flags &= ~MAVLINK_STATUS_FLAG_IN_MAVLINK1;
 330              		.loc 3 589 4 is_stmt 1 view .LVU64
 589:Modules/include/MAVLink/common/../mavlink_helpers.h ****                         status->flags &= ~MAVLINK_STATUS_FLAG_IN_MAVLINK1;
 331              		.loc 3 589 17 is_stmt 0 view .LVU65
 332 004a 83F802B0 		strb	fp, [r3, #2]
 590:Modules/include/MAVLink/common/../mavlink_helpers.h **** 			mavlink_start_checksum(rxmsg);
 333              		.loc 3 590 25 is_stmt 1 view .LVU66
 590:Modules/include/MAVLink/common/../mavlink_helpers.h **** 			mavlink_start_checksum(rxmsg);
 334              		.loc 3 590 39 is_stmt 0 view .LVU67
 335 004e 117B     		ldrb	r1, [r2, #12]	@ zero_extendqisi2
 336 0050 21F00101 		bic	r1, r1, #1
 337 0054 1173     		strb	r1, [r2, #12]
 591:Modules/include/MAVLink/common/../mavlink_helpers.h **** 		} else if (c == MAVLINK_STX_MAVLINK1)
 338              		.loc 3 591 4 is_stmt 1 view .LVU68
 339              	.LVL24:
 340              	.LBB221:
 341              	.LBI221:
 481:Modules/include/MAVLink/common/../mavlink_helpers.h **** {
 342              		.loc 3 481 21 view .LVU69
 343              	.LBB222:
 483:Modules/include/MAVLink/common/../mavlink_helpers.h **** 	crc_init(&crcTmp);
 344              		.loc 3 483 2 view .LVU70
 484:Modules/include/MAVLink/common/../mavlink_helpers.h **** 	msg->checksum = crcTmp;
 345              		.loc 3 484 2 view .LVU71
 484:Modules/include/MAVLink/common/../mavlink_helpers.h **** 	msg->checksum = crcTmp;
 346              		.loc 3 484 2 is_stmt 0 view .LVU72
 347              	.LBE222:
 348              	.LBE221:
 349              	.LBE341:
 350              	.LBE344:
 351              	.LBE347:
 352              	.LBE363:
 353              	.LBE370:
 354              	.LBE377:
 355              		.loc 4 54 9 is_stmt 1 view .LVU73
 356              	.LBB378:
 357              	.LBB371:
 358              	.LBB364:
 359              	.LBB348:
 360              	.LBB345:
 361              	.LBB342:
 362              	.LBB224:
 363              	.LBB223:
 485:Modules/include/MAVLink/common/../mavlink_helpers.h **** }
ARM GAS  C:\Users\luoha\AppData\Local\Temp\ccarQJQt.s 			page 33


 364              		.loc 3 485 2 view .LVU74
 485:Modules/include/MAVLink/common/../mavlink_helpers.h **** }
 365              		.loc 3 485 16 is_stmt 0 view .LVU75
 366 0056 4FF6FF72 		movw	r2, #65535
 367 005a 1A80     		strh	r2, [r3]	@ movhi
 368              	.LVL25:
 486:Modules/include/MAVLink/common/../mavlink_helpers.h **** 
 369              		.loc 3 486 1 view .LVU76
 370 005c 5DE0     		b	.L9
 371              	.LVL26:
 372              	.L23:
 486:Modules/include/MAVLink/common/../mavlink_helpers.h **** 
 373              		.loc 3 486 1 view .LVU77
 374              	.LBE223:
 375              	.LBE224:
 599:Modules/include/MAVLink/common/../mavlink_helpers.h **** 		}
 600:Modules/include/MAVLink/common/../mavlink_helpers.h **** 		break;
 601:Modules/include/MAVLink/common/../mavlink_helpers.h **** 
 602:Modules/include/MAVLink/common/../mavlink_helpers.h **** 	case MAVLINK_PARSE_STATE_GOT_STX:
 603:Modules/include/MAVLink/common/../mavlink_helpers.h **** 			if (status->msg_received 
 376              		.loc 3 603 4 is_stmt 1 view .LVU78
 604:Modules/include/MAVLink/common/../mavlink_helpers.h **** /* Support shorter buffers than the
 605:Modules/include/MAVLink/common/../mavlink_helpers.h ****    default maximum packet size */
 606:Modules/include/MAVLink/common/../mavlink_helpers.h **** #if (MAVLINK_MAX_PAYLOAD_LEN < 255)
 607:Modules/include/MAVLink/common/../mavlink_helpers.h **** 				|| c > MAVLINK_MAX_PAYLOAD_LEN
 608:Modules/include/MAVLink/common/../mavlink_helpers.h **** #endif
 609:Modules/include/MAVLink/common/../mavlink_helpers.h **** 				)
 610:Modules/include/MAVLink/common/../mavlink_helpers.h **** 		{
 611:Modules/include/MAVLink/common/../mavlink_helpers.h **** 			status->buffer_overrun++;
 612:Modules/include/MAVLink/common/../mavlink_helpers.h **** 			_mav_parse_error(status);
 613:Modules/include/MAVLink/common/../mavlink_helpers.h **** 			status->msg_received = 0;
 614:Modules/include/MAVLink/common/../mavlink_helpers.h **** 			status->parse_state = MAVLINK_PARSE_STATE_IDLE;
 615:Modules/include/MAVLink/common/../mavlink_helpers.h **** 		}
 616:Modules/include/MAVLink/common/../mavlink_helpers.h **** 		else
 617:Modules/include/MAVLink/common/../mavlink_helpers.h **** 		{
 618:Modules/include/MAVLink/common/../mavlink_helpers.h **** 			// NOT counting STX, LENGTH, SEQ, SYSID, COMPID, MSGID, CRC1 and CRC2
 619:Modules/include/MAVLink/common/../mavlink_helpers.h **** 			rxmsg->len = c;
 377              		.loc 3 619 4 view .LVU79
 378              		.loc 3 619 15 is_stmt 0 view .LVU80
 379 005e A449     		ldr	r1, .L182+4
 380 0060 81F803B0 		strb	fp, [r1, #3]
 620:Modules/include/MAVLink/common/../mavlink_helpers.h **** 			status->packet_idx = 0;
 381              		.loc 3 620 4 is_stmt 1 view .LVU81
 382              		.loc 3 620 23 is_stmt 0 view .LVU82
 383 0064 A148     		ldr	r0, .L182
 384 0066 0023     		movs	r3, #0
 385 0068 0371     		strb	r3, [r0, #4]
 621:Modules/include/MAVLink/common/../mavlink_helpers.h **** 			mavlink_update_checksum(rxmsg, c);
 386              		.loc 3 621 4 is_stmt 1 view .LVU83
 387              	.LVL27:
 388              	.LBB225:
 389              	.LBI225:
 488:Modules/include/MAVLink/common/../mavlink_helpers.h **** {
 390              		.loc 3 488 21 view .LVU84
 391              	.LBB226:
 490:Modules/include/MAVLink/common/../mavlink_helpers.h **** 	crc_accumulate(c, &checksum);
 392              		.loc 3 490 2 view .LVU85
ARM GAS  C:\Users\luoha\AppData\Local\Temp\ccarQJQt.s 			page 34


 490:Modules/include/MAVLink/common/../mavlink_helpers.h **** 	crc_accumulate(c, &checksum);
 393              		.loc 3 490 25 is_stmt 0 view .LVU86
 394 006a 0B88     		ldrh	r3, [r1]
 395              	.LVL28:
 491:Modules/include/MAVLink/common/../mavlink_helpers.h **** 	msg->checksum = checksum;
 396              		.loc 3 491 2 is_stmt 1 view .LVU87
 397              	.LBB227:
 398              	.LBI227:
  35:Modules/include/MAVLink/common/../checksum.h **** {
 399              		.loc 4 35 20 view .LVU88
 400              	.LBB228:
  38:Modules/include/MAVLink/common/../checksum.h **** 
 401              		.loc 4 38 9 view .LVU89
  40:Modules/include/MAVLink/common/../checksum.h ****         tmp ^= (tmp<<4);
 402              		.loc 4 40 9 view .LVU90
  40:Modules/include/MAVLink/common/../checksum.h ****         tmp ^= (tmp<<4);
 403              		.loc 4 40 22 is_stmt 0 view .LVU91
 404 006c DAB2     		uxtb	r2, r3
  40:Modules/include/MAVLink/common/../checksum.h ****         tmp ^= (tmp<<4);
 405              		.loc 4 40 13 view .LVU92
 406 006e 8BEA0202 		eor	r2, fp, r2
 407              	.LVL29:
  41:Modules/include/MAVLink/common/../checksum.h ****         *crcAccum = (*crcAccum>>8) ^ (tmp<<8) ^ (tmp <<3) ^ (tmp>>4);
 408              		.loc 4 41 9 is_stmt 1 view .LVU93
  41:Modules/include/MAVLink/common/../checksum.h ****         *crcAccum = (*crcAccum>>8) ^ (tmp<<8) ^ (tmp <<3) ^ (tmp>>4);
 409              		.loc 4 41 13 is_stmt 0 view .LVU94
 410 0072 82EA0212 		eor	r2, r2, r2, lsl #4
 411              	.LVL30:
  41:Modules/include/MAVLink/common/../checksum.h ****         *crcAccum = (*crcAccum>>8) ^ (tmp<<8) ^ (tmp <<3) ^ (tmp>>4);
 412              		.loc 4 41 13 view .LVU95
 413 0076 D2B2     		uxtb	r2, r2
 414              	.LVL31:
  42:Modules/include/MAVLink/common/../checksum.h **** }
 415              		.loc 4 42 9 is_stmt 1 view .LVU96
  42:Modules/include/MAVLink/common/../checksum.h **** }
 416              		.loc 4 42 36 is_stmt 0 view .LVU97
 417 0078 1B0A     		lsrs	r3, r3, #8
 418              	.LVL32:
  42:Modules/include/MAVLink/common/../checksum.h **** }
 419              		.loc 4 42 36 view .LVU98
 420 007a 43EA0223 		orr	r3, r3, r2, lsl #8
 421 007e 1BB2     		sxth	r3, r3
  42:Modules/include/MAVLink/common/../checksum.h **** }
 422              		.loc 4 42 47 view .LVU99
 423 0080 83EAC203 		eor	r3, r3, r2, lsl #3
  42:Modules/include/MAVLink/common/../checksum.h **** }
 424              		.loc 4 42 59 view .LVU100
 425 0084 83EA1213 		eor	r3, r3, r2, lsr #4
 426              	.LVL33:
  42:Modules/include/MAVLink/common/../checksum.h **** }
 427              		.loc 4 42 59 view .LVU101
 428              	.LBE228:
 429              	.LBE227:
 492:Modules/include/MAVLink/common/../mavlink_helpers.h **** }
 430              		.loc 3 492 2 is_stmt 1 view .LVU102
 492:Modules/include/MAVLink/common/../mavlink_helpers.h **** }
 431              		.loc 3 492 16 is_stmt 0 view .LVU103
ARM GAS  C:\Users\luoha\AppData\Local\Temp\ccarQJQt.s 			page 35


 432 0088 0B80     		strh	r3, [r1]	@ movhi
 433              	.LVL34:
 492:Modules/include/MAVLink/common/../mavlink_helpers.h **** }
 434              		.loc 3 492 16 view .LVU104
 435              	.LBE226:
 436              	.LBE225:
 622:Modules/include/MAVLink/common/../mavlink_helpers.h ****                         if (status->flags & MAVLINK_STATUS_FLAG_IN_MAVLINK1) {
 437              		.loc 3 622 25 is_stmt 1 view .LVU105
 438              		.loc 3 622 35 is_stmt 0 view .LVU106
 439 008a 037B     		ldrb	r3, [r0, #12]	@ zero_extendqisi2
 440              		.loc 3 622 28 view .LVU107
 441 008c 13F0010F 		tst	r3, #1
 442 0090 05D0     		beq	.L26
 623:Modules/include/MAVLink/common/../mavlink_helpers.h ****                             rxmsg->incompat_flags = 0;
 443              		.loc 3 623 29 is_stmt 1 view .LVU108
 444              		.loc 3 623 51 is_stmt 0 view .LVU109
 445 0092 0022     		movs	r2, #0
 446 0094 0A71     		strb	r2, [r1, #4]
 624:Modules/include/MAVLink/common/../mavlink_helpers.h ****                             rxmsg->compat_flags = 0;
 447              		.loc 3 624 29 is_stmt 1 view .LVU110
 448              		.loc 3 624 49 is_stmt 0 view .LVU111
 449 0096 4A71     		strb	r2, [r1, #5]
 625:Modules/include/MAVLink/common/../mavlink_helpers.h ****                             status->parse_state = MAVLINK_PARSE_STATE_GOT_COMPAT_FLAGS;
 450              		.loc 3 625 29 is_stmt 1 view .LVU112
 451              		.loc 3 625 49 is_stmt 0 view .LVU113
 452 0098 0522     		movs	r2, #5
 453 009a C270     		strb	r2, [r0, #3]
 454 009c 3DE0     		b	.L9
 455              	.L26:
 626:Modules/include/MAVLink/common/../mavlink_helpers.h ****                         } else {
 627:Modules/include/MAVLink/common/../mavlink_helpers.h ****                             status->parse_state = MAVLINK_PARSE_STATE_GOT_LENGTH;
 456              		.loc 3 627 29 is_stmt 1 view .LVU114
 457              		.loc 3 627 49 is_stmt 0 view .LVU115
 458 009e 934B     		ldr	r3, .L182
 459 00a0 0322     		movs	r2, #3
 460 00a2 DA70     		strb	r2, [r3, #3]
 461 00a4 39E0     		b	.L9
 462              	.L22:
 628:Modules/include/MAVLink/common/../mavlink_helpers.h ****                         }
 629:Modules/include/MAVLink/common/../mavlink_helpers.h **** 		}
 630:Modules/include/MAVLink/common/../mavlink_helpers.h **** 		break;
 631:Modules/include/MAVLink/common/../mavlink_helpers.h **** 
 632:Modules/include/MAVLink/common/../mavlink_helpers.h **** 	case MAVLINK_PARSE_STATE_GOT_LENGTH:
 633:Modules/include/MAVLink/common/../mavlink_helpers.h **** 		rxmsg->incompat_flags = c;
 463              		.loc 3 633 3 is_stmt 1 view .LVU116
 464              		.loc 3 633 25 is_stmt 0 view .LVU117
 465 00a6 924B     		ldr	r3, .L182+4
 466 00a8 83F804B0 		strb	fp, [r3, #4]
 634:Modules/include/MAVLink/common/../mavlink_helpers.h **** 		if ((rxmsg->incompat_flags & ~MAVLINK_IFLAG_MASK) != 0) {
 467              		.loc 3 634 3 is_stmt 1 view .LVU118
 468              		.loc 3 634 6 is_stmt 0 view .LVU119
 469 00ac 3BF00103 		bics	r3, fp, #1
 470 00b0 08D0     		beq	.L27
 635:Modules/include/MAVLink/common/../mavlink_helpers.h **** 			// message includes an incompatible feature flag
 636:Modules/include/MAVLink/common/../mavlink_helpers.h **** 			_mav_parse_error(status);
 471              		.loc 3 636 4 is_stmt 1 view .LVU120
 472              	.LVL35:
ARM GAS  C:\Users\luoha\AppData\Local\Temp\ccarQJQt.s 			page 36


 473              	.LBB229:
 474              	.LBI229:
 291:Modules/include/MAVLink/common/../mavlink_helpers.h **** {
 475              		.loc 3 291 20 view .LVU121
 476              	.LBB230:
 293:Modules/include/MAVLink/common/../mavlink_helpers.h **** }
 477              		.loc 3 293 5 view .LVU122
 293:Modules/include/MAVLink/common/../mavlink_helpers.h **** }
 478              		.loc 3 293 11 is_stmt 0 view .LVU123
 479 00b2 8E4B     		ldr	r3, .L182
 480 00b4 9A78     		ldrb	r2, [r3, #2]	@ zero_extendqisi2
 293:Modules/include/MAVLink/common/../mavlink_helpers.h **** }
 481              		.loc 3 293 24 view .LVU124
 482 00b6 0132     		adds	r2, r2, #1
 483 00b8 9A70     		strb	r2, [r3, #2]
 484              	.LVL36:
 293:Modules/include/MAVLink/common/../mavlink_helpers.h **** }
 485              		.loc 3 293 24 view .LVU125
 486              	.LBE230:
 487              	.LBE229:
 637:Modules/include/MAVLink/common/../mavlink_helpers.h **** 			status->msg_received = 0;
 488              		.loc 3 637 4 is_stmt 1 view .LVU126
 489              		.loc 3 637 25 is_stmt 0 view .LVU127
 490 00ba 0022     		movs	r2, #0
 491 00bc 1A70     		strb	r2, [r3]
 638:Modules/include/MAVLink/common/../mavlink_helpers.h **** 			status->parse_state = MAVLINK_PARSE_STATE_IDLE;
 492              		.loc 3 638 4 is_stmt 1 view .LVU128
 493              		.loc 3 638 24 is_stmt 0 view .LVU129
 494 00be 0122     		movs	r2, #1
 495 00c0 DA70     		strb	r2, [r3, #3]
 639:Modules/include/MAVLink/common/../mavlink_helpers.h **** 			break;
 496              		.loc 3 639 4 is_stmt 1 view .LVU130
 497 00c2 2AE0     		b	.L9
 498              	.L27:
 640:Modules/include/MAVLink/common/../mavlink_helpers.h **** 		}
 641:Modules/include/MAVLink/common/../mavlink_helpers.h **** 		mavlink_update_checksum(rxmsg, c);
 499              		.loc 3 641 3 view .LVU131
 500              	.LVL37:
 501              	.LBB231:
 502              	.LBI231:
 488:Modules/include/MAVLink/common/../mavlink_helpers.h **** {
 503              		.loc 3 488 21 view .LVU132
 504              	.LBB232:
 490:Modules/include/MAVLink/common/../mavlink_helpers.h **** 	crc_accumulate(c, &checksum);
 505              		.loc 3 490 2 view .LVU133
 490:Modules/include/MAVLink/common/../mavlink_helpers.h **** 	crc_accumulate(c, &checksum);
 506              		.loc 3 490 25 is_stmt 0 view .LVU134
 507 00c4 8A49     		ldr	r1, .L182+4
 508 00c6 0B88     		ldrh	r3, [r1]
 509              	.LVL38:
 491:Modules/include/MAVLink/common/../mavlink_helpers.h **** 	msg->checksum = checksum;
 510              		.loc 3 491 2 is_stmt 1 view .LVU135
 511              	.LBB233:
 512              	.LBI233:
  35:Modules/include/MAVLink/common/../checksum.h **** {
 513              		.loc 4 35 20 view .LVU136
 514              	.LBB234:
ARM GAS  C:\Users\luoha\AppData\Local\Temp\ccarQJQt.s 			page 37


  38:Modules/include/MAVLink/common/../checksum.h **** 
 515              		.loc 4 38 9 view .LVU137
  40:Modules/include/MAVLink/common/../checksum.h ****         tmp ^= (tmp<<4);
 516              		.loc 4 40 9 view .LVU138
  40:Modules/include/MAVLink/common/../checksum.h ****         tmp ^= (tmp<<4);
 517              		.loc 4 40 22 is_stmt 0 view .LVU139
 518 00c8 DAB2     		uxtb	r2, r3
  40:Modules/include/MAVLink/common/../checksum.h ****         tmp ^= (tmp<<4);
 519              		.loc 4 40 13 view .LVU140
 520 00ca 8BEA0202 		eor	r2, fp, r2
 521              	.LVL39:
  41:Modules/include/MAVLink/common/../checksum.h ****         *crcAccum = (*crcAccum>>8) ^ (tmp<<8) ^ (tmp <<3) ^ (tmp>>4);
 522              		.loc 4 41 9 is_stmt 1 view .LVU141
  41:Modules/include/MAVLink/common/../checksum.h ****         *crcAccum = (*crcAccum>>8) ^ (tmp<<8) ^ (tmp <<3) ^ (tmp>>4);
 523              		.loc 4 41 13 is_stmt 0 view .LVU142
 524 00ce 82EA0212 		eor	r2, r2, r2, lsl #4
 525              	.LVL40:
  41:Modules/include/MAVLink/common/../checksum.h ****         *crcAccum = (*crcAccum>>8) ^ (tmp<<8) ^ (tmp <<3) ^ (tmp>>4);
 526              		.loc 4 41 13 view .LVU143
 527 00d2 D2B2     		uxtb	r2, r2
 528              	.LVL41:
  42:Modules/include/MAVLink/common/../checksum.h **** }
 529              		.loc 4 42 9 is_stmt 1 view .LVU144
  42:Modules/include/MAVLink/common/../checksum.h **** }
 530              		.loc 4 42 36 is_stmt 0 view .LVU145
 531 00d4 1B0A     		lsrs	r3, r3, #8
 532              	.LVL42:
  42:Modules/include/MAVLink/common/../checksum.h **** }
 533              		.loc 4 42 36 view .LVU146
 534 00d6 43EA0223 		orr	r3, r3, r2, lsl #8
 535 00da 1BB2     		sxth	r3, r3
  42:Modules/include/MAVLink/common/../checksum.h **** }
 536              		.loc 4 42 47 view .LVU147
 537 00dc 83EAC203 		eor	r3, r3, r2, lsl #3
  42:Modules/include/MAVLink/common/../checksum.h **** }
 538              		.loc 4 42 59 view .LVU148
 539 00e0 83EA1213 		eor	r3, r3, r2, lsr #4
 540              	.LVL43:
  42:Modules/include/MAVLink/common/../checksum.h **** }
 541              		.loc 4 42 59 view .LVU149
 542              	.LBE234:
 543              	.LBE233:
 492:Modules/include/MAVLink/common/../mavlink_helpers.h **** }
 544              		.loc 3 492 2 is_stmt 1 view .LVU150
 492:Modules/include/MAVLink/common/../mavlink_helpers.h **** }
 545              		.loc 3 492 16 is_stmt 0 view .LVU151
 546 00e4 0B80     		strh	r3, [r1]	@ movhi
 547              	.LVL44:
 492:Modules/include/MAVLink/common/../mavlink_helpers.h **** }
 548              		.loc 3 492 16 view .LVU152
 549              	.LBE232:
 550              	.LBE231:
 642:Modules/include/MAVLink/common/../mavlink_helpers.h **** 		status->parse_state = MAVLINK_PARSE_STATE_GOT_INCOMPAT_FLAGS;
 551              		.loc 3 642 3 is_stmt 1 view .LVU153
 552              		.loc 3 642 23 is_stmt 0 view .LVU154
 553 00e6 814B     		ldr	r3, .L182
 554 00e8 0422     		movs	r2, #4
ARM GAS  C:\Users\luoha\AppData\Local\Temp\ccarQJQt.s 			page 38


 555 00ea DA70     		strb	r2, [r3, #3]
 643:Modules/include/MAVLink/common/../mavlink_helpers.h **** 		break;
 556              		.loc 3 643 3 is_stmt 1 view .LVU155
 557 00ec 15E0     		b	.L9
 558              	.L21:
 644:Modules/include/MAVLink/common/../mavlink_helpers.h **** 
 645:Modules/include/MAVLink/common/../mavlink_helpers.h **** 	case MAVLINK_PARSE_STATE_GOT_INCOMPAT_FLAGS:
 646:Modules/include/MAVLink/common/../mavlink_helpers.h **** 		rxmsg->compat_flags = c;
 559              		.loc 3 646 3 view .LVU156
 560              		.loc 3 646 23 is_stmt 0 view .LVU157
 561 00ee 8049     		ldr	r1, .L182+4
 562 00f0 81F805B0 		strb	fp, [r1, #5]
 647:Modules/include/MAVLink/common/../mavlink_helpers.h **** 		mavlink_update_checksum(rxmsg, c);
 563              		.loc 3 647 3 is_stmt 1 view .LVU158
 564              	.LVL45:
 565              	.LBB235:
 566              	.LBI235:
 488:Modules/include/MAVLink/common/../mavlink_helpers.h **** {
 567              		.loc 3 488 21 view .LVU159
 568              	.LBB236:
 490:Modules/include/MAVLink/common/../mavlink_helpers.h **** 	crc_accumulate(c, &checksum);
 569              		.loc 3 490 2 view .LVU160
 490:Modules/include/MAVLink/common/../mavlink_helpers.h **** 	crc_accumulate(c, &checksum);
 570              		.loc 3 490 25 is_stmt 0 view .LVU161
 571 00f4 0B88     		ldrh	r3, [r1]
 572              	.LVL46:
 491:Modules/include/MAVLink/common/../mavlink_helpers.h **** 	msg->checksum = checksum;
 573              		.loc 3 491 2 is_stmt 1 view .LVU162
 574              	.LBB237:
 575              	.LBI237:
  35:Modules/include/MAVLink/common/../checksum.h **** {
 576              		.loc 4 35 20 view .LVU163
 577              	.LBB238:
  38:Modules/include/MAVLink/common/../checksum.h **** 
 578              		.loc 4 38 9 view .LVU164
  40:Modules/include/MAVLink/common/../checksum.h ****         tmp ^= (tmp<<4);
 579              		.loc 4 40 9 view .LVU165
  40:Modules/include/MAVLink/common/../checksum.h ****         tmp ^= (tmp<<4);
 580              		.loc 4 40 22 is_stmt 0 view .LVU166
 581 00f6 DAB2     		uxtb	r2, r3
  40:Modules/include/MAVLink/common/../checksum.h ****         tmp ^= (tmp<<4);
 582              		.loc 4 40 13 view .LVU167
 583 00f8 8BEA0202 		eor	r2, fp, r2
 584              	.LVL47:
  41:Modules/include/MAVLink/common/../checksum.h ****         *crcAccum = (*crcAccum>>8) ^ (tmp<<8) ^ (tmp <<3) ^ (tmp>>4);
 585              		.loc 4 41 9 is_stmt 1 view .LVU168
  41:Modules/include/MAVLink/common/../checksum.h ****         *crcAccum = (*crcAccum>>8) ^ (tmp<<8) ^ (tmp <<3) ^ (tmp>>4);
 586              		.loc 4 41 13 is_stmt 0 view .LVU169
 587 00fc 82EA0212 		eor	r2, r2, r2, lsl #4
 588              	.LVL48:
  41:Modules/include/MAVLink/common/../checksum.h ****         *crcAccum = (*crcAccum>>8) ^ (tmp<<8) ^ (tmp <<3) ^ (tmp>>4);
 589              		.loc 4 41 13 view .LVU170
 590 0100 D2B2     		uxtb	r2, r2
 591              	.LVL49:
  42:Modules/include/MAVLink/common/../checksum.h **** }
 592              		.loc 4 42 9 is_stmt 1 view .LVU171
  42:Modules/include/MAVLink/common/../checksum.h **** }
ARM GAS  C:\Users\luoha\AppData\Local\Temp\ccarQJQt.s 			page 39


 593              		.loc 4 42 36 is_stmt 0 view .LVU172
 594 0102 1B0A     		lsrs	r3, r3, #8
 595              	.LVL50:
  42:Modules/include/MAVLink/common/../checksum.h **** }
 596              		.loc 4 42 36 view .LVU173
 597 0104 43EA0223 		orr	r3, r3, r2, lsl #8
 598 0108 1BB2     		sxth	r3, r3
  42:Modules/include/MAVLink/common/../checksum.h **** }
 599              		.loc 4 42 47 view .LVU174
 600 010a 83EAC203 		eor	r3, r3, r2, lsl #3
  42:Modules/include/MAVLink/common/../checksum.h **** }
 601              		.loc 4 42 59 view .LVU175
 602 010e 83EA1213 		eor	r3, r3, r2, lsr #4
 603              	.LVL51:
  42:Modules/include/MAVLink/common/../checksum.h **** }
 604              		.loc 4 42 59 view .LVU176
 605              	.LBE238:
 606              	.LBE237:
 492:Modules/include/MAVLink/common/../mavlink_helpers.h **** }
 607              		.loc 3 492 2 is_stmt 1 view .LVU177
 492:Modules/include/MAVLink/common/../mavlink_helpers.h **** }
 608              		.loc 3 492 16 is_stmt 0 view .LVU178
 609 0112 0B80     		strh	r3, [r1]	@ movhi
 610              	.LVL52:
 492:Modules/include/MAVLink/common/../mavlink_helpers.h **** }
 611              		.loc 3 492 16 view .LVU179
 612              	.LBE236:
 613              	.LBE235:
 648:Modules/include/MAVLink/common/../mavlink_helpers.h **** 		status->parse_state = MAVLINK_PARSE_STATE_GOT_COMPAT_FLAGS;
 614              		.loc 3 648 3 is_stmt 1 view .LVU180
 615              		.loc 3 648 23 is_stmt 0 view .LVU181
 616 0114 754B     		ldr	r3, .L182
 617 0116 0522     		movs	r2, #5
 618 0118 DA70     		strb	r2, [r3, #3]
 649:Modules/include/MAVLink/common/../mavlink_helpers.h **** 		break;
 619              		.loc 3 649 3 is_stmt 1 view .LVU182
 620              	.LVL53:
 621              	.L9:
 650:Modules/include/MAVLink/common/../mavlink_helpers.h **** 
 651:Modules/include/MAVLink/common/../mavlink_helpers.h **** 	case MAVLINK_PARSE_STATE_GOT_COMPAT_FLAGS:
 652:Modules/include/MAVLink/common/../mavlink_helpers.h **** 		rxmsg->seq = c;
 653:Modules/include/MAVLink/common/../mavlink_helpers.h **** 		mavlink_update_checksum(rxmsg, c);
 654:Modules/include/MAVLink/common/../mavlink_helpers.h **** 		status->parse_state = MAVLINK_PARSE_STATE_GOT_SEQ;
 655:Modules/include/MAVLink/common/../mavlink_helpers.h **** 		break;
 656:Modules/include/MAVLink/common/../mavlink_helpers.h ****                 
 657:Modules/include/MAVLink/common/../mavlink_helpers.h **** 	case MAVLINK_PARSE_STATE_GOT_SEQ:
 658:Modules/include/MAVLink/common/../mavlink_helpers.h **** 		rxmsg->sysid = c;
 659:Modules/include/MAVLink/common/../mavlink_helpers.h **** 		mavlink_update_checksum(rxmsg, c);
 660:Modules/include/MAVLink/common/../mavlink_helpers.h **** 		status->parse_state = MAVLINK_PARSE_STATE_GOT_SYSID;
 661:Modules/include/MAVLink/common/../mavlink_helpers.h **** 		break;
 662:Modules/include/MAVLink/common/../mavlink_helpers.h **** 
 663:Modules/include/MAVLink/common/../mavlink_helpers.h **** 	case MAVLINK_PARSE_STATE_GOT_SYSID:
 664:Modules/include/MAVLink/common/../mavlink_helpers.h **** 		rxmsg->compid = c;
 665:Modules/include/MAVLink/common/../mavlink_helpers.h **** 		mavlink_update_checksum(rxmsg, c);
 666:Modules/include/MAVLink/common/../mavlink_helpers.h ****                 status->parse_state = MAVLINK_PARSE_STATE_GOT_COMPID;
 667:Modules/include/MAVLink/common/../mavlink_helpers.h **** 		break;
 668:Modules/include/MAVLink/common/../mavlink_helpers.h **** 
ARM GAS  C:\Users\luoha\AppData\Local\Temp\ccarQJQt.s 			page 40


 669:Modules/include/MAVLink/common/../mavlink_helpers.h **** 	case MAVLINK_PARSE_STATE_GOT_COMPID:
 670:Modules/include/MAVLink/common/../mavlink_helpers.h **** 		rxmsg->msgid = c;
 671:Modules/include/MAVLink/common/../mavlink_helpers.h **** 		mavlink_update_checksum(rxmsg, c);
 672:Modules/include/MAVLink/common/../mavlink_helpers.h **** 		if (status->flags & MAVLINK_STATUS_FLAG_IN_MAVLINK1) {
 673:Modules/include/MAVLink/common/../mavlink_helpers.h **** 			if(rxmsg->len > 0) {
 674:Modules/include/MAVLink/common/../mavlink_helpers.h **** 				status->parse_state = MAVLINK_PARSE_STATE_GOT_MSGID3;
 675:Modules/include/MAVLink/common/../mavlink_helpers.h **** 			} else {
 676:Modules/include/MAVLink/common/../mavlink_helpers.h **** 				status->parse_state = MAVLINK_PARSE_STATE_GOT_PAYLOAD;
 677:Modules/include/MAVLink/common/../mavlink_helpers.h **** 			}
 678:Modules/include/MAVLink/common/../mavlink_helpers.h **** #ifdef MAVLINK_CHECK_MESSAGE_LENGTH
 679:Modules/include/MAVLink/common/../mavlink_helpers.h **** 			if (rxmsg->len < mavlink_min_message_length(rxmsg) ||
 680:Modules/include/MAVLink/common/../mavlink_helpers.h **** 				rxmsg->len > mavlink_max_message_length(rxmsg)) {
 681:Modules/include/MAVLink/common/../mavlink_helpers.h **** 				_mav_parse_error(status);
 682:Modules/include/MAVLink/common/../mavlink_helpers.h **** 				status->parse_state = MAVLINK_PARSE_STATE_IDLE;
 683:Modules/include/MAVLink/common/../mavlink_helpers.h **** 				break;
 684:Modules/include/MAVLink/common/../mavlink_helpers.h **** 			}
 685:Modules/include/MAVLink/common/../mavlink_helpers.h **** #endif
 686:Modules/include/MAVLink/common/../mavlink_helpers.h **** 		} else {
 687:Modules/include/MAVLink/common/../mavlink_helpers.h **** 			status->parse_state = MAVLINK_PARSE_STATE_GOT_MSGID1;
 688:Modules/include/MAVLink/common/../mavlink_helpers.h **** 		}
 689:Modules/include/MAVLink/common/../mavlink_helpers.h **** 		break;
 690:Modules/include/MAVLink/common/../mavlink_helpers.h **** 
 691:Modules/include/MAVLink/common/../mavlink_helpers.h **** 	case MAVLINK_PARSE_STATE_GOT_MSGID1:
 692:Modules/include/MAVLink/common/../mavlink_helpers.h **** 		rxmsg->msgid |= c<<8;
 693:Modules/include/MAVLink/common/../mavlink_helpers.h **** 		mavlink_update_checksum(rxmsg, c);
 694:Modules/include/MAVLink/common/../mavlink_helpers.h **** 		status->parse_state = MAVLINK_PARSE_STATE_GOT_MSGID2;
 695:Modules/include/MAVLink/common/../mavlink_helpers.h **** 		break;
 696:Modules/include/MAVLink/common/../mavlink_helpers.h **** 
 697:Modules/include/MAVLink/common/../mavlink_helpers.h **** 	case MAVLINK_PARSE_STATE_GOT_MSGID2:
 698:Modules/include/MAVLink/common/../mavlink_helpers.h **** 		rxmsg->msgid |= ((uint32_t)c)<<16;
 699:Modules/include/MAVLink/common/../mavlink_helpers.h **** 		mavlink_update_checksum(rxmsg, c);
 700:Modules/include/MAVLink/common/../mavlink_helpers.h **** 		if(rxmsg->len > 0){
 701:Modules/include/MAVLink/common/../mavlink_helpers.h **** 			status->parse_state = MAVLINK_PARSE_STATE_GOT_MSGID3;
 702:Modules/include/MAVLink/common/../mavlink_helpers.h **** 		} else {
 703:Modules/include/MAVLink/common/../mavlink_helpers.h **** 			status->parse_state = MAVLINK_PARSE_STATE_GOT_PAYLOAD;
 704:Modules/include/MAVLink/common/../mavlink_helpers.h **** 		}
 705:Modules/include/MAVLink/common/../mavlink_helpers.h **** #ifdef MAVLINK_CHECK_MESSAGE_LENGTH
 706:Modules/include/MAVLink/common/../mavlink_helpers.h ****         if (rxmsg->len < mavlink_min_message_length(rxmsg) ||
 707:Modules/include/MAVLink/common/../mavlink_helpers.h ****             rxmsg->len > mavlink_max_message_length(rxmsg))
 708:Modules/include/MAVLink/common/../mavlink_helpers.h ****         {
 709:Modules/include/MAVLink/common/../mavlink_helpers.h **** 			_mav_parse_error(status);
 710:Modules/include/MAVLink/common/../mavlink_helpers.h **** 			status->parse_state = MAVLINK_PARSE_STATE_IDLE;
 711:Modules/include/MAVLink/common/../mavlink_helpers.h **** 			break;
 712:Modules/include/MAVLink/common/../mavlink_helpers.h ****         }
 713:Modules/include/MAVLink/common/../mavlink_helpers.h **** #endif
 714:Modules/include/MAVLink/common/../mavlink_helpers.h **** 		break;
 715:Modules/include/MAVLink/common/../mavlink_helpers.h ****                 
 716:Modules/include/MAVLink/common/../mavlink_helpers.h **** 	case MAVLINK_PARSE_STATE_GOT_MSGID3:
 717:Modules/include/MAVLink/common/../mavlink_helpers.h **** 		_MAV_PAYLOAD_NON_CONST(rxmsg)[status->packet_idx++] = (char)c;
 718:Modules/include/MAVLink/common/../mavlink_helpers.h **** 		mavlink_update_checksum(rxmsg, c);
 719:Modules/include/MAVLink/common/../mavlink_helpers.h **** 		if (status->packet_idx == rxmsg->len)
 720:Modules/include/MAVLink/common/../mavlink_helpers.h **** 		{
 721:Modules/include/MAVLink/common/../mavlink_helpers.h **** 			status->parse_state = MAVLINK_PARSE_STATE_GOT_PAYLOAD;
 722:Modules/include/MAVLink/common/../mavlink_helpers.h **** 		}
 723:Modules/include/MAVLink/common/../mavlink_helpers.h **** 		break;
 724:Modules/include/MAVLink/common/../mavlink_helpers.h **** 
 725:Modules/include/MAVLink/common/../mavlink_helpers.h **** 	case MAVLINK_PARSE_STATE_GOT_PAYLOAD: {
ARM GAS  C:\Users\luoha\AppData\Local\Temp\ccarQJQt.s 			page 41


 726:Modules/include/MAVLink/common/../mavlink_helpers.h **** 		const mavlink_msg_entry_t *e = mavlink_get_msg_entry(rxmsg->msgid);
 727:Modules/include/MAVLink/common/../mavlink_helpers.h **** 		uint8_t crc_extra = e?e->crc_extra:0;
 728:Modules/include/MAVLink/common/../mavlink_helpers.h **** 		mavlink_update_checksum(rxmsg, crc_extra);
 729:Modules/include/MAVLink/common/../mavlink_helpers.h **** 		if (c != (rxmsg->checksum & 0xFF)) {
 730:Modules/include/MAVLink/common/../mavlink_helpers.h **** 			status->parse_state = MAVLINK_PARSE_STATE_GOT_BAD_CRC1;
 731:Modules/include/MAVLink/common/../mavlink_helpers.h **** 		} else {
 732:Modules/include/MAVLink/common/../mavlink_helpers.h **** 			status->parse_state = MAVLINK_PARSE_STATE_GOT_CRC1;
 733:Modules/include/MAVLink/common/../mavlink_helpers.h **** 		}
 734:Modules/include/MAVLink/common/../mavlink_helpers.h ****                 rxmsg->ck[0] = c;
 735:Modules/include/MAVLink/common/../mavlink_helpers.h **** 
 736:Modules/include/MAVLink/common/../mavlink_helpers.h **** 		// zero-fill the packet to cope with short incoming packets
 737:Modules/include/MAVLink/common/../mavlink_helpers.h ****                 if (e && status->packet_idx < e->max_msg_len) {
 738:Modules/include/MAVLink/common/../mavlink_helpers.h ****                         memset(&_MAV_PAYLOAD_NON_CONST(rxmsg)[status->packet_idx], 0, e->max_msg_le
 739:Modules/include/MAVLink/common/../mavlink_helpers.h **** 		}
 740:Modules/include/MAVLink/common/../mavlink_helpers.h **** 		break;
 741:Modules/include/MAVLink/common/../mavlink_helpers.h ****         }
 742:Modules/include/MAVLink/common/../mavlink_helpers.h **** 
 743:Modules/include/MAVLink/common/../mavlink_helpers.h **** 	case MAVLINK_PARSE_STATE_GOT_CRC1:
 744:Modules/include/MAVLink/common/../mavlink_helpers.h **** 	case MAVLINK_PARSE_STATE_GOT_BAD_CRC1:
 745:Modules/include/MAVLink/common/../mavlink_helpers.h **** 		if (status->parse_state == MAVLINK_PARSE_STATE_GOT_BAD_CRC1 || c != (rxmsg->checksum >> 8)) {
 746:Modules/include/MAVLink/common/../mavlink_helpers.h **** 			// got a bad CRC message
 747:Modules/include/MAVLink/common/../mavlink_helpers.h **** 			status->msg_received = MAVLINK_FRAMING_BAD_CRC;
 748:Modules/include/MAVLink/common/../mavlink_helpers.h **** 		} else {
 749:Modules/include/MAVLink/common/../mavlink_helpers.h **** 			// Successfully got message
 750:Modules/include/MAVLink/common/../mavlink_helpers.h **** 			status->msg_received = MAVLINK_FRAMING_OK;
 751:Modules/include/MAVLink/common/../mavlink_helpers.h **** 		}
 752:Modules/include/MAVLink/common/../mavlink_helpers.h **** 		rxmsg->ck[1] = c;
 753:Modules/include/MAVLink/common/../mavlink_helpers.h **** 
 754:Modules/include/MAVLink/common/../mavlink_helpers.h **** 		if (rxmsg->incompat_flags & MAVLINK_IFLAG_SIGNED) {
 755:Modules/include/MAVLink/common/../mavlink_helpers.h **** 			status->parse_state = MAVLINK_PARSE_STATE_SIGNATURE_WAIT;
 756:Modules/include/MAVLink/common/../mavlink_helpers.h **** 			status->signature_wait = MAVLINK_SIGNATURE_BLOCK_LEN;
 757:Modules/include/MAVLink/common/../mavlink_helpers.h **** 
 758:Modules/include/MAVLink/common/../mavlink_helpers.h **** 			// If the CRC is already wrong, don't overwrite msg_received,
 759:Modules/include/MAVLink/common/../mavlink_helpers.h **** 			// otherwise we can end up with garbage flagged as valid.
 760:Modules/include/MAVLink/common/../mavlink_helpers.h **** 			if (status->msg_received != MAVLINK_FRAMING_BAD_CRC) {
 761:Modules/include/MAVLink/common/../mavlink_helpers.h **** 				status->msg_received = MAVLINK_FRAMING_INCOMPLETE;
 762:Modules/include/MAVLink/common/../mavlink_helpers.h **** 			}
 763:Modules/include/MAVLink/common/../mavlink_helpers.h **** 		} else {
 764:Modules/include/MAVLink/common/../mavlink_helpers.h **** 			if (status->signing &&
 765:Modules/include/MAVLink/common/../mavlink_helpers.h **** 			   	(status->signing->accept_unsigned_callback == NULL ||
 766:Modules/include/MAVLink/common/../mavlink_helpers.h **** 			   	 !status->signing->accept_unsigned_callback(status, rxmsg->msgid))) {
 767:Modules/include/MAVLink/common/../mavlink_helpers.h **** 
 768:Modules/include/MAVLink/common/../mavlink_helpers.h **** 				// If the CRC is already wrong, don't overwrite msg_received.
 769:Modules/include/MAVLink/common/../mavlink_helpers.h **** 				if (status->msg_received != MAVLINK_FRAMING_BAD_CRC) {
 770:Modules/include/MAVLink/common/../mavlink_helpers.h **** 					status->msg_received = MAVLINK_FRAMING_BAD_SIGNATURE;
 771:Modules/include/MAVLink/common/../mavlink_helpers.h **** 				}
 772:Modules/include/MAVLink/common/../mavlink_helpers.h **** 			}
 773:Modules/include/MAVLink/common/../mavlink_helpers.h **** 			status->parse_state = MAVLINK_PARSE_STATE_IDLE;
 774:Modules/include/MAVLink/common/../mavlink_helpers.h **** 			if (r_message != NULL) {
 775:Modules/include/MAVLink/common/../mavlink_helpers.h **** 				memcpy(r_message, rxmsg, sizeof(mavlink_message_t));
 776:Modules/include/MAVLink/common/../mavlink_helpers.h **** 			}
 777:Modules/include/MAVLink/common/../mavlink_helpers.h **** 		}
 778:Modules/include/MAVLink/common/../mavlink_helpers.h **** 		break;
 779:Modules/include/MAVLink/common/../mavlink_helpers.h **** 	case MAVLINK_PARSE_STATE_SIGNATURE_WAIT:
 780:Modules/include/MAVLink/common/../mavlink_helpers.h **** 		rxmsg->signature[MAVLINK_SIGNATURE_BLOCK_LEN-status->signature_wait] = c;
 781:Modules/include/MAVLink/common/../mavlink_helpers.h **** 		status->signature_wait--;
 782:Modules/include/MAVLink/common/../mavlink_helpers.h **** 		if (status->signature_wait == 0) {
ARM GAS  C:\Users\luoha\AppData\Local\Temp\ccarQJQt.s 			page 42


 783:Modules/include/MAVLink/common/../mavlink_helpers.h **** 			// we have the whole signature, check it is OK
 784:Modules/include/MAVLink/common/../mavlink_helpers.h **** 			bool sig_ok = mavlink_signature_check(status->signing, status->signing_streams, rxmsg);
 785:Modules/include/MAVLink/common/../mavlink_helpers.h **** 			if (!sig_ok &&
 786:Modules/include/MAVLink/common/../mavlink_helpers.h **** 			   	(status->signing->accept_unsigned_callback &&
 787:Modules/include/MAVLink/common/../mavlink_helpers.h **** 			   	 status->signing->accept_unsigned_callback(status, rxmsg->msgid))) {
 788:Modules/include/MAVLink/common/../mavlink_helpers.h **** 				// accepted via application level override
 789:Modules/include/MAVLink/common/../mavlink_helpers.h **** 				sig_ok = true;
 790:Modules/include/MAVLink/common/../mavlink_helpers.h **** 			}
 791:Modules/include/MAVLink/common/../mavlink_helpers.h **** 			if (sig_ok) {
 792:Modules/include/MAVLink/common/../mavlink_helpers.h **** 				status->msg_received = MAVLINK_FRAMING_OK;
 793:Modules/include/MAVLink/common/../mavlink_helpers.h **** 			} else {
 794:Modules/include/MAVLink/common/../mavlink_helpers.h **** 				status->msg_received = MAVLINK_FRAMING_BAD_SIGNATURE;
 795:Modules/include/MAVLink/common/../mavlink_helpers.h **** 			}
 796:Modules/include/MAVLink/common/../mavlink_helpers.h **** 			status->parse_state = MAVLINK_PARSE_STATE_IDLE;
 797:Modules/include/MAVLink/common/../mavlink_helpers.h **** 			if (r_message !=NULL) {
 798:Modules/include/MAVLink/common/../mavlink_helpers.h **** 				memcpy(r_message, rxmsg, sizeof(mavlink_message_t));
 799:Modules/include/MAVLink/common/../mavlink_helpers.h **** 			}
 800:Modules/include/MAVLink/common/../mavlink_helpers.h **** 		}
 801:Modules/include/MAVLink/common/../mavlink_helpers.h **** 		break;
 802:Modules/include/MAVLink/common/../mavlink_helpers.h **** 	}
 803:Modules/include/MAVLink/common/../mavlink_helpers.h **** 
 804:Modules/include/MAVLink/common/../mavlink_helpers.h **** 	bufferIndex++;
 622              		.loc 3 804 2 view .LVU183
 805:Modules/include/MAVLink/common/../mavlink_helpers.h **** 	// If a message has been sucessfully decoded, check index
 806:Modules/include/MAVLink/common/../mavlink_helpers.h **** 	if (status->msg_received == MAVLINK_FRAMING_OK)
 623              		.loc 3 806 2 view .LVU184
 624              		.loc 3 806 12 is_stmt 0 view .LVU185
 625 011a 744B     		ldr	r3, .L182
 626 011c 1B78     		ldrb	r3, [r3]	@ zero_extendqisi2
 627              		.loc 3 806 5 view .LVU186
 628 011e 012B     		cmp	r3, #1
 629 0120 00F07087 		beq	.L150
 630              	.L122:
 807:Modules/include/MAVLink/common/../mavlink_helpers.h **** 	{
 808:Modules/include/MAVLink/common/../mavlink_helpers.h **** 		//while(status->current_seq != rxmsg->seq)
 809:Modules/include/MAVLink/common/../mavlink_helpers.h **** 		//{
 810:Modules/include/MAVLink/common/../mavlink_helpers.h **** 		//	status->packet_rx_drop_count++;
 811:Modules/include/MAVLink/common/../mavlink_helpers.h **** 		//               status->current_seq++;
 812:Modules/include/MAVLink/common/../mavlink_helpers.h **** 		//}
 813:Modules/include/MAVLink/common/../mavlink_helpers.h **** 		status->current_rx_seq = rxmsg->seq;
 814:Modules/include/MAVLink/common/../mavlink_helpers.h **** 		// Initial condition: If no packet has been received so far, drop count is undefined
 815:Modules/include/MAVLink/common/../mavlink_helpers.h **** 		if (status->packet_rx_success_count == 0) status->packet_rx_drop_count = 0;
 816:Modules/include/MAVLink/common/../mavlink_helpers.h **** 		// Count this packet as received
 817:Modules/include/MAVLink/common/../mavlink_helpers.h **** 		status->packet_rx_success_count++;
 818:Modules/include/MAVLink/common/../mavlink_helpers.h **** 	}
 819:Modules/include/MAVLink/common/../mavlink_helpers.h **** 
 820:Modules/include/MAVLink/common/../mavlink_helpers.h ****        if (r_message != NULL) {
 631              		.loc 3 820 8 is_stmt 1 view .LVU187
 821:Modules/include/MAVLink/common/../mavlink_helpers.h ****            r_message->len = rxmsg->len; // Provide visibility on how far we are into current msg
 632              		.loc 3 821 12 view .LVU188
 633              		.loc 3 821 34 is_stmt 0 view .LVU189
 634 0124 724B     		ldr	r3, .L182+4
 635 0126 DA78     		ldrb	r2, [r3, #3]	@ zero_extendqisi2
 636              		.loc 3 821 27 view .LVU190
 637 0128 724B     		ldr	r3, .L182+8
 638 012a DA70     		strb	r2, [r3, #3]
 822:Modules/include/MAVLink/common/../mavlink_helpers.h ****        }
ARM GAS  C:\Users\luoha\AppData\Local\Temp\ccarQJQt.s 			page 43


 823:Modules/include/MAVLink/common/../mavlink_helpers.h ****        if (r_mavlink_status != NULL) {	
 639              		.loc 3 823 8 is_stmt 1 view .LVU191
 824:Modules/include/MAVLink/common/../mavlink_helpers.h ****            r_mavlink_status->parse_state = status->parse_state;
 640              		.loc 3 824 12 view .LVU192
 641              		.loc 3 824 50 is_stmt 0 view .LVU193
 642 012c 6F4B     		ldr	r3, .L182
 643 012e D978     		ldrb	r1, [r3, #3]	@ zero_extendqisi2
 644              		.loc 3 824 42 view .LVU194
 645 0130 714A     		ldr	r2, .L182+12
 646 0132 D170     		strb	r1, [r2, #3]
 825:Modules/include/MAVLink/common/../mavlink_helpers.h ****            r_mavlink_status->packet_idx = status->packet_idx;
 647              		.loc 3 825 12 is_stmt 1 view .LVU195
 648              		.loc 3 825 49 is_stmt 0 view .LVU196
 649 0134 1979     		ldrb	r1, [r3, #4]	@ zero_extendqisi2
 650              		.loc 3 825 41 view .LVU197
 651 0136 1171     		strb	r1, [r2, #4]
 826:Modules/include/MAVLink/common/../mavlink_helpers.h ****            r_mavlink_status->current_rx_seq = status->current_rx_seq+1;
 652              		.loc 3 826 12 is_stmt 1 view .LVU198
 653              		.loc 3 826 53 is_stmt 0 view .LVU199
 654 0138 5979     		ldrb	r1, [r3, #5]	@ zero_extendqisi2
 655              		.loc 3 826 69 view .LVU200
 656 013a 0131     		adds	r1, r1, #1
 657              		.loc 3 826 45 view .LVU201
 658 013c 5171     		strb	r1, [r2, #5]
 827:Modules/include/MAVLink/common/../mavlink_helpers.h ****            r_mavlink_status->packet_rx_success_count = status->packet_rx_success_count;
 659              		.loc 3 827 12 is_stmt 1 view .LVU202
 660              		.loc 3 827 62 is_stmt 0 view .LVU203
 661 013e 1989     		ldrh	r1, [r3, #8]
 662              		.loc 3 827 54 view .LVU204
 663 0140 1181     		strh	r1, [r2, #8]	@ movhi
 828:Modules/include/MAVLink/common/../mavlink_helpers.h ****            r_mavlink_status->packet_rx_drop_count = status->parse_error;
 664              		.loc 3 828 12 is_stmt 1 view .LVU205
 665              		.loc 3 828 59 is_stmt 0 view .LVU206
 666 0142 9978     		ldrb	r1, [r3, #2]	@ zero_extendqisi2
 667              		.loc 3 828 51 view .LVU207
 668 0144 5181     		strh	r1, [r2, #10]	@ movhi
 829:Modules/include/MAVLink/common/../mavlink_helpers.h ****            r_mavlink_status->flags = status->flags;
 669              		.loc 3 829 12 is_stmt 1 view .LVU208
 670              		.loc 3 829 44 is_stmt 0 view .LVU209
 671 0146 197B     		ldrb	r1, [r3, #12]	@ zero_extendqisi2
 672              		.loc 3 829 36 view .LVU210
 673 0148 1173     		strb	r1, [r2, #12]
 830:Modules/include/MAVLink/common/../mavlink_helpers.h ****        }
 831:Modules/include/MAVLink/common/../mavlink_helpers.h ****        status->parse_error = 0;
 674              		.loc 3 831 8 is_stmt 1 view .LVU211
 675              		.loc 3 831 28 is_stmt 0 view .LVU212
 676 014a 0022     		movs	r2, #0
 677 014c 9A70     		strb	r2, [r3, #2]
 832:Modules/include/MAVLink/common/../mavlink_helpers.h **** 
 833:Modules/include/MAVLink/common/../mavlink_helpers.h **** 	if (status->msg_received == MAVLINK_FRAMING_BAD_CRC) {
 678              		.loc 3 833 2 is_stmt 1 view .LVU213
 679              		.loc 3 833 12 is_stmt 0 view .LVU214
 680 014e 1B78     		ldrb	r3, [r3]	@ zero_extendqisi2
 681              		.loc 3 833 5 view .LVU215
 682 0150 022B     		cmp	r3, #2
 683 0152 00F06587 		beq	.L151
 684              	.L124:
ARM GAS  C:\Users\luoha\AppData\Local\Temp\ccarQJQt.s 			page 44


 834:Modules/include/MAVLink/common/../mavlink_helpers.h **** 		/*
 835:Modules/include/MAVLink/common/../mavlink_helpers.h **** 		  the CRC came out wrong. We now need to overwrite the
 836:Modules/include/MAVLink/common/../mavlink_helpers.h **** 		  msg CRC with the one on the wire so that if the
 837:Modules/include/MAVLink/common/../mavlink_helpers.h **** 		  caller decides to forward the message anyway that
 838:Modules/include/MAVLink/common/../mavlink_helpers.h **** 		  mavlink_msg_to_send_buffer() won't overwrite the
 839:Modules/include/MAVLink/common/../mavlink_helpers.h **** 		  checksum
 840:Modules/include/MAVLink/common/../mavlink_helpers.h **** 		 */
 841:Modules/include/MAVLink/common/../mavlink_helpers.h ****             if (r_message != NULL) {
 842:Modules/include/MAVLink/common/../mavlink_helpers.h ****                 r_message->checksum = rxmsg->ck[0] | (rxmsg->ck[1]<<8);
 843:Modules/include/MAVLink/common/../mavlink_helpers.h ****             }
 844:Modules/include/MAVLink/common/../mavlink_helpers.h **** 	}
 845:Modules/include/MAVLink/common/../mavlink_helpers.h **** 
 846:Modules/include/MAVLink/common/../mavlink_helpers.h **** 	return status->msg_received;
 685              		.loc 3 846 2 is_stmt 1 view .LVU216
 686              		.loc 3 846 15 is_stmt 0 view .LVU217
 687 0156 654B     		ldr	r3, .L182
 688 0158 1A78     		ldrb	r2, [r3]	@ zero_extendqisi2
 689              	.LVL54:
 690              		.loc 3 846 15 view .LVU218
 691              	.LBE342:
 692              	.LBE345:
 693              	.LBE348:
 847:Modules/include/MAVLink/common/../mavlink_helpers.h **** }
 848:Modules/include/MAVLink/common/../mavlink_helpers.h **** 
 849:Modules/include/MAVLink/common/../mavlink_helpers.h **** /**
 850:Modules/include/MAVLink/common/../mavlink_helpers.h ****  * This is a convenience function which handles the complete MAVLink parsing.
 851:Modules/include/MAVLink/common/../mavlink_helpers.h ****  * the function will parse one byte at a time and return the complete packet once
 852:Modules/include/MAVLink/common/../mavlink_helpers.h ****  * it could be successfully decoded. This function will return 0, 1 or
 853:Modules/include/MAVLink/common/../mavlink_helpers.h ****  * 2 (MAVLINK_FRAMING_INCOMPLETE, MAVLINK_FRAMING_OK or MAVLINK_FRAMING_BAD_CRC)
 854:Modules/include/MAVLink/common/../mavlink_helpers.h ****  *
 855:Modules/include/MAVLink/common/../mavlink_helpers.h ****  * Messages are parsed into an internal buffer (one for each channel). When a complete
 856:Modules/include/MAVLink/common/../mavlink_helpers.h ****  * message is received it is copies into *r_message and the channel's status is
 857:Modules/include/MAVLink/common/../mavlink_helpers.h ****  * copied into *r_mavlink_status.
 858:Modules/include/MAVLink/common/../mavlink_helpers.h ****  *
 859:Modules/include/MAVLink/common/../mavlink_helpers.h ****  * @param chan     ID of the channel to be parsed.
 860:Modules/include/MAVLink/common/../mavlink_helpers.h ****  *                 A channel is not a physical message channel like a serial port, but a logical pa
 861:Modules/include/MAVLink/common/../mavlink_helpers.h ****  *                 the communication streams. COMM_NB is the limit for the number of channels
 862:Modules/include/MAVLink/common/../mavlink_helpers.h ****  *                 on MCU (e.g. ARM7), while COMM_NB_HIGH is the limit for the number of channels i
 863:Modules/include/MAVLink/common/../mavlink_helpers.h ****  * @param c        The char to parse
 864:Modules/include/MAVLink/common/../mavlink_helpers.h ****  *
 865:Modules/include/MAVLink/common/../mavlink_helpers.h ****  * @param r_message NULL if no message could be decoded, otherwise the message data
 866:Modules/include/MAVLink/common/../mavlink_helpers.h ****  * @param r_mavlink_status if a message was decoded, this is filled with the channel's stats
 867:Modules/include/MAVLink/common/../mavlink_helpers.h ****  * @return 0 if no message could be decoded, 1 on good message and CRC, 2 on bad CRC
 868:Modules/include/MAVLink/common/../mavlink_helpers.h ****  *
 869:Modules/include/MAVLink/common/../mavlink_helpers.h ****  * A typical use scenario of this function call is:
 870:Modules/include/MAVLink/common/../mavlink_helpers.h ****  *
 871:Modules/include/MAVLink/common/../mavlink_helpers.h ****  * @code
 872:Modules/include/MAVLink/common/../mavlink_helpers.h ****  * #include <mavlink.h>
 873:Modules/include/MAVLink/common/../mavlink_helpers.h ****  *
 874:Modules/include/MAVLink/common/../mavlink_helpers.h ****  * mavlink_status_t status;
 875:Modules/include/MAVLink/common/../mavlink_helpers.h ****  * mavlink_message_t msg;
 876:Modules/include/MAVLink/common/../mavlink_helpers.h ****  * int chan = 0;
 877:Modules/include/MAVLink/common/../mavlink_helpers.h ****  *
 878:Modules/include/MAVLink/common/../mavlink_helpers.h ****  *
 879:Modules/include/MAVLink/common/../mavlink_helpers.h ****  * while(serial.bytesAvailable > 0)
 880:Modules/include/MAVLink/common/../mavlink_helpers.h ****  * {
 881:Modules/include/MAVLink/common/../mavlink_helpers.h ****  *   uint8_t byte = serial.getNextByte();
ARM GAS  C:\Users\luoha\AppData\Local\Temp\ccarQJQt.s 			page 45


 882:Modules/include/MAVLink/common/../mavlink_helpers.h ****  *   if (mavlink_frame_char(chan, byte, &msg, &status) != MAVLINK_FRAMING_INCOMPLETE)
 883:Modules/include/MAVLink/common/../mavlink_helpers.h ****  *     {
 884:Modules/include/MAVLink/common/../mavlink_helpers.h ****  *     printf("Received message with ID %d, sequence: %d from component %d of system %d", msg.msgid
 885:Modules/include/MAVLink/common/../mavlink_helpers.h ****  *     }
 886:Modules/include/MAVLink/common/../mavlink_helpers.h ****  * }
 887:Modules/include/MAVLink/common/../mavlink_helpers.h ****  *
 888:Modules/include/MAVLink/common/../mavlink_helpers.h ****  *
 889:Modules/include/MAVLink/common/../mavlink_helpers.h ****  * @endcode
 890:Modules/include/MAVLink/common/../mavlink_helpers.h ****  */
 891:Modules/include/MAVLink/common/../mavlink_helpers.h **** MAVLINK_HELPER uint8_t mavlink_frame_char(uint8_t chan, uint8_t c, mavlink_message_t* r_message, ma
 892:Modules/include/MAVLink/common/../mavlink_helpers.h **** {
 893:Modules/include/MAVLink/common/../mavlink_helpers.h **** 	return mavlink_frame_char_buffer(mavlink_get_channel_buffer(chan),
 894:Modules/include/MAVLink/common/../mavlink_helpers.h **** 					 mavlink_get_channel_status(chan),
 895:Modules/include/MAVLink/common/../mavlink_helpers.h **** 					 c,
 896:Modules/include/MAVLink/common/../mavlink_helpers.h **** 					 r_message,
 897:Modules/include/MAVLink/common/../mavlink_helpers.h **** 					 r_mavlink_status);
 898:Modules/include/MAVLink/common/../mavlink_helpers.h **** }
 899:Modules/include/MAVLink/common/../mavlink_helpers.h **** 
 900:Modules/include/MAVLink/common/../mavlink_helpers.h **** /**
 901:Modules/include/MAVLink/common/../mavlink_helpers.h ****  * Set the protocol version
 902:Modules/include/MAVLink/common/../mavlink_helpers.h ****  */
 903:Modules/include/MAVLink/common/../mavlink_helpers.h **** MAVLINK_HELPER void mavlink_set_proto_version(uint8_t chan, unsigned int version)
 904:Modules/include/MAVLink/common/../mavlink_helpers.h **** {
 905:Modules/include/MAVLink/common/../mavlink_helpers.h **** 	mavlink_status_t *status = mavlink_get_channel_status(chan);
 906:Modules/include/MAVLink/common/../mavlink_helpers.h **** 	if (version > 1) {
 907:Modules/include/MAVLink/common/../mavlink_helpers.h **** 		status->flags &= ~(MAVLINK_STATUS_FLAG_OUT_MAVLINK1);
 908:Modules/include/MAVLink/common/../mavlink_helpers.h **** 	} else {
 909:Modules/include/MAVLink/common/../mavlink_helpers.h **** 		status->flags |= MAVLINK_STATUS_FLAG_OUT_MAVLINK1;
 910:Modules/include/MAVLink/common/../mavlink_helpers.h **** 	}
 911:Modules/include/MAVLink/common/../mavlink_helpers.h **** }
 912:Modules/include/MAVLink/common/../mavlink_helpers.h **** 
 913:Modules/include/MAVLink/common/../mavlink_helpers.h **** /**
 914:Modules/include/MAVLink/common/../mavlink_helpers.h ****  * Get the protocol version
 915:Modules/include/MAVLink/common/../mavlink_helpers.h ****  *
 916:Modules/include/MAVLink/common/../mavlink_helpers.h ****  * @return 1 for v1, 2 for v2
 917:Modules/include/MAVLink/common/../mavlink_helpers.h ****  */
 918:Modules/include/MAVLink/common/../mavlink_helpers.h **** MAVLINK_HELPER unsigned int mavlink_get_proto_version(uint8_t chan)
 919:Modules/include/MAVLink/common/../mavlink_helpers.h **** {
 920:Modules/include/MAVLink/common/../mavlink_helpers.h **** 	mavlink_status_t *status = mavlink_get_channel_status(chan);
 921:Modules/include/MAVLink/common/../mavlink_helpers.h **** 	if ((status->flags & MAVLINK_STATUS_FLAG_OUT_MAVLINK1) > 0) {
 922:Modules/include/MAVLink/common/../mavlink_helpers.h **** 		return 1;
 923:Modules/include/MAVLink/common/../mavlink_helpers.h **** 	} else {
 924:Modules/include/MAVLink/common/../mavlink_helpers.h **** 		return 2;
 925:Modules/include/MAVLink/common/../mavlink_helpers.h **** 	}
 926:Modules/include/MAVLink/common/../mavlink_helpers.h **** }
 927:Modules/include/MAVLink/common/../mavlink_helpers.h **** 
 928:Modules/include/MAVLink/common/../mavlink_helpers.h **** /**
 929:Modules/include/MAVLink/common/../mavlink_helpers.h ****  * This is a convenience function which handles the complete MAVLink parsing.
 930:Modules/include/MAVLink/common/../mavlink_helpers.h ****  * the function will parse one byte at a time and return the complete packet once
 931:Modules/include/MAVLink/common/../mavlink_helpers.h ****  * it could be successfully decoded. This function will return 0 or 1.
 932:Modules/include/MAVLink/common/../mavlink_helpers.h ****  *
 933:Modules/include/MAVLink/common/../mavlink_helpers.h ****  * Messages are parsed into an internal buffer (one for each channel). When a complete
 934:Modules/include/MAVLink/common/../mavlink_helpers.h ****  * message is received it is copies into *r_message and the channel's status is
 935:Modules/include/MAVLink/common/../mavlink_helpers.h ****  * copied into *r_mavlink_status.
 936:Modules/include/MAVLink/common/../mavlink_helpers.h ****  *
 937:Modules/include/MAVLink/common/../mavlink_helpers.h ****  * @param chan     ID of the channel to be parsed.
 938:Modules/include/MAVLink/common/../mavlink_helpers.h ****  *                 A channel is not a physical message channel like a serial port, but a logical pa
ARM GAS  C:\Users\luoha\AppData\Local\Temp\ccarQJQt.s 			page 46


 939:Modules/include/MAVLink/common/../mavlink_helpers.h ****  *                 the communication streams. COMM_NB is the limit for the number of channels
 940:Modules/include/MAVLink/common/../mavlink_helpers.h ****  *                 on MCU (e.g. ARM7), while COMM_NB_HIGH is the limit for the number of channels i
 941:Modules/include/MAVLink/common/../mavlink_helpers.h ****  * @param c        The char to parse
 942:Modules/include/MAVLink/common/../mavlink_helpers.h ****  *
 943:Modules/include/MAVLink/common/../mavlink_helpers.h ****  * @param r_message NULL if no message could be decoded, otherwise the message data
 944:Modules/include/MAVLink/common/../mavlink_helpers.h ****  * @param r_mavlink_status if a message was decoded, this is filled with the channel's stats
 945:Modules/include/MAVLink/common/../mavlink_helpers.h ****  * @return 0 if no message could be decoded or bad CRC, 1 on good message and CRC
 946:Modules/include/MAVLink/common/../mavlink_helpers.h ****  *
 947:Modules/include/MAVLink/common/../mavlink_helpers.h ****  * A typical use scenario of this function call is:
 948:Modules/include/MAVLink/common/../mavlink_helpers.h ****  *
 949:Modules/include/MAVLink/common/../mavlink_helpers.h ****  * @code
 950:Modules/include/MAVLink/common/../mavlink_helpers.h ****  * #include <mavlink.h>
 951:Modules/include/MAVLink/common/../mavlink_helpers.h ****  *
 952:Modules/include/MAVLink/common/../mavlink_helpers.h ****  * mavlink_status_t status;
 953:Modules/include/MAVLink/common/../mavlink_helpers.h ****  * mavlink_message_t msg;
 954:Modules/include/MAVLink/common/../mavlink_helpers.h ****  * int chan = 0;
 955:Modules/include/MAVLink/common/../mavlink_helpers.h ****  *
 956:Modules/include/MAVLink/common/../mavlink_helpers.h ****  *
 957:Modules/include/MAVLink/common/../mavlink_helpers.h ****  * while(serial.bytesAvailable > 0)
 958:Modules/include/MAVLink/common/../mavlink_helpers.h ****  * {
 959:Modules/include/MAVLink/common/../mavlink_helpers.h ****  *   uint8_t byte = serial.getNextByte();
 960:Modules/include/MAVLink/common/../mavlink_helpers.h ****  *   if (mavlink_parse_char(chan, byte, &msg, &status))
 961:Modules/include/MAVLink/common/../mavlink_helpers.h ****  *     {
 962:Modules/include/MAVLink/common/../mavlink_helpers.h ****  *     printf("Received message with ID %d, sequence: %d from component %d of system %d", msg.msgid
 963:Modules/include/MAVLink/common/../mavlink_helpers.h ****  *     }
 964:Modules/include/MAVLink/common/../mavlink_helpers.h ****  * }
 965:Modules/include/MAVLink/common/../mavlink_helpers.h ****  *
 966:Modules/include/MAVLink/common/../mavlink_helpers.h ****  *
 967:Modules/include/MAVLink/common/../mavlink_helpers.h ****  * @endcode
 968:Modules/include/MAVLink/common/../mavlink_helpers.h ****  */
 969:Modules/include/MAVLink/common/../mavlink_helpers.h **** MAVLINK_HELPER uint8_t mavlink_parse_char(uint8_t chan, uint8_t c, mavlink_message_t* r_message, ma
 970:Modules/include/MAVLink/common/../mavlink_helpers.h **** {
 971:Modules/include/MAVLink/common/../mavlink_helpers.h ****     uint8_t msg_received = mavlink_frame_char(chan, c, r_message, r_mavlink_status);
 972:Modules/include/MAVLink/common/../mavlink_helpers.h ****     if (msg_received == MAVLINK_FRAMING_BAD_CRC ||
 694              		.loc 3 972 5 is_stmt 1 view .LVU219
 695              		.loc 3 972 49 is_stmt 0 view .LVU220
 696 015a 931E     		subs	r3, r2, #2
 697 015c DBB2     		uxtb	r3, r3
 698              		.loc 3 972 8 view .LVU221
 699 015e 012B     		cmp	r3, #1
 700 0160 40F26987 		bls	.L152
 701              	.LVL55:
 702              	.L125:
 703              		.loc 3 972 8 view .LVU222
 704              	.LBE364:
 705              	.LBE371:
  32:Modules/src/mavlink_task.c ****         if (mavlink_parse_char(mavlink_comm, buffer[i], &msg, &status)) {
 706              		.loc 1 32 12 view .LVU223
 707 0164 002A     		cmp	r2, #0
 708 0166 40F07D87 		bne	.L153
 709              	.L127:
  29:Modules/src/mavlink_task.c ****     for (size_t i = 0; i < len; i++) {
 710              		.loc 1 29 33 is_stmt 1 discriminator 2 view .LVU224
  29:Modules/src/mavlink_task.c ****     for (size_t i = 0; i < len; i++) {
 711              		.loc 1 29 34 is_stmt 0 discriminator 2 view .LVU225
 712 016a 0AF1010A 		add	r10, r10, #1
 713              	.LVL56:
ARM GAS  C:\Users\luoha\AppData\Local\Temp\ccarQJQt.s 			page 47


 714              	.L8:
  29:Modules/src/mavlink_task.c ****     for (size_t i = 0; i < len; i++) {
 715              		.loc 1 29 24 is_stmt 1 discriminator 1 view .LVU226
  29:Modules/src/mavlink_task.c ****     for (size_t i = 0; i < len; i++) {
 716              		.loc 1 29 5 is_stmt 0 discriminator 1 view .LVU227
 717 016e 019B     		ldr	r3, [sp, #4]
 718 0170 9A45     		cmp	r10, r3
 719 0172 80F07C87 		bcs	.L154
  32:Modules/src/mavlink_task.c ****         if (mavlink_parse_char(mavlink_comm, buffer[i], &msg, &status)) {
 720              		.loc 1 32 9 is_stmt 1 view .LVU228
  32:Modules/src/mavlink_task.c ****         if (mavlink_parse_char(mavlink_comm, buffer[i], &msg, &status)) {
 721              		.loc 1 32 13 is_stmt 0 view .LVU229
 722 0176 029B     		ldr	r3, [sp, #8]
 723 0178 13F80AB0 		ldrb	fp, [r3, r10]	@ zero_extendqisi2
 724              	.LVL57:
 725              	.LBB372:
 726              	.LBI212:
 969:Modules/include/MAVLink/common/../mavlink_helpers.h **** {
 727              		.loc 3 969 24 is_stmt 1 view .LVU230
 728              	.LBB365:
 971:Modules/include/MAVLink/common/../mavlink_helpers.h ****     if (msg_received == MAVLINK_FRAMING_BAD_CRC ||
 729              		.loc 3 971 5 view .LVU231
 730              	.LBB349:
 731              	.LBI214:
 891:Modules/include/MAVLink/common/../mavlink_helpers.h **** {
 732              		.loc 3 891 24 view .LVU232
 733              	.LBE349:
 734              	.LBE365:
 735              	.LBE372:
 736              	.LBE378:
 893:Modules/include/MAVLink/common/../mavlink_helpers.h **** 					 mavlink_get_channel_status(chan),
 737              		.loc 3 893 2 view .LVU233
  46:Modules/include/MAVLink/common/../mavlink_helpers.h **** #endif
 738              		.loc 3 46 2 view .LVU234
  48:Modules/include/MAVLink/common/../mavlink_helpers.h **** }
 739              		.loc 3 48 2 view .LVU235
  29:Modules/include/MAVLink/common/../mavlink_helpers.h **** #endif
 740              		.loc 3 29 2 view .LVU236
  31:Modules/include/MAVLink/common/../mavlink_helpers.h **** }
 741              		.loc 3 31 2 view .LVU237
 742              	.LBB379:
 743              	.LBB373:
 744              	.LBB366:
 745              	.LBB350:
 746              	.LBB346:
 747              	.LBI215:
 571:Modules/include/MAVLink/common/../mavlink_helpers.h ****                                                  mavlink_status_t* status,
 748              		.loc 3 571 24 view .LVU238
 749              	.LBB343:
 577:Modules/include/MAVLink/common/../mavlink_helpers.h **** 
 750              		.loc 3 577 2 view .LVU239
 579:Modules/include/MAVLink/common/../mavlink_helpers.h **** 
 751              		.loc 3 579 2 view .LVU240
 579:Modules/include/MAVLink/common/../mavlink_helpers.h **** 
 752              		.loc 3 579 23 is_stmt 0 view .LVU241
 753 017c 5B4B     		ldr	r3, .L182
 754 017e 0022     		movs	r2, #0
ARM GAS  C:\Users\luoha\AppData\Local\Temp\ccarQJQt.s 			page 48


 755 0180 1A70     		strb	r2, [r3]
 581:Modules/include/MAVLink/common/../mavlink_helpers.h **** 	{
 756              		.loc 3 581 2 is_stmt 1 view .LVU242
 581:Modules/include/MAVLink/common/../mavlink_helpers.h **** 	{
 757              		.loc 3 581 16 is_stmt 0 view .LVU243
 758 0182 DB78     		ldrb	r3, [r3, #3]	@ zero_extendqisi2
 759 0184 0F2B     		cmp	r3, #15
 760 0186 C8D8     		bhi	.L9
 761 0188 01A2     		adr	r2, .L11
 762 018a 52F823F0 		ldr	pc, [r2, r3, lsl #2]
 763 018e 00BF     		.p2align 2
 764              	.L11:
 765 0190 13000000 		.word	.L24+1
 766 0194 13000000 		.word	.L24+1
 767 0198 5F000000 		.word	.L23+1
 768 019c A7000000 		.word	.L22+1
 769 01a0 EF000000 		.word	.L21+1
 770 01a4 D1010000 		.word	.L20+1
 771 01a8 FF010000 		.word	.L19+1
 772 01ac 2D020000 		.word	.L18+1
 773 01b0 5B020000 		.word	.L17+1
 774 01b4 AD020000 		.word	.L16+1
 775 01b8 FD020000 		.word	.L15+1
 776 01bc 49030000 		.word	.L14+1
 777 01c0 8D030000 		.word	.L13+1
 778 01c4 45040000 		.word	.L12+1
 779 01c8 45040000 		.word	.L12+1
 780 01cc C5040000 		.word	.L10+1
 781              		.p2align 1
 782              	.L20:
 652:Modules/include/MAVLink/common/../mavlink_helpers.h **** 		mavlink_update_checksum(rxmsg, c);
 783              		.loc 3 652 3 is_stmt 1 view .LVU244
 652:Modules/include/MAVLink/common/../mavlink_helpers.h **** 		mavlink_update_checksum(rxmsg, c);
 784              		.loc 3 652 14 is_stmt 0 view .LVU245
 785 01d0 4749     		ldr	r1, .L182+4
 786 01d2 81F806B0 		strb	fp, [r1, #6]
 653:Modules/include/MAVLink/common/../mavlink_helpers.h **** 		status->parse_state = MAVLINK_PARSE_STATE_GOT_SEQ;
 787              		.loc 3 653 3 is_stmt 1 view .LVU246
 788              	.LVL58:
 789              	.LBB239:
 790              	.LBI239:
 488:Modules/include/MAVLink/common/../mavlink_helpers.h **** {
 791              		.loc 3 488 21 view .LVU247
 792              	.LBB240:
 490:Modules/include/MAVLink/common/../mavlink_helpers.h **** 	crc_accumulate(c, &checksum);
 793              		.loc 3 490 2 view .LVU248
 490:Modules/include/MAVLink/common/../mavlink_helpers.h **** 	crc_accumulate(c, &checksum);
 794              		.loc 3 490 25 is_stmt 0 view .LVU249
 795 01d6 0B88     		ldrh	r3, [r1]
 796              	.LVL59:
 491:Modules/include/MAVLink/common/../mavlink_helpers.h **** 	msg->checksum = checksum;
 797              		.loc 3 491 2 is_stmt 1 view .LVU250
 798              	.LBB241:
 799              	.LBI241:
  35:Modules/include/MAVLink/common/../checksum.h **** {
 800              		.loc 4 35 20 view .LVU251
 801              	.LBB242:
ARM GAS  C:\Users\luoha\AppData\Local\Temp\ccarQJQt.s 			page 49


  38:Modules/include/MAVLink/common/../checksum.h **** 
 802              		.loc 4 38 9 view .LVU252
  40:Modules/include/MAVLink/common/../checksum.h ****         tmp ^= (tmp<<4);
 803              		.loc 4 40 9 view .LVU253
  40:Modules/include/MAVLink/common/../checksum.h ****         tmp ^= (tmp<<4);
 804              		.loc 4 40 22 is_stmt 0 view .LVU254
 805 01d8 DAB2     		uxtb	r2, r3
  40:Modules/include/MAVLink/common/../checksum.h ****         tmp ^= (tmp<<4);
 806              		.loc 4 40 13 view .LVU255
 807 01da 8BEA0202 		eor	r2, fp, r2
 808              	.LVL60:
  41:Modules/include/MAVLink/common/../checksum.h ****         *crcAccum = (*crcAccum>>8) ^ (tmp<<8) ^ (tmp <<3) ^ (tmp>>4);
 809              		.loc 4 41 9 is_stmt 1 view .LVU256
  41:Modules/include/MAVLink/common/../checksum.h ****         *crcAccum = (*crcAccum>>8) ^ (tmp<<8) ^ (tmp <<3) ^ (tmp>>4);
 810              		.loc 4 41 13 is_stmt 0 view .LVU257
 811 01de 82EA0212 		eor	r2, r2, r2, lsl #4
 812              	.LVL61:
  41:Modules/include/MAVLink/common/../checksum.h ****         *crcAccum = (*crcAccum>>8) ^ (tmp<<8) ^ (tmp <<3) ^ (tmp>>4);
 813              		.loc 4 41 13 view .LVU258
 814 01e2 D2B2     		uxtb	r2, r2
 815              	.LVL62:
  42:Modules/include/MAVLink/common/../checksum.h **** }
 816              		.loc 4 42 9 is_stmt 1 view .LVU259
  42:Modules/include/MAVLink/common/../checksum.h **** }
 817              		.loc 4 42 36 is_stmt 0 view .LVU260
 818 01e4 1B0A     		lsrs	r3, r3, #8
 819              	.LVL63:
  42:Modules/include/MAVLink/common/../checksum.h **** }
 820              		.loc 4 42 36 view .LVU261
 821 01e6 43EA0223 		orr	r3, r3, r2, lsl #8
 822 01ea 1BB2     		sxth	r3, r3
  42:Modules/include/MAVLink/common/../checksum.h **** }
 823              		.loc 4 42 47 view .LVU262
 824 01ec 83EAC203 		eor	r3, r3, r2, lsl #3
  42:Modules/include/MAVLink/common/../checksum.h **** }
 825              		.loc 4 42 59 view .LVU263
 826 01f0 83EA1213 		eor	r3, r3, r2, lsr #4
 827              	.LVL64:
  42:Modules/include/MAVLink/common/../checksum.h **** }
 828              		.loc 4 42 59 view .LVU264
 829              	.LBE242:
 830              	.LBE241:
 492:Modules/include/MAVLink/common/../mavlink_helpers.h **** }
 831              		.loc 3 492 2 is_stmt 1 view .LVU265
 492:Modules/include/MAVLink/common/../mavlink_helpers.h **** }
 832              		.loc 3 492 16 is_stmt 0 view .LVU266
 833 01f4 0B80     		strh	r3, [r1]	@ movhi
 834              	.LVL65:
 492:Modules/include/MAVLink/common/../mavlink_helpers.h **** }
 835              		.loc 3 492 16 view .LVU267
 836              	.LBE240:
 837              	.LBE239:
 654:Modules/include/MAVLink/common/../mavlink_helpers.h **** 		break;
 838              		.loc 3 654 3 is_stmt 1 view .LVU268
 654:Modules/include/MAVLink/common/../mavlink_helpers.h **** 		break;
 839              		.loc 3 654 23 is_stmt 0 view .LVU269
 840 01f6 3D4B     		ldr	r3, .L182
ARM GAS  C:\Users\luoha\AppData\Local\Temp\ccarQJQt.s 			page 50


 841 01f8 0622     		movs	r2, #6
 842 01fa DA70     		strb	r2, [r3, #3]
 655:Modules/include/MAVLink/common/../mavlink_helpers.h ****                 
 843              		.loc 3 655 3 is_stmt 1 view .LVU270
 844 01fc 8DE7     		b	.L9
 845              	.L19:
 658:Modules/include/MAVLink/common/../mavlink_helpers.h **** 		mavlink_update_checksum(rxmsg, c);
 846              		.loc 3 658 3 view .LVU271
 658:Modules/include/MAVLink/common/../mavlink_helpers.h **** 		mavlink_update_checksum(rxmsg, c);
 847              		.loc 3 658 16 is_stmt 0 view .LVU272
 848 01fe 3C49     		ldr	r1, .L182+4
 849 0200 81F807B0 		strb	fp, [r1, #7]
 659:Modules/include/MAVLink/common/../mavlink_helpers.h **** 		status->parse_state = MAVLINK_PARSE_STATE_GOT_SYSID;
 850              		.loc 3 659 3 is_stmt 1 view .LVU273
 851              	.LVL66:
 852              	.LBB243:
 853              	.LBI243:
 488:Modules/include/MAVLink/common/../mavlink_helpers.h **** {
 854              		.loc 3 488 21 view .LVU274
 855              	.LBB244:
 490:Modules/include/MAVLink/common/../mavlink_helpers.h **** 	crc_accumulate(c, &checksum);
 856              		.loc 3 490 2 view .LVU275
 490:Modules/include/MAVLink/common/../mavlink_helpers.h **** 	crc_accumulate(c, &checksum);
 857              		.loc 3 490 25 is_stmt 0 view .LVU276
 858 0204 0B88     		ldrh	r3, [r1]
 859              	.LVL67:
 491:Modules/include/MAVLink/common/../mavlink_helpers.h **** 	msg->checksum = checksum;
 860              		.loc 3 491 2 is_stmt 1 view .LVU277
 861              	.LBB245:
 862              	.LBI245:
  35:Modules/include/MAVLink/common/../checksum.h **** {
 863              		.loc 4 35 20 view .LVU278
 864              	.LBB246:
  38:Modules/include/MAVLink/common/../checksum.h **** 
 865              		.loc 4 38 9 view .LVU279
  40:Modules/include/MAVLink/common/../checksum.h ****         tmp ^= (tmp<<4);
 866              		.loc 4 40 9 view .LVU280
  40:Modules/include/MAVLink/common/../checksum.h ****         tmp ^= (tmp<<4);
 867              		.loc 4 40 22 is_stmt 0 view .LVU281
 868 0206 DAB2     		uxtb	r2, r3
  40:Modules/include/MAVLink/common/../checksum.h ****         tmp ^= (tmp<<4);
 869              		.loc 4 40 13 view .LVU282
 870 0208 8BEA0202 		eor	r2, fp, r2
 871              	.LVL68:
  41:Modules/include/MAVLink/common/../checksum.h ****         *crcAccum = (*crcAccum>>8) ^ (tmp<<8) ^ (tmp <<3) ^ (tmp>>4);
 872              		.loc 4 41 9 is_stmt 1 view .LVU283
  41:Modules/include/MAVLink/common/../checksum.h ****         *crcAccum = (*crcAccum>>8) ^ (tmp<<8) ^ (tmp <<3) ^ (tmp>>4);
 873              		.loc 4 41 13 is_stmt 0 view .LVU284
 874 020c 82EA0212 		eor	r2, r2, r2, lsl #4
 875              	.LVL69:
  41:Modules/include/MAVLink/common/../checksum.h ****         *crcAccum = (*crcAccum>>8) ^ (tmp<<8) ^ (tmp <<3) ^ (tmp>>4);
 876              		.loc 4 41 13 view .LVU285
 877 0210 D2B2     		uxtb	r2, r2
 878              	.LVL70:
  42:Modules/include/MAVLink/common/../checksum.h **** }
 879              		.loc 4 42 9 is_stmt 1 view .LVU286
  42:Modules/include/MAVLink/common/../checksum.h **** }
ARM GAS  C:\Users\luoha\AppData\Local\Temp\ccarQJQt.s 			page 51


 880              		.loc 4 42 36 is_stmt 0 view .LVU287
 881 0212 1B0A     		lsrs	r3, r3, #8
 882              	.LVL71:
  42:Modules/include/MAVLink/common/../checksum.h **** }
 883              		.loc 4 42 36 view .LVU288
 884 0214 43EA0223 		orr	r3, r3, r2, lsl #8
 885 0218 1BB2     		sxth	r3, r3
  42:Modules/include/MAVLink/common/../checksum.h **** }
 886              		.loc 4 42 47 view .LVU289
 887 021a 83EAC203 		eor	r3, r3, r2, lsl #3
  42:Modules/include/MAVLink/common/../checksum.h **** }
 888              		.loc 4 42 59 view .LVU290
 889 021e 83EA1213 		eor	r3, r3, r2, lsr #4
 890              	.LVL72:
  42:Modules/include/MAVLink/common/../checksum.h **** }
 891              		.loc 4 42 59 view .LVU291
 892              	.LBE246:
 893              	.LBE245:
 492:Modules/include/MAVLink/common/../mavlink_helpers.h **** }
 894              		.loc 3 492 2 is_stmt 1 view .LVU292
 492:Modules/include/MAVLink/common/../mavlink_helpers.h **** }
 895              		.loc 3 492 16 is_stmt 0 view .LVU293
 896 0222 0B80     		strh	r3, [r1]	@ movhi
 897              	.LVL73:
 492:Modules/include/MAVLink/common/../mavlink_helpers.h **** }
 898              		.loc 3 492 16 view .LVU294
 899              	.LBE244:
 900              	.LBE243:
 660:Modules/include/MAVLink/common/../mavlink_helpers.h **** 		break;
 901              		.loc 3 660 3 is_stmt 1 view .LVU295
 660:Modules/include/MAVLink/common/../mavlink_helpers.h **** 		break;
 902              		.loc 3 660 23 is_stmt 0 view .LVU296
 903 0224 314B     		ldr	r3, .L182
 904 0226 0722     		movs	r2, #7
 905 0228 DA70     		strb	r2, [r3, #3]
 661:Modules/include/MAVLink/common/../mavlink_helpers.h **** 
 906              		.loc 3 661 3 is_stmt 1 view .LVU297
 907 022a 76E7     		b	.L9
 908              	.L18:
 664:Modules/include/MAVLink/common/../mavlink_helpers.h **** 		mavlink_update_checksum(rxmsg, c);
 909              		.loc 3 664 3 view .LVU298
 664:Modules/include/MAVLink/common/../mavlink_helpers.h **** 		mavlink_update_checksum(rxmsg, c);
 910              		.loc 3 664 17 is_stmt 0 view .LVU299
 911 022c 3049     		ldr	r1, .L182+4
 912 022e 81F808B0 		strb	fp, [r1, #8]
 665:Modules/include/MAVLink/common/../mavlink_helpers.h ****                 status->parse_state = MAVLINK_PARSE_STATE_GOT_COMPID;
 913              		.loc 3 665 3 is_stmt 1 view .LVU300
 914              	.LVL74:
 915              	.LBB247:
 916              	.LBI247:
 488:Modules/include/MAVLink/common/../mavlink_helpers.h **** {
 917              		.loc 3 488 21 view .LVU301
 918              	.LBB248:
 490:Modules/include/MAVLink/common/../mavlink_helpers.h **** 	crc_accumulate(c, &checksum);
 919              		.loc 3 490 2 view .LVU302
 490:Modules/include/MAVLink/common/../mavlink_helpers.h **** 	crc_accumulate(c, &checksum);
 920              		.loc 3 490 25 is_stmt 0 view .LVU303
ARM GAS  C:\Users\luoha\AppData\Local\Temp\ccarQJQt.s 			page 52


 921 0232 0B88     		ldrh	r3, [r1]
 922              	.LVL75:
 491:Modules/include/MAVLink/common/../mavlink_helpers.h **** 	msg->checksum = checksum;
 923              		.loc 3 491 2 is_stmt 1 view .LVU304
 924              	.LBB249:
 925              	.LBI249:
  35:Modules/include/MAVLink/common/../checksum.h **** {
 926              		.loc 4 35 20 view .LVU305
 927              	.LBB250:
  38:Modules/include/MAVLink/common/../checksum.h **** 
 928              		.loc 4 38 9 view .LVU306
  40:Modules/include/MAVLink/common/../checksum.h ****         tmp ^= (tmp<<4);
 929              		.loc 4 40 9 view .LVU307
  40:Modules/include/MAVLink/common/../checksum.h ****         tmp ^= (tmp<<4);
 930              		.loc 4 40 22 is_stmt 0 view .LVU308
 931 0234 DAB2     		uxtb	r2, r3
  40:Modules/include/MAVLink/common/../checksum.h ****         tmp ^= (tmp<<4);
 932              		.loc 4 40 13 view .LVU309
 933 0236 8BEA0202 		eor	r2, fp, r2
 934              	.LVL76:
  41:Modules/include/MAVLink/common/../checksum.h ****         *crcAccum = (*crcAccum>>8) ^ (tmp<<8) ^ (tmp <<3) ^ (tmp>>4);
 935              		.loc 4 41 9 is_stmt 1 view .LVU310
  41:Modules/include/MAVLink/common/../checksum.h ****         *crcAccum = (*crcAccum>>8) ^ (tmp<<8) ^ (tmp <<3) ^ (tmp>>4);
 936              		.loc 4 41 13 is_stmt 0 view .LVU311
 937 023a 82EA0212 		eor	r2, r2, r2, lsl #4
 938              	.LVL77:
  41:Modules/include/MAVLink/common/../checksum.h ****         *crcAccum = (*crcAccum>>8) ^ (tmp<<8) ^ (tmp <<3) ^ (tmp>>4);
 939              		.loc 4 41 13 view .LVU312
 940 023e D2B2     		uxtb	r2, r2
 941              	.LVL78:
  42:Modules/include/MAVLink/common/../checksum.h **** }
 942              		.loc 4 42 9 is_stmt 1 view .LVU313
  42:Modules/include/MAVLink/common/../checksum.h **** }
 943              		.loc 4 42 36 is_stmt 0 view .LVU314
 944 0240 1B0A     		lsrs	r3, r3, #8
 945              	.LVL79:
  42:Modules/include/MAVLink/common/../checksum.h **** }
 946              		.loc 4 42 36 view .LVU315
 947 0242 43EA0223 		orr	r3, r3, r2, lsl #8
 948 0246 1BB2     		sxth	r3, r3
  42:Modules/include/MAVLink/common/../checksum.h **** }
 949              		.loc 4 42 47 view .LVU316
 950 0248 83EAC203 		eor	r3, r3, r2, lsl #3
  42:Modules/include/MAVLink/common/../checksum.h **** }
 951              		.loc 4 42 59 view .LVU317
 952 024c 83EA1213 		eor	r3, r3, r2, lsr #4
 953              	.LVL80:
  42:Modules/include/MAVLink/common/../checksum.h **** }
 954              		.loc 4 42 59 view .LVU318
 955              	.LBE250:
 956              	.LBE249:
 492:Modules/include/MAVLink/common/../mavlink_helpers.h **** }
 957              		.loc 3 492 2 is_stmt 1 view .LVU319
 492:Modules/include/MAVLink/common/../mavlink_helpers.h **** }
 958              		.loc 3 492 16 is_stmt 0 view .LVU320
 959 0250 0B80     		strh	r3, [r1]	@ movhi
 960              	.LVL81:
ARM GAS  C:\Users\luoha\AppData\Local\Temp\ccarQJQt.s 			page 53


 492:Modules/include/MAVLink/common/../mavlink_helpers.h **** }
 961              		.loc 3 492 16 view .LVU321
 962              	.LBE248:
 963              	.LBE247:
 666:Modules/include/MAVLink/common/../mavlink_helpers.h **** 		break;
 964              		.loc 3 666 17 is_stmt 1 view .LVU322
 666:Modules/include/MAVLink/common/../mavlink_helpers.h **** 		break;
 965              		.loc 3 666 37 is_stmt 0 view .LVU323
 966 0252 264B     		ldr	r3, .L182
 967 0254 0822     		movs	r2, #8
 968 0256 DA70     		strb	r2, [r3, #3]
 667:Modules/include/MAVLink/common/../mavlink_helpers.h **** 
 969              		.loc 3 667 3 is_stmt 1 view .LVU324
 970 0258 5FE7     		b	.L9
 971              	.L17:
 670:Modules/include/MAVLink/common/../mavlink_helpers.h **** 		mavlink_update_checksum(rxmsg, c);
 972              		.loc 3 670 3 view .LVU325
 670:Modules/include/MAVLink/common/../mavlink_helpers.h **** 		mavlink_update_checksum(rxmsg, c);
 973              		.loc 3 670 16 is_stmt 0 view .LVU326
 974 025a 2549     		ldr	r1, .L182+4
 975 025c 81F809B0 		strb	fp, [r1, #9]
 976 0260 0023     		movs	r3, #0
 977 0262 8B72     		strb	r3, [r1, #10]
 978 0264 CB72     		strb	r3, [r1, #11]
 671:Modules/include/MAVLink/common/../mavlink_helpers.h **** 		if (status->flags & MAVLINK_STATUS_FLAG_IN_MAVLINK1) {
 979              		.loc 3 671 3 is_stmt 1 view .LVU327
 980              	.LVL82:
 981              	.LBB251:
 982              	.LBI251:
 488:Modules/include/MAVLink/common/../mavlink_helpers.h **** {
 983              		.loc 3 488 21 view .LVU328
 984              	.LBB252:
 490:Modules/include/MAVLink/common/../mavlink_helpers.h **** 	crc_accumulate(c, &checksum);
 985              		.loc 3 490 2 view .LVU329
 490:Modules/include/MAVLink/common/../mavlink_helpers.h **** 	crc_accumulate(c, &checksum);
 986              		.loc 3 490 25 is_stmt 0 view .LVU330
 987 0266 0B88     		ldrh	r3, [r1]
 988              	.LVL83:
 491:Modules/include/MAVLink/common/../mavlink_helpers.h **** 	msg->checksum = checksum;
 989              		.loc 3 491 2 is_stmt 1 view .LVU331
 990              	.LBB253:
 991              	.LBI253:
  35:Modules/include/MAVLink/common/../checksum.h **** {
 992              		.loc 4 35 20 view .LVU332
 993              	.LBB254:
  38:Modules/include/MAVLink/common/../checksum.h **** 
 994              		.loc 4 38 9 view .LVU333
  40:Modules/include/MAVLink/common/../checksum.h ****         tmp ^= (tmp<<4);
 995              		.loc 4 40 9 view .LVU334
  40:Modules/include/MAVLink/common/../checksum.h ****         tmp ^= (tmp<<4);
 996              		.loc 4 40 22 is_stmt 0 view .LVU335
 997 0268 DAB2     		uxtb	r2, r3
  40:Modules/include/MAVLink/common/../checksum.h ****         tmp ^= (tmp<<4);
 998              		.loc 4 40 13 view .LVU336
 999 026a 8BEA0202 		eor	r2, fp, r2
 1000              	.LVL84:
  41:Modules/include/MAVLink/common/../checksum.h ****         *crcAccum = (*crcAccum>>8) ^ (tmp<<8) ^ (tmp <<3) ^ (tmp>>4);
ARM GAS  C:\Users\luoha\AppData\Local\Temp\ccarQJQt.s 			page 54


 1001              		.loc 4 41 9 is_stmt 1 view .LVU337
  41:Modules/include/MAVLink/common/../checksum.h ****         *crcAccum = (*crcAccum>>8) ^ (tmp<<8) ^ (tmp <<3) ^ (tmp>>4);
 1002              		.loc 4 41 13 is_stmt 0 view .LVU338
 1003 026e 82EA0212 		eor	r2, r2, r2, lsl #4
 1004              	.LVL85:
  41:Modules/include/MAVLink/common/../checksum.h ****         *crcAccum = (*crcAccum>>8) ^ (tmp<<8) ^ (tmp <<3) ^ (tmp>>4);
 1005              		.loc 4 41 13 view .LVU339
 1006 0272 D2B2     		uxtb	r2, r2
 1007              	.LVL86:
  42:Modules/include/MAVLink/common/../checksum.h **** }
 1008              		.loc 4 42 9 is_stmt 1 view .LVU340
  42:Modules/include/MAVLink/common/../checksum.h **** }
 1009              		.loc 4 42 36 is_stmt 0 view .LVU341
 1010 0274 1B0A     		lsrs	r3, r3, #8
 1011              	.LVL87:
  42:Modules/include/MAVLink/common/../checksum.h **** }
 1012              		.loc 4 42 36 view .LVU342
 1013 0276 43EA0223 		orr	r3, r3, r2, lsl #8
 1014 027a 1BB2     		sxth	r3, r3
  42:Modules/include/MAVLink/common/../checksum.h **** }
 1015              		.loc 4 42 47 view .LVU343
 1016 027c 83EAC203 		eor	r3, r3, r2, lsl #3
  42:Modules/include/MAVLink/common/../checksum.h **** }
 1017              		.loc 4 42 59 view .LVU344
 1018 0280 83EA1213 		eor	r3, r3, r2, lsr #4
