ARM GAS  C:\Users\luoha\AppData\Local\Temp\ccE4B3TR.s 			page 1


   1              		.cpu cortex-m4
   2              		.eabi_attribute 27, 1
   3              		.eabi_attribute 28, 1
   4              		.eabi_attribute 20, 1
   5              		.eabi_attribute 21, 1
   6              		.eabi_attribute 23, 3
   7              		.eabi_attribute 24, 1
   8              		.eabi_attribute 25, 1
   9              		.eabi_attribute 26, 1
  10              		.eabi_attribute 30, 1
  11              		.eabi_attribute 34, 1
  12              		.eabi_attribute 18, 4
  13              		.file	"mavlink_task.c"
  14              		.text
  15              	.Ltext0:
  16              		.cfi_sections	.debug_frame
  17              		.section	.text.MavlinkTask,"ax",%progbits
  18              		.align	1
  19              		.arch armv7e-m
  20              		.syntax unified
  21              		.thumb
  22              		.thumb_func
  23              		.fpu fpv4-sp-d16
  25              	MavlinkTask:
  26              	.LVL0:
  27              	.LFB2769:
  28              		.file 1 "Modules/src/mavlink_task.c"
   1:Modules/src/mavlink_task.c **** #include "mavlink_task.h"
   2:Modules/src/mavlink_task.c **** 
   3:Modules/src/mavlink_task.c **** extern xQueueHandle usart2_queue;
   4:Modules/src/mavlink_task.c **** // extern xQueueHandle acc_raw_queue;
   5:Modules/src/mavlink_task.c **** // extern xQueueHandle gyr_raw_queue;
   6:Modules/src/mavlink_task.c **** // extern xQueueHandle mag_raw_queue;
   7:Modules/src/mavlink_task.c **** 
   8:Modules/src/mavlink_task.c **** static TaskHandle_t mavlink_task_handle;
   9:Modules/src/mavlink_task.c **** STATIC_MEM_TASK_ALLOC(mavlink_task, configMINIMAL_STACK_SIZE * 3);
  10:Modules/src/mavlink_task.c **** 
  11:Modules/src/mavlink_task.c **** static mavlink_message_t msg;
  12:Modules/src/mavlink_task.c **** static mavlink_status_t status;
  13:Modules/src/mavlink_task.c **** static int mavlink_comm = MAVLINK_COMM_0;
  14:Modules/src/mavlink_task.c **** static mavlink_rc_channels_override_t rc_channels_override;
  15:Modules/src/mavlink_task.c **** 
  16:Modules/src/mavlink_task.c **** static void MavlinkTask(void *param);
  17:Modules/src/mavlink_task.c **** static void MavlinkProcessMsg(mavlink_message_t *msg);
  18:Modules/src/mavlink_task.c **** // static void MavlinkParse(uint8_t *buffer, size_t len);
  19:Modules/src/mavlink_task.c **** 
  20:Modules/src/mavlink_task.c **** void MavlinkInit(void) {
  21:Modules/src/mavlink_task.c ****     UsartInit();
  22:Modules/src/mavlink_task.c ****     mavlink_task_handle = STATIC_MEM_TASK_CREATE(mavlink_task, MavlinkTask, "MavlinkTask", NULL, 1)
  23:Modules/src/mavlink_task.c **** }
  24:Modules/src/mavlink_task.c **** 
  25:Modules/src/mavlink_task.c **** // extern TIM_HandleTypeDef htim4;
  26:Modules/src/mavlink_task.c **** 
  27:Modules/src/mavlink_task.c **** void MavlinkTask(void *param) {
  29              		.loc 1 27 31 view -0
  30              		.cfi_startproc
  31              		@ args = 0, pretend = 0, frame = 0
ARM GAS  C:\Users\luoha\AppData\Local\Temp\ccE4B3TR.s 			page 2


  32              		@ frame_needed = 0, uses_anonymous_args = 0
  33              		.loc 1 27 31 is_stmt 0 view .LVU1
  34 0000 08B5     		push	{r3, lr}
  35              	.LCFI0:
  36              		.cfi_def_cfa_offset 8
  37              		.cfi_offset 3, -8
  38              		.cfi_offset 14, -4
  28:Modules/src/mavlink_task.c ****     // // uint8_t buffer1[] = "Hello world\r\n";
  29:Modules/src/mavlink_task.c ****     // // uint16_t compare = 0;
  30:Modules/src/mavlink_task.c **** 
  31:Modules/src/mavlink_task.c ****     // usart2_queue_buffer buffer;
  32:Modules/src/mavlink_task.c ****     int16_t acc_raw[3], gyr_raw[3], mag_raw[3];
  39              		.loc 1 32 5 is_stmt 1 view .LVU2
  33:Modules/src/mavlink_task.c ****     uint16_t msg_size;
  40              		.loc 1 33 5 view .LVU3
  34:Modules/src/mavlink_task.c ****     uint8_t msg_buffer[128];
  41              		.loc 1 34 5 view .LVU4
  35:Modules/src/mavlink_task.c **** 
  36:Modules/src/mavlink_task.c ****     const TickType_t wait_time = pdMS_TO_TICKS(10);
  42              		.loc 1 36 5 view .LVU5
  43              	.LVL1:
  37:Modules/src/mavlink_task.c ****     portTickType last_wait_time = xTaskGetTickCount();
  44              		.loc 1 37 5 view .LVU6
  45              		.loc 1 37 35 is_stmt 0 view .LVU7
  46 0002 FFF7FEFF 		bl	xTaskGetTickCount
  47              	.LVL2:
  48              	.L2:
  38:Modules/src/mavlink_task.c ****     for (;;) {
  49              		.loc 1 38 5 is_stmt 1 discriminator 1 view .LVU8
  39:Modules/src/mavlink_task.c ****         // if (xQueueReceive(usart2_queue, &buffer, portMAX_DELAY) == pdTRUE) {
  40:Modules/src/mavlink_task.c ****         //     for (size_t i = 0; i < buffer.length; i++) {
  41:Modules/src/mavlink_task.c ****         //         if (mavlink_parse_char(mavlink_comm, buffer.addr[i], &msg, &status)) {
  42:Modules/src/mavlink_task.c ****         //             MavlinkProcessMsg(&msg);
  43:Modules/src/mavlink_task.c ****         //         }
  44:Modules/src/mavlink_task.c ****         //     }
  45:Modules/src/mavlink_task.c ****         // }
  46:Modules/src/mavlink_task.c **** 
  47:Modules/src/mavlink_task.c ****         // xQueueReceive(acc_raw_queue, acc_raw, wait_time);
  48:Modules/src/mavlink_task.c ****         // xQueueReceive(gyr_raw_queue, gyr_raw, wait_time);
  49:Modules/src/mavlink_task.c ****         // xQueueReceive(mag_raw_queue, mag_raw, wait_time);
  50:Modules/src/mavlink_task.c **** 
  51:Modules/src/mavlink_task.c ****         // mavlink_msg_raw_imu_pack(1, 200, &msg, pdTICKS_TO_US(xTaskGetTickCount()),
  52:Modules/src/mavlink_task.c ****         //                          acc_raw[0], acc_raw[1], acc_raw[2],
  53:Modules/src/mavlink_task.c ****         //                          gyr_raw[0], gyr_raw[1], gyr_raw[2],
  54:Modules/src/mavlink_task.c ****         //                          mag_raw[0], mag_raw[1], mag_raw[2], 0, 0);
  55:Modules/src/mavlink_task.c ****         
  56:Modules/src/mavlink_task.c ****         // // 37bytes
  57:Modules/src/mavlink_task.c ****         // msg_size = mavlink_msg_to_send_buffer(msg_buffer, &msg);
  58:Modules/src/mavlink_task.c **** 
  59:Modules/src/mavlink_task.c ****         // // HAL_UART_Transmit_DMA(&huart2, msg_buffer, msg_size);
  60:Modules/src/mavlink_task.c ****         // HAL_UART_Transmit_DMA(&huart1, msg_buffer, msg_size);
  61:Modules/src/mavlink_task.c **** 
  62:Modules/src/mavlink_task.c ****         // printf("%ld\r\n", (long)pdTICKS_TO_US(xTaskGetTickCount()));
  63:Modules/src/mavlink_task.c ****         // printf("%u\r\n", msg_size);
  64:Modules/src/mavlink_task.c **** 
  65:Modules/src/mavlink_task.c ****         // printf("Accel: %d, %d, %d\r\n", acc_raw[0], acc_raw[1], acc_raw[2]);
  66:Modules/src/mavlink_task.c ****         // printf("Gyro: %d, %d, %d\r\n", gyr_raw[0], gyr_raw[1], gyr_raw[2]);
ARM GAS  C:\Users\luoha\AppData\Local\Temp\ccE4B3TR.s 			page 3


  67:Modules/src/mavlink_task.c ****         // printf("Mag: %d, %d, %d\r\n", mag_raw[0], mag_raw[1], mag_raw[2]);
  68:Modules/src/mavlink_task.c **** 
  69:Modules/src/mavlink_task.c ****         // vTaskDelayUntil(&last_wait_time, wait_time);
  70:Modules/src/mavlink_task.c ****     }
  50              		.loc 1 70 5 discriminator 1 view .LVU9
  38:Modules/src/mavlink_task.c ****     for (;;) {
  51              		.loc 1 38 11 discriminator 1 view .LVU10
  52 0006 FEE7     		b	.L2
  53              		.cfi_endproc
  54              	.LFE2769:
  56              		.section	.rodata.MavlinkInit.str1.4,"aMS",%progbits,1
  57              		.align	2
  58              	.LC0:
  59 0000 4D61766C 		.ascii	"MavlinkTask\000"
  59      696E6B54 
  59      61736B00 
  60              		.section	.text.MavlinkInit,"ax",%progbits
  61              		.align	1
  62              		.global	MavlinkInit
  63              		.syntax unified
  64              		.thumb
  65              		.thumb_func
  66              		.fpu fpv4-sp-d16
  68              	MavlinkInit:
  69              	.LFB2768:
  20:Modules/src/mavlink_task.c ****     UsartInit();
  70              		.loc 1 20 24 view -0
  71              		.cfi_startproc
  72              		@ args = 0, pretend = 0, frame = 0
  73              		@ frame_needed = 0, uses_anonymous_args = 0
  74 0000 00B5     		push	{lr}
  75              	.LCFI1:
  76              		.cfi_def_cfa_offset 4
  77              		.cfi_offset 14, -4
  78 0002 85B0     		sub	sp, sp, #20
  79              	.LCFI2:
  80              		.cfi_def_cfa_offset 24
  21:Modules/src/mavlink_task.c ****     mavlink_task_handle = STATIC_MEM_TASK_CREATE(mavlink_task, MavlinkTask, "MavlinkTask", NULL, 1)
  81              		.loc 1 21 5 view .LVU12
  82 0004 FFF7FEFF 		bl	UsartInit
  83              	.LVL3:
  22:Modules/src/mavlink_task.c **** }
  84              		.loc 1 22 5 view .LVU13
  22:Modules/src/mavlink_task.c **** }
  85              		.loc 1 22 27 is_stmt 0 view .LVU14
  86 0008 074B     		ldr	r3, .L6
  87 000a 0293     		str	r3, [sp, #8]
  88 000c 074B     		ldr	r3, .L6+4
  89 000e 0193     		str	r3, [sp, #4]
  90 0010 0123     		movs	r3, #1
  91 0012 0093     		str	r3, [sp]
  92 0014 0023     		movs	r3, #0
  93 0016 4FF4C072 		mov	r2, #384
  94 001a 0549     		ldr	r1, .L6+8
  95 001c 0548     		ldr	r0, .L6+12
  96 001e FFF7FEFF 		bl	xTaskCreateStatic
  97              	.LVL4:
ARM GAS  C:\Users\luoha\AppData\Local\Temp\ccE4B3TR.s 			page 4


  23:Modules/src/mavlink_task.c **** 
  98              		.loc 1 23 1 view .LVU15
  99 0022 05B0     		add	sp, sp, #20
 100              	.LCFI3:
 101              		.cfi_def_cfa_offset 4
 102              		@ sp needed
 103 0024 5DF804FB 		ldr	pc, [sp], #4
 104              	.L7:
 105              		.align	2
 106              	.L6:
 107 0028 00000000 		.word	.LANCHOR0
 108 002c 00000000 		.word	.LANCHOR1
 109 0030 00000000 		.word	.LC0
 110 0034 00000000 		.word	MavlinkTask
 111              		.cfi_endproc
 112              	.LFE2768:
 114              		.section	.bss.osSys_mavlink_taskStackBuffer,"aw",%nobits
 115              		.align	2
 116              		.set	.LANCHOR1,. + 0
 119              	osSys_mavlink_taskStackBuffer:
 120 0000 00000000 		.space	1536
 120      00000000 
 120      00000000 
 120      00000000 
 120      00000000 
 121              		.section	.bss.osSys_mavlink_taskTaskBuffer,"aw",%nobits
 122              		.align	2
 123              		.set	.LANCHOR0,. + 0
 126              	osSys_mavlink_taskTaskBuffer:
 127 0000 00000000 		.space	84
 127      00000000 
 127      00000000 
 127      00000000 
 127      00000000 
 128              		.text
 129              	.Letext0:
 130              		.file 2 "e:\\gnu tools arm embedded\\9 2019-q4-major\\arm-none-eabi\\include\\machine\\_default_ty
 131              		.file 3 "e:\\gnu tools arm embedded\\9 2019-q4-major\\arm-none-eabi\\include\\sys\\_stdint.h"
 132              		.file 4 "Middlewares/Third_Party/FreeRTOS/Source/portable/GCC/ARM_CM4F/portmacro.h"
 133              		.file 5 "Middlewares/Third_Party/FreeRTOS/Source/include/FreeRTOS.h"
 134              		.file 6 "Middlewares/Third_Party/FreeRTOS/Source/include/task.h"
 135              		.file 7 "Middlewares/Third_Party/FreeRTOS/Source/include/queue.h"
 136              		.file 8 "e:\\gnu tools arm embedded\\9 2019-q4-major\\arm-none-eabi\\include\\sys\\lock.h"
 137              		.file 9 "e:\\gnu tools arm embedded\\9 2019-q4-major\\arm-none-eabi\\include\\sys\\_types.h"
 138              		.file 10 "e:\\gnu tools arm embedded\\9 2019-q4-major\\lib\\gcc\\arm-none-eabi\\9.2.1\\include\\st
 139              		.file 11 "e:\\gnu tools arm embedded\\9 2019-q4-major\\arm-none-eabi\\include\\sys\\reent.h"
 140              		.file 12 "Inc/FreeRTOSConfig.h"
 141              		.file 13 "Modules/include/MAVLink/common/../mavlink_types.h"
 142              		.file 14 "e:\\gnu tools arm embedded\\9 2019-q4-major\\arm-none-eabi\\include\\math.h"
 143              		.file 15 "Modules/include/MAVLink/common/./mavlink_msg_rc_channels_override.h"
 144              		.file 16 "Drivers/CMSIS/Include/core_cm4.h"
 145              		.file 17 "Drivers/CMSIS/Device/ST/STM32F4xx/Include/system_stm32f4xx.h"
 146              		.file 18 "Drivers/CMSIS/Device/ST/STM32F4xx/Include/stm32f407xx.h"
 147              		.file 19 "Drivers/STM32F4xx_HAL_Driver/Inc/stm32f4xx_hal_def.h"
 148              		.file 20 "Drivers/STM32F4xx_HAL_Driver/Inc/stm32f4xx_hal_dma.h"
 149              		.file 21 "Drivers/STM32F4xx_HAL_Driver/Inc/stm32f4xx_hal_i2c.h"
 150              		.file 22 "Drivers/STM32F4xx_HAL_Driver/Inc/stm32f4xx_hal_tim.h"
ARM GAS  C:\Users\luoha\AppData\Local\Temp\ccE4B3TR.s 			page 5


 151              		.file 23 "Drivers/STM32F4xx_HAL_Driver/Inc/stm32f4xx_hal_uart.h"
 152              		.file 24 "Drivers/STM32F4xx_HAL_Driver/Inc/stm32f4xx_hal.h"
 153              		.file 25 "Modules/include/utils.h"
 154              		.file 26 "Inc/usart.h"
 155              		.file 27 "Inc/tim.h"
 156              		.file 28 "Inc/i2c.h"
 157              		.file 29 "Modules/include/MAVLink/common/../mavlink_sha256.h"
ARM GAS  C:\Users\luoha\AppData\Local\Temp\ccE4B3TR.s 			page 6


DEFINED SYMBOLS
                            *ABS*:00000000 mavlink_task.c
C:\Users\luoha\AppData\Local\Temp\ccE4B3TR.s:18     .text.MavlinkTask:00000000 $t
C:\Users\luoha\AppData\Local\Temp\ccE4B3TR.s:25     .text.MavlinkTask:00000000 MavlinkTask
C:\Users\luoha\AppData\Local\Temp\ccE4B3TR.s:57     .rodata.MavlinkInit.str1.4:00000000 $d
C:\Users\luoha\AppData\Local\Temp\ccE4B3TR.s:61     .text.MavlinkInit:00000000 $t
C:\Users\luoha\AppData\Local\Temp\ccE4B3TR.s:68     .text.MavlinkInit:00000000 MavlinkInit
C:\Users\luoha\AppData\Local\Temp\ccE4B3TR.s:107    .text.MavlinkInit:00000028 $d
C:\Users\luoha\AppData\Local\Temp\ccE4B3TR.s:115    .bss.osSys_mavlink_taskStackBuffer:00000000 $d
C:\Users\luoha\AppData\Local\Temp\ccE4B3TR.s:119    .bss.osSys_mavlink_taskStackBuffer:00000000 osSys_mavlink_taskStackBuffer
C:\Users\luoha\AppData\Local\Temp\ccE4B3TR.s:122    .bss.osSys_mavlink_taskTaskBuffer:00000000 $d
C:\Users\luoha\AppData\Local\Temp\ccE4B3TR.s:126    .bss.osSys_mavlink_taskTaskBuffer:00000000 osSys_mavlink_taskTaskBuffer

UNDEFINED SYMBOLS
xTaskGetTickCount
UsartInit
xTaskCreateStatic
