ARM GAS  C:\Users\luoha\AppData\Local\Temp\cc0QzH2F.s 			page 1


   1              		.cpu cortex-m4
   2              		.eabi_attribute 27, 1
   3              		.eabi_attribute 28, 1
   4              		.eabi_attribute 20, 1
   5              		.eabi_attribute 21, 1
   6              		.eabi_attribute 23, 3
   7              		.eabi_attribute 24, 1
   8              		.eabi_attribute 25, 1
   9              		.eabi_attribute 26, 1
  10              		.eabi_attribute 30, 1
  11              		.eabi_attribute 34, 1
  12              		.eabi_attribute 18, 4
  13              		.file	"ms5611.c"
  14              		.text
  15              	.Ltext0:
  16              		.cfi_sections	.debug_frame
  17              		.section	.text.MS5611Init,"ax",%progbits
  18              		.align	1
  19              		.global	MS5611Init
  20              		.arch armv7e-m
  21              		.syntax unified
  22              		.thumb
  23              		.thumb_func
  24              		.fpu fpv4-sp-d16
  26              	MS5611Init:
  27              	.LFB138:
  28              		.file 1 "Modules/src/ms5611.c"
   1:Modules/src/ms5611.c **** #include "ms5611.h"
   2:Modules/src/ms5611.c **** 
   3:Modules/src/ms5611.c **** // 读取 MS5611 传感器，大致分为四步骤:
   4:Modules/src/ms5611.c **** // 1. RESET 芯片(delay 10ms)
   5:Modules/src/ms5611.c **** // 2. 读取 PROM 中的校准数据(（0xA0,0xA2,0xA4,0xA6,0xA8,0xAA,0xAC,0xAE）共 8 x 16bit 的
   6:Modules/src/ms5611.c **** // 3. 启动 AD 读取温度和压力的 RAW 数据
   7:Modules/src/ms5611.c **** // 4. 根据校准值、温度和压力的 RAW 值计算出真实压力和温度值。
   8:Modules/src/ms5611.c **** 
   9:Modules/src/ms5611.c **** static uint8_t command;
  10:Modules/src/ms5611.c **** static uint8_t buffer[3];
  11:Modules/src/ms5611.c **** 
  12:Modules/src/ms5611.c **** // static uint16_t SENS_t1;   // Pressure sensitivity
  13:Modules/src/ms5611.c **** // static uint16_t OFF_t1;    // Pressure offset
  14:Modules/src/ms5611.c **** static int64_t SENS_t2;    // Pressure sensitivity
  15:Modules/src/ms5611.c **** static int64_t OFF_t2;     // Pressure offset
  16:Modules/src/ms5611.c **** static uint16_t TCS;       // Temperature coefficient of pressure sensitivity
  17:Modules/src/ms5611.c **** static uint16_t TCO;       // Temperature coefficient of pressure offset
  18:Modules/src/ms5611.c **** static uint16_t TREF;      // Reference temperature
  19:Modules/src/ms5611.c **** static uint16_t TEMPSENS;  // Temperature coefficient of the temperature
  20:Modules/src/ms5611.c **** 
  21:Modules/src/ms5611.c **** // static int32_t temperature;  //° *100
  22:Modules/src/ms5611.c **** // static int32_t pressure;     //pa *100
  23:Modules/src/ms5611.c **** // static float altitude;       //m
  24:Modules/src/ms5611.c **** 
  25:Modules/src/ms5611.c **** bool MS5611Init(void) {
  29              		.loc 1 25 23 view -0
  30              		.cfi_startproc
  31              		@ args = 0, pretend = 0, frame = 16
  32              		@ frame_needed = 0, uses_anonymous_args = 0
  33 0000 30B5     		push	{r4, r5, lr}
ARM GAS  C:\Users\luoha\AppData\Local\Temp\cc0QzH2F.s 			page 2


  34              	.LCFI0:
  35              		.cfi_def_cfa_offset 12
  36              		.cfi_offset 4, -12
  37              		.cfi_offset 5, -8
  38              		.cfi_offset 14, -4
  39 0002 87B0     		sub	sp, sp, #28
  40              	.LCFI1:
  41              		.cfi_def_cfa_offset 40
  26:Modules/src/ms5611.c ****     if (HAL_I2C_IsDeviceReady(&hi2c1, MS5611_ADDR, 10, 1000) != HAL_OK) {
  42              		.loc 1 26 5 view .LVU1
  43              		.loc 1 26 9 is_stmt 0 view .LVU2
  44 0004 4FF47A73 		mov	r3, #1000
  45 0008 0A22     		movs	r2, #10
  46 000a EE21     		movs	r1, #238
  47 000c 2D48     		ldr	r0, .L10
  48 000e FFF7FEFF 		bl	HAL_I2C_IsDeviceReady
  49              	.LVL0:
  50              		.loc 1 26 8 view .LVU3
  51 0012 18B1     		cbz	r0, .L8
  27:Modules/src/ms5611.c ****         return false;
  52              		.loc 1 27 16 view .LVU4
  53 0014 0025     		movs	r5, #0
  54              	.L2:
  28:Modules/src/ms5611.c ****     }
  29:Modules/src/ms5611.c **** 
  30:Modules/src/ms5611.c ****     //RESET 芯片(delay 10ms)
  31:Modules/src/ms5611.c ****     command = 0x1e;
  32:Modules/src/ms5611.c ****     // I2C1Write(MS5611_ADDR, &command, 1);
  33:Modules/src/ms5611.c ****     if (!I2C1Write(MS5611_ADDR, &command, 1)) {
  34:Modules/src/ms5611.c ****         return false;
  35:Modules/src/ms5611.c ****     }
  36:Modules/src/ms5611.c ****     vTaskDelay(pdMS_TO_TICKS(10));
  37:Modules/src/ms5611.c **** 
  38:Modules/src/ms5611.c ****     // printf("MS5611Init\r\n");
  39:Modules/src/ms5611.c **** 
  40:Modules/src/ms5611.c ****     //读取 PROM 中的校准数据(（0xA0,0xA2,0xA4,0xA6,0xA8,0xAA,0xAC,0xAE）共 8 x 16bit 的
  41:Modules/src/ms5611.c ****     uint8_t prom_raw[2] = {0};
  42:Modules/src/ms5611.c ****     uint16_t prom[6];
  43:Modules/src/ms5611.c ****     for (uint8_t i = 0; i < 6; i++) {
  44:Modules/src/ms5611.c ****         command = MS5611_PROM_C1 + i * 2;
  45:Modules/src/ms5611.c ****         // I2C1MenRead(MS5611_ADDR, command, 1, prom_raw, 2);
  46:Modules/src/ms5611.c ****         if (!I2C1MenRead(MS5611_ADDR, command, 1, prom_raw, 2)) {
  47:Modules/src/ms5611.c ****             return false;
  48:Modules/src/ms5611.c ****         }
  49:Modules/src/ms5611.c ****         prom[i] = (int16_t)(prom_raw[0] << 8 | prom_raw[1]);
  50:Modules/src/ms5611.c ****         // printf("%u: %u\r\n", i, prom[i]);
  51:Modules/src/ms5611.c ****     }
  52:Modules/src/ms5611.c **** 
  53:Modules/src/ms5611.c ****     SENS_t2  = (int64_t)prom[0] << 15;
  54:Modules/src/ms5611.c ****     OFF_t2   = (int64_t)prom[1] << 16;
  55:Modules/src/ms5611.c ****     TCS      = prom[2];
  56:Modules/src/ms5611.c ****     TCO      = prom[3];
  57:Modules/src/ms5611.c ****     TREF     = prom[4];
  58:Modules/src/ms5611.c ****     TEMPSENS = prom[5];
  59:Modules/src/ms5611.c **** 
  60:Modules/src/ms5611.c ****     vTaskDelay(pdMS_TO_TICKS(10));
  61:Modules/src/ms5611.c **** 
ARM GAS  C:\Users\luoha\AppData\Local\Temp\cc0QzH2F.s 			page 3


  62:Modules/src/ms5611.c ****     return true;
  63:Modules/src/ms5611.c **** }
  55              		.loc 1 63 1 view .LVU5
  56 0016 2846     		mov	r0, r5
  57 0018 07B0     		add	sp, sp, #28
  58              	.LCFI2:
  59              		.cfi_remember_state
  60              		.cfi_def_cfa_offset 12
  61              		@ sp needed
  62 001a 30BD     		pop	{r4, r5, pc}
  63              	.L8:
  64              	.LCFI3:
  65              		.cfi_restore_state
  66 001c 0446     		mov	r4, r0
  31:Modules/src/ms5611.c ****     // I2C1Write(MS5611_ADDR, &command, 1);
  67              		.loc 1 31 5 is_stmt 1 view .LVU6
  31:Modules/src/ms5611.c ****     // I2C1Write(MS5611_ADDR, &command, 1);
  68              		.loc 1 31 13 is_stmt 0 view .LVU7
  69 001e 2A49     		ldr	r1, .L10+4
  70 0020 1E23     		movs	r3, #30
  71 0022 0B70     		strb	r3, [r1]
  33:Modules/src/ms5611.c ****         return false;
  72              		.loc 1 33 5 is_stmt 1 view .LVU8
  33:Modules/src/ms5611.c ****         return false;
  73              		.loc 1 33 10 is_stmt 0 view .LVU9
  74 0024 0122     		movs	r2, #1
  75 0026 EE20     		movs	r0, #238
  76 0028 FFF7FEFF 		bl	I2C1Write
  77              	.LVL1:
  33:Modules/src/ms5611.c ****         return false;
  78              		.loc 1 33 8 view .LVU10
  79 002c 0546     		mov	r5, r0
  80 002e 0028     		cmp	r0, #0
  81 0030 F1D0     		beq	.L2
  36:Modules/src/ms5611.c **** 
  82              		.loc 1 36 5 is_stmt 1 view .LVU11
  83 0032 0A20     		movs	r0, #10
  84 0034 FFF7FEFF 		bl	vTaskDelay
  85              	.LVL2:
  41:Modules/src/ms5611.c ****     uint16_t prom[6];
  86              		.loc 1 41 5 view .LVU12
  41:Modules/src/ms5611.c ****     uint16_t prom[6];
  87              		.loc 1 41 13 is_stmt 0 view .LVU13
  88 0038 0023     		movs	r3, #0
  89 003a ADF81430 		strh	r3, [sp, #20]	@ movhi
  42:Modules/src/ms5611.c ****     for (uint8_t i = 0; i < 6; i++) {
  90              		.loc 1 42 5 is_stmt 1 view .LVU14
  43:Modules/src/ms5611.c ****         command = MS5611_PROM_C1 + i * 2;
  91              		.loc 1 43 5 view .LVU15
  92              	.LBB2:
  43:Modules/src/ms5611.c ****         command = MS5611_PROM_C1 + i * 2;
  93              		.loc 1 43 10 view .LVU16
  94              	.LVL3:
  95              	.L3:
  43:Modules/src/ms5611.c ****         command = MS5611_PROM_C1 + i * 2;
  96              		.loc 1 43 25 discriminator 1 view .LVU17
  43:Modules/src/ms5611.c ****         command = MS5611_PROM_C1 + i * 2;
ARM GAS  C:\Users\luoha\AppData\Local\Temp\cc0QzH2F.s 			page 4


  97              		.loc 1 43 5 is_stmt 0 discriminator 1 view .LVU18
  98 003e 052C     		cmp	r4, #5
  99 0040 1BD8     		bhi	.L9
  44:Modules/src/ms5611.c ****         // I2C1MenRead(MS5611_ADDR, command, 1, prom_raw, 2);
 100              		.loc 1 44 9 is_stmt 1 view .LVU19
  44:Modules/src/ms5611.c ****         // I2C1MenRead(MS5611_ADDR, command, 1, prom_raw, 2);
 101              		.loc 1 44 17 is_stmt 0 view .LVU20
 102 0042 04F15101 		add	r1, r4, #81
 103 0046 4900     		lsls	r1, r1, #1
 104 0048 C9B2     		uxtb	r1, r1
 105 004a 1F4B     		ldr	r3, .L10+4
 106 004c 1970     		strb	r1, [r3]
  46:Modules/src/ms5611.c ****             return false;
 107              		.loc 1 46 9 is_stmt 1 view .LVU21
  46:Modules/src/ms5611.c ****             return false;
 108              		.loc 1 46 14 is_stmt 0 view .LVU22
 109 004e 0223     		movs	r3, #2
 110 0050 0093     		str	r3, [sp]
 111 0052 05AB     		add	r3, sp, #20
 112 0054 0122     		movs	r2, #1
 113 0056 EE20     		movs	r0, #238
 114 0058 FFF7FEFF 		bl	I2C1MenRead
 115              	.LVL4:
  46:Modules/src/ms5611.c ****             return false;
 116              		.loc 1 46 12 view .LVU23
 117 005c 78B3     		cbz	r0, .L6
  49:Modules/src/ms5611.c ****         // printf("%u: %u\r\n", i, prom[i]);
 118              		.loc 1 49 9 is_stmt 1 discriminator 2 view .LVU24
  49:Modules/src/ms5611.c ****         // printf("%u: %u\r\n", i, prom[i]);
 119              		.loc 1 49 37 is_stmt 0 discriminator 2 view .LVU25
 120 005e 9DF81420 		ldrb	r2, [sp, #20]	@ zero_extendqisi2
  49:Modules/src/ms5611.c ****         // printf("%u: %u\r\n", i, prom[i]);
 121              		.loc 1 49 56 discriminator 2 view .LVU26
 122 0062 9DF81530 		ldrb	r3, [sp, #21]	@ zero_extendqisi2
  49:Modules/src/ms5611.c ****         // printf("%u: %u\r\n", i, prom[i]);
 123              		.loc 1 49 19 discriminator 2 view .LVU27
 124 0066 43EA0223 		orr	r3, r3, r2, lsl #8
  49:Modules/src/ms5611.c ****         // printf("%u: %u\r\n", i, prom[i]);
 125              		.loc 1 49 17 discriminator 2 view .LVU28
 126 006a 06AA     		add	r2, sp, #24
 127 006c 02EB4402 		add	r2, r2, r4, lsl #1
 128 0070 22F8103C 		strh	r3, [r2, #-16]	@ movhi
  43:Modules/src/ms5611.c ****         command = MS5611_PROM_C1 + i * 2;
 129              		.loc 1 43 32 is_stmt 1 discriminator 2 view .LVU29
  43:Modules/src/ms5611.c ****         command = MS5611_PROM_C1 + i * 2;
 130              		.loc 1 43 33 is_stmt 0 discriminator 2 view .LVU30
 131 0074 0134     		adds	r4, r4, #1
 132              	.LVL5:
  43:Modules/src/ms5611.c ****         command = MS5611_PROM_C1 + i * 2;
 133              		.loc 1 43 33 discriminator 2 view .LVU31
 134 0076 E4B2     		uxtb	r4, r4
 135              	.LVL6:
  43:Modules/src/ms5611.c ****         command = MS5611_PROM_C1 + i * 2;
 136              		.loc 1 43 33 discriminator 2 view .LVU32
 137 0078 E1E7     		b	.L3
 138              	.L9:
  43:Modules/src/ms5611.c ****         command = MS5611_PROM_C1 + i * 2;
ARM GAS  C:\Users\luoha\AppData\Local\Temp\cc0QzH2F.s 			page 5


 139              		.loc 1 43 33 discriminator 2 view .LVU33
 140              	.LBE2:
  53:Modules/src/ms5611.c ****     OFF_t2   = (int64_t)prom[1] << 16;
 141              		.loc 1 53 5 is_stmt 1 view .LVU34
  53:Modules/src/ms5611.c ****     OFF_t2   = (int64_t)prom[1] << 16;
 142              		.loc 1 53 16 is_stmt 0 view .LVU35
 143 007a BDF80820 		ldrh	r2, [sp, #8]
  53:Modules/src/ms5611.c ****     OFF_t2   = (int64_t)prom[1] << 16;
 144              		.loc 1 53 33 view .LVU36
 145 007e D203     		lsls	r2, r2, #15
  53:Modules/src/ms5611.c ****     OFF_t2   = (int64_t)prom[1] << 16;
 146              		.loc 1 53 14 view .LVU37
 147 0080 124B     		ldr	r3, .L10+8
 148 0082 1A60     		str	r2, [r3]
 149 0084 0022     		movs	r2, #0
 150 0086 5A60     		str	r2, [r3, #4]
  54:Modules/src/ms5611.c ****     TCS      = prom[2];
 151              		.loc 1 54 5 is_stmt 1 view .LVU38
  54:Modules/src/ms5611.c ****     TCS      = prom[2];
 152              		.loc 1 54 16 is_stmt 0 view .LVU39
 153 0088 BDF80A20 		ldrh	r2, [sp, #10]
  54:Modules/src/ms5611.c ****     TCS      = prom[2];
 154              		.loc 1 54 33 view .LVU40
 155 008c 1204     		lsls	r2, r2, #16
  54:Modules/src/ms5611.c ****     TCS      = prom[2];
 156              		.loc 1 54 14 view .LVU41
 157 008e 104B     		ldr	r3, .L10+12
 158 0090 1A60     		str	r2, [r3]
 159 0092 0022     		movs	r2, #0
 160 0094 5A60     		str	r2, [r3, #4]
  55:Modules/src/ms5611.c ****     TCO      = prom[3];
 161              		.loc 1 55 5 is_stmt 1 view .LVU42
  55:Modules/src/ms5611.c ****     TCO      = prom[3];
 162              		.loc 1 55 20 is_stmt 0 view .LVU43
 163 0096 BDF80C20 		ldrh	r2, [sp, #12]
  55:Modules/src/ms5611.c ****     TCO      = prom[3];
 164              		.loc 1 55 14 view .LVU44
 165 009a 0E4B     		ldr	r3, .L10+16
 166 009c 1A80     		strh	r2, [r3]	@ movhi
  56:Modules/src/ms5611.c ****     TREF     = prom[4];
 167              		.loc 1 56 5 is_stmt 1 view .LVU45
  56:Modules/src/ms5611.c ****     TREF     = prom[4];
 168              		.loc 1 56 20 is_stmt 0 view .LVU46
 169 009e BDF80E20 		ldrh	r2, [sp, #14]
  56:Modules/src/ms5611.c ****     TREF     = prom[4];
 170              		.loc 1 56 14 view .LVU47
 171 00a2 0D4B     		ldr	r3, .L10+20
 172 00a4 1A80     		strh	r2, [r3]	@ movhi
  57:Modules/src/ms5611.c ****     TEMPSENS = prom[5];
 173              		.loc 1 57 5 is_stmt 1 view .LVU48
  57:Modules/src/ms5611.c ****     TEMPSENS = prom[5];
 174              		.loc 1 57 20 is_stmt 0 view .LVU49
 175 00a6 BDF81020 		ldrh	r2, [sp, #16]
  57:Modules/src/ms5611.c ****     TEMPSENS = prom[5];
 176              		.loc 1 57 14 view .LVU50
 177 00aa 0C4B     		ldr	r3, .L10+24
 178 00ac 1A80     		strh	r2, [r3]	@ movhi
ARM GAS  C:\Users\luoha\AppData\Local\Temp\cc0QzH2F.s 			page 6


  58:Modules/src/ms5611.c **** 
 179              		.loc 1 58 5 is_stmt 1 view .LVU51
  58:Modules/src/ms5611.c **** 
 180              		.loc 1 58 20 is_stmt 0 view .LVU52
 181 00ae BDF81220 		ldrh	r2, [sp, #18]
  58:Modules/src/ms5611.c **** 
 182              		.loc 1 58 14 view .LVU53
 183 00b2 0B4B     		ldr	r3, .L10+28
 184 00b4 1A80     		strh	r2, [r3]	@ movhi
  60:Modules/src/ms5611.c **** 
 185              		.loc 1 60 5 is_stmt 1 view .LVU54
 186 00b6 0A20     		movs	r0, #10
 187 00b8 FFF7FEFF 		bl	vTaskDelay
 188              	.LVL7:
  62:Modules/src/ms5611.c **** }
 189              		.loc 1 62 5 view .LVU55
  62:Modules/src/ms5611.c **** }
 190              		.loc 1 62 12 is_stmt 0 view .LVU56
 191 00bc ABE7     		b	.L2
 192              	.L6:
 193              	.LBB3:
  47:Modules/src/ms5611.c ****         }
 194              		.loc 1 47 20 view .LVU57
 195 00be 0546     		mov	r5, r0
 196 00c0 A9E7     		b	.L2
 197              	.L11:
 198 00c2 00BF     		.align	2
 199              	.L10:
 200 00c4 00000000 		.word	hi2c1
 201 00c8 00000000 		.word	.LANCHOR0
 202 00cc 00000000 		.word	.LANCHOR1
 203 00d0 00000000 		.word	.LANCHOR2
 204 00d4 00000000 		.word	.LANCHOR3
 205 00d8 00000000 		.word	.LANCHOR4
 206 00dc 00000000 		.word	.LANCHOR5
 207 00e0 00000000 		.word	.LANCHOR6
 208              	.LBE3:
 209              		.cfi_endproc
 210              	.LFE138:
 212              		.section	.text.MS5611ReadRawTemp,"ax",%progbits
 213              		.align	1
 214              		.global	MS5611ReadRawTemp
 215              		.syntax unified
 216              		.thumb
 217              		.thumb_func
 218              		.fpu fpv4-sp-d16
 220              	MS5611ReadRawTemp:
 221              	.LVL8:
 222              	.LFB139:
  64:Modules/src/ms5611.c **** 
  65:Modules/src/ms5611.c **** bool MS5611ReadRawTemp(uint32_t *value) {
 223              		.loc 1 65 41 is_stmt 1 view -0
 224              		.cfi_startproc
 225              		@ args = 0, pretend = 0, frame = 0
 226              		@ frame_needed = 0, uses_anonymous_args = 0
 227              		.loc 1 65 41 is_stmt 0 view .LVU59
 228 0000 10B5     		push	{r4, lr}
ARM GAS  C:\Users\luoha\AppData\Local\Temp\cc0QzH2F.s 			page 7


 229              	.LCFI4:
 230              		.cfi_def_cfa_offset 8
 231              		.cfi_offset 4, -8
 232              		.cfi_offset 14, -4
 233 0002 0446     		mov	r4, r0
  66:Modules/src/ms5611.c ****     command = MS5611_D2_OSR_4096;
 234              		.loc 1 66 5 is_stmt 1 view .LVU60
 235              		.loc 1 66 13 is_stmt 0 view .LVU61
 236 0004 1249     		ldr	r1, .L16
 237 0006 5823     		movs	r3, #88
 238 0008 0B70     		strb	r3, [r1]
  67:Modules/src/ms5611.c ****     // I2C1Write(MS5611_ADDR, &command, 1);
  68:Modules/src/ms5611.c ****     if (!I2C1Write(MS5611_ADDR, &command, 1)) {return false;}
 239              		.loc 1 68 5 is_stmt 1 view .LVU62
 240              		.loc 1 68 10 is_stmt 0 view .LVU63
 241 000a 0122     		movs	r2, #1
 242 000c EE20     		movs	r0, #238
 243              	.LVL9:
 244              		.loc 1 68 10 view .LVU64
 245 000e FFF7FEFF 		bl	I2C1Write
 246              	.LVL10:
 247              		.loc 1 68 8 view .LVU65
 248 0012 00B9     		cbnz	r0, .L15
 249              	.L13:
  69:Modules/src/ms5611.c **** 
  70:Modules/src/ms5611.c ****     vTaskDelay(pdMS_TO_TICKS(MS5611_CONVERSION_OSR_4096));
  71:Modules/src/ms5611.c **** 
  72:Modules/src/ms5611.c ****     command = MS5611_OSR_256;
  73:Modules/src/ms5611.c ****     // I2C1Write(MS5611_ADDR, &command, 1);
  74:Modules/src/ms5611.c ****     // I2C1Read(MS5611_ADDR, buffer, 3);
  75:Modules/src/ms5611.c ****     if (!I2C1Write(MS5611_ADDR, &command, 1)) { return false;}
  76:Modules/src/ms5611.c ****     if (!I2C1Read(MS5611_ADDR, buffer, 3)) { return false;}
  77:Modules/src/ms5611.c **** 
  78:Modules/src/ms5611.c ****     *value = (buffer[0] << 16) | (buffer[1] << 8) | buffer[2];
  79:Modules/src/ms5611.c ****     return true;
  80:Modules/src/ms5611.c **** }
 250              		.loc 1 80 1 view .LVU66
 251 0014 10BD     		pop	{r4, pc}
 252              	.LVL11:
 253              	.L15:
  70:Modules/src/ms5611.c **** 
 254              		.loc 1 70 5 is_stmt 1 view .LVU67
 255 0016 0A20     		movs	r0, #10
 256 0018 FFF7FEFF 		bl	vTaskDelay
 257              	.LVL12:
  72:Modules/src/ms5611.c ****     // I2C1Write(MS5611_ADDR, &command, 1);
 258              		.loc 1 72 5 view .LVU68
  72:Modules/src/ms5611.c ****     // I2C1Write(MS5611_ADDR, &command, 1);
 259              		.loc 1 72 13 is_stmt 0 view .LVU69
 260 001c 0C49     		ldr	r1, .L16
 261 001e 0023     		movs	r3, #0
 262 0020 0B70     		strb	r3, [r1]
  75:Modules/src/ms5611.c ****     if (!I2C1Read(MS5611_ADDR, buffer, 3)) { return false;}
 263              		.loc 1 75 5 is_stmt 1 view .LVU70
  75:Modules/src/ms5611.c ****     if (!I2C1Read(MS5611_ADDR, buffer, 3)) { return false;}
 264              		.loc 1 75 10 is_stmt 0 view .LVU71
 265 0022 0122     		movs	r2, #1
ARM GAS  C:\Users\luoha\AppData\Local\Temp\cc0QzH2F.s 			page 8


 266 0024 EE20     		movs	r0, #238
 267 0026 FFF7FEFF 		bl	I2C1Write
 268              	.LVL13:
  75:Modules/src/ms5611.c ****     if (!I2C1Read(MS5611_ADDR, buffer, 3)) { return false;}
 269              		.loc 1 75 8 view .LVU72
 270 002a 0028     		cmp	r0, #0
 271 002c F2D0     		beq	.L13
  76:Modules/src/ms5611.c **** 
 272              		.loc 1 76 5 is_stmt 1 view .LVU73
  76:Modules/src/ms5611.c **** 
 273              		.loc 1 76 10 is_stmt 0 view .LVU74
 274 002e 0322     		movs	r2, #3
 275 0030 0849     		ldr	r1, .L16+4
 276 0032 EE20     		movs	r0, #238
 277 0034 FFF7FEFF 		bl	I2C1Read
 278              	.LVL14:
  76:Modules/src/ms5611.c **** 
 279              		.loc 1 76 8 view .LVU75
 280 0038 0028     		cmp	r0, #0
 281 003a EBD0     		beq	.L13
  78:Modules/src/ms5611.c ****     return true;
 282              		.loc 1 78 5 is_stmt 1 view .LVU76
  78:Modules/src/ms5611.c ****     return true;
 283              		.loc 1 78 21 is_stmt 0 view .LVU77
 284 003c 054A     		ldr	r2, .L16+4
 285 003e 1178     		ldrb	r1, [r2]	@ zero_extendqisi2
  78:Modules/src/ms5611.c ****     return true;
 286              		.loc 1 78 41 view .LVU78
 287 0040 5378     		ldrb	r3, [r2, #1]	@ zero_extendqisi2
  78:Modules/src/ms5611.c ****     return true;
 288              		.loc 1 78 45 view .LVU79
 289 0042 1B02     		lsls	r3, r3, #8
  78:Modules/src/ms5611.c ****     return true;
 290              		.loc 1 78 32 view .LVU80
 291 0044 43EA0143 		orr	r3, r3, r1, lsl #16
  78:Modules/src/ms5611.c ****     return true;
 292              		.loc 1 78 59 view .LVU81
 293 0048 9278     		ldrb	r2, [r2, #2]	@ zero_extendqisi2
  78:Modules/src/ms5611.c ****     return true;
 294              		.loc 1 78 51 view .LVU82
 295 004a 1343     		orrs	r3, r3, r2
  78:Modules/src/ms5611.c ****     return true;
 296              		.loc 1 78 12 view .LVU83
 297 004c 2360     		str	r3, [r4]
  79:Modules/src/ms5611.c **** }
 298              		.loc 1 79 5 is_stmt 1 view .LVU84
  79:Modules/src/ms5611.c **** }
 299              		.loc 1 79 12 is_stmt 0 view .LVU85
 300 004e E1E7     		b	.L13
 301              	.L17:
 302              		.align	2
 303              	.L16:
 304 0050 00000000 		.word	.LANCHOR0
 305 0054 00000000 		.word	.LANCHOR7
 306              		.cfi_endproc
 307              	.LFE139:
 309              		.section	.text.MS5611ReadRawPress,"ax",%progbits
ARM GAS  C:\Users\luoha\AppData\Local\Temp\cc0QzH2F.s 			page 9


 310              		.align	1
 311              		.global	MS5611ReadRawPress
 312              		.syntax unified
 313              		.thumb
 314              		.thumb_func
 315              		.fpu fpv4-sp-d16
 317              	MS5611ReadRawPress:
 318              	.LVL15:
 319              	.LFB140:
  81:Modules/src/ms5611.c **** 
  82:Modules/src/ms5611.c **** bool MS5611ReadRawPress(uint32_t *value) {
 320              		.loc 1 82 42 is_stmt 1 view -0
 321              		.cfi_startproc
 322              		@ args = 0, pretend = 0, frame = 0
 323              		@ frame_needed = 0, uses_anonymous_args = 0
 324              		.loc 1 82 42 is_stmt 0 view .LVU87
 325 0000 10B5     		push	{r4, lr}
 326              	.LCFI5:
 327              		.cfi_def_cfa_offset 8
 328              		.cfi_offset 4, -8
 329              		.cfi_offset 14, -4
 330 0002 0446     		mov	r4, r0
  83:Modules/src/ms5611.c ****     command = MS5611_D1_OSR_4096;
 331              		.loc 1 83 5 is_stmt 1 view .LVU88
 332              		.loc 1 83 13 is_stmt 0 view .LVU89
 333 0004 1249     		ldr	r1, .L22
 334 0006 4823     		movs	r3, #72
 335 0008 0B70     		strb	r3, [r1]
  84:Modules/src/ms5611.c ****     // I2C1Write(MS5611_ADDR, &command, 1);
  85:Modules/src/ms5611.c ****     if (!I2C1Write(MS5611_ADDR, &command, 1)) {return false;}
 336              		.loc 1 85 5 is_stmt 1 view .LVU90
 337              		.loc 1 85 10 is_stmt 0 view .LVU91
 338 000a 0122     		movs	r2, #1
 339 000c EE20     		movs	r0, #238
 340              	.LVL16:
 341              		.loc 1 85 10 view .LVU92
 342 000e FFF7FEFF 		bl	I2C1Write
 343              	.LVL17:
 344              		.loc 1 85 8 view .LVU93
 345 0012 00B9     		cbnz	r0, .L21
 346              	.L19:
  86:Modules/src/ms5611.c **** 
  87:Modules/src/ms5611.c ****     vTaskDelay(pdMS_TO_TICKS(MS5611_CONVERSION_OSR_4096));
  88:Modules/src/ms5611.c **** 
  89:Modules/src/ms5611.c ****     command = MS5611_OSR_256;
  90:Modules/src/ms5611.c ****     // I2C1Write(MS5611_ADDR, &command, 1);
  91:Modules/src/ms5611.c ****     // I2C1Read(MS5611_ADDR, buffer, 3);
  92:Modules/src/ms5611.c ****     if (!I2C1Write(MS5611_ADDR, &command, 1)) {return false;}
  93:Modules/src/ms5611.c ****     if (!I2C1Read(MS5611_ADDR, buffer, 3)) {return false;}
  94:Modules/src/ms5611.c **** 
  95:Modules/src/ms5611.c ****     *value = (buffer[0] << 16) | (buffer[1] << 8) | buffer[2];
  96:Modules/src/ms5611.c ****     return true;
  97:Modules/src/ms5611.c **** }
 347              		.loc 1 97 1 view .LVU94
 348 0014 10BD     		pop	{r4, pc}
 349              	.LVL18:
 350              	.L21:
ARM GAS  C:\Users\luoha\AppData\Local\Temp\cc0QzH2F.s 			page 10


  87:Modules/src/ms5611.c **** 
 351              		.loc 1 87 5 is_stmt 1 view .LVU95
 352 0016 0A20     		movs	r0, #10
 353 0018 FFF7FEFF 		bl	vTaskDelay
 354              	.LVL19:
  89:Modules/src/ms5611.c ****     // I2C1Write(MS5611_ADDR, &command, 1);
 355              		.loc 1 89 5 view .LVU96
  89:Modules/src/ms5611.c ****     // I2C1Write(MS5611_ADDR, &command, 1);
 356              		.loc 1 89 13 is_stmt 0 view .LVU97
 357 001c 0C49     		ldr	r1, .L22
 358 001e 0023     		movs	r3, #0
 359 0020 0B70     		strb	r3, [r1]
  92:Modules/src/ms5611.c ****     if (!I2C1Read(MS5611_ADDR, buffer, 3)) {return false;}
 360              		.loc 1 92 5 is_stmt 1 view .LVU98
  92:Modules/src/ms5611.c ****     if (!I2C1Read(MS5611_ADDR, buffer, 3)) {return false;}
 361              		.loc 1 92 10 is_stmt 0 view .LVU99
 362 0022 0122     		movs	r2, #1
 363 0024 EE20     		movs	r0, #238
 364 0026 FFF7FEFF 		bl	I2C1Write
 365              	.LVL20:
  92:Modules/src/ms5611.c ****     if (!I2C1Read(MS5611_ADDR, buffer, 3)) {return false;}
 366              		.loc 1 92 8 view .LVU100
 367 002a 0028     		cmp	r0, #0
 368 002c F2D0     		beq	.L19
  93:Modules/src/ms5611.c **** 
 369              		.loc 1 93 5 is_stmt 1 view .LVU101
  93:Modules/src/ms5611.c **** 
 370              		.loc 1 93 10 is_stmt 0 view .LVU102
 371 002e 0322     		movs	r2, #3
 372 0030 0849     		ldr	r1, .L22+4
 373 0032 EE20     		movs	r0, #238
 374 0034 FFF7FEFF 		bl	I2C1Read
 375              	.LVL21:
  93:Modules/src/ms5611.c **** 
 376              		.loc 1 93 8 view .LVU103
 377 0038 0028     		cmp	r0, #0
 378 003a EBD0     		beq	.L19
  95:Modules/src/ms5611.c ****     return true;
 379              		.loc 1 95 5 is_stmt 1 view .LVU104
  95:Modules/src/ms5611.c ****     return true;
 380              		.loc 1 95 21 is_stmt 0 view .LVU105
 381 003c 054A     		ldr	r2, .L22+4
 382 003e 1178     		ldrb	r1, [r2]	@ zero_extendqisi2
  95:Modules/src/ms5611.c ****     return true;
 383              		.loc 1 95 41 view .LVU106
 384 0040 5378     		ldrb	r3, [r2, #1]	@ zero_extendqisi2
  95:Modules/src/ms5611.c ****     return true;
 385              		.loc 1 95 45 view .LVU107
 386 0042 1B02     		lsls	r3, r3, #8
  95:Modules/src/ms5611.c ****     return true;
 387              		.loc 1 95 32 view .LVU108
 388 0044 43EA0143 		orr	r3, r3, r1, lsl #16
  95:Modules/src/ms5611.c ****     return true;
 389              		.loc 1 95 59 view .LVU109
 390 0048 9278     		ldrb	r2, [r2, #2]	@ zero_extendqisi2
  95:Modules/src/ms5611.c ****     return true;
 391              		.loc 1 95 51 view .LVU110
ARM GAS  C:\Users\luoha\AppData\Local\Temp\cc0QzH2F.s 			page 11


 392 004a 1343     		orrs	r3, r3, r2
  95:Modules/src/ms5611.c ****     return true;
 393              		.loc 1 95 12 view .LVU111
 394 004c 2360     		str	r3, [r4]
  96:Modules/src/ms5611.c **** }
 395              		.loc 1 96 5 is_stmt 1 view .LVU112
  96:Modules/src/ms5611.c **** }
 396              		.loc 1 96 12 is_stmt 0 view .LVU113
 397 004e E1E7     		b	.L19
 398              	.L23:
 399              		.align	2
 400              	.L22:
 401 0050 00000000 		.word	.LANCHOR0
 402 0054 00000000 		.word	.LANCHOR7
 403              		.cfi_endproc
 404              	.LFE140:
 406              		.global	__aeabi_l2f
 407              		.global	__aeabi_f2d
 408              		.global	__aeabi_dsub
 409              		.global	__aeabi_dmul
 410              		.global	__aeabi_d2f
 411              		.section	.text.MS5611ReadAlt,"ax",%progbits
 412              		.align	1
 413              		.global	MS5611ReadAlt
 414              		.syntax unified
 415              		.thumb
 416              		.thumb_func
 417              		.fpu fpv4-sp-d16
 419              	MS5611ReadAlt:
 420              	.LVL22:
 421              	.LFB141:
  98:Modules/src/ms5611.c **** 
  99:Modules/src/ms5611.c **** bool MS5611ReadAlt(float* alt) {
 422              		.loc 1 99 32 is_stmt 1 view -0
 423              		.cfi_startproc
 424              		@ args = 0, pretend = 0, frame = 24
 425              		@ frame_needed = 0, uses_anonymous_args = 0
 426              		.loc 1 99 32 is_stmt 0 view .LVU115
 427 0000 2DE9F04F 		push	{r4, r5, r6, r7, r8, r9, r10, fp, lr}
 428              	.LCFI6:
 429              		.cfi_def_cfa_offset 36
 430              		.cfi_offset 4, -36
 431              		.cfi_offset 5, -32
 432              		.cfi_offset 6, -28
 433              		.cfi_offset 7, -24
 434              		.cfi_offset 8, -20
 435              		.cfi_offset 9, -16
 436              		.cfi_offset 10, -12
 437              		.cfi_offset 11, -8
 438              		.cfi_offset 14, -4
 439 0004 87B0     		sub	sp, sp, #28
 440              	.LCFI7:
 441              		.cfi_def_cfa_offset 64
 442 0006 0090     		str	r0, [sp]
 100:Modules/src/ms5611.c ****     int32_t dT;
 443              		.loc 1 100 5 is_stmt 1 view .LVU116
 101:Modules/src/ms5611.c ****     int64_t TEMP, OFF, SENS;
ARM GAS  C:\Users\luoha\AppData\Local\Temp\cc0QzH2F.s 			page 12


 444              		.loc 1 101 5 view .LVU117
 102:Modules/src/ms5611.c ****     uint32_t D1, D2;
 445              		.loc 1 102 5 view .LVU118
 103:Modules/src/ms5611.c **** 
 104:Modules/src/ms5611.c ****     // MS5611ReadRawPress(&D1);
 105:Modules/src/ms5611.c ****     // MS5611ReadRawTemp(&D2);
 106:Modules/src/ms5611.c ****     if (!MS5611ReadRawPress(&D1)) {return false;}
 446              		.loc 1 106 5 view .LVU119
 447              		.loc 1 106 10 is_stmt 0 view .LVU120
 448 0008 05A8     		add	r0, sp, #20
 449              	.LVL23:
 450              		.loc 1 106 10 view .LVU121
 451 000a FFF7FEFF 		bl	MS5611ReadRawPress
 452              	.LVL24:
 453              		.loc 1 106 8 view .LVU122
 454 000e 0546     		mov	r5, r0
 455 0010 18B9     		cbnz	r0, .L29
 456              	.L25:
 107:Modules/src/ms5611.c ****     if (!MS5611ReadRawTemp(&D2)) {return false;}
 108:Modules/src/ms5611.c **** 
 109:Modules/src/ms5611.c ****     dT   = D2 - ((int32_t)TREF << 8);                         //实际和参考温度之间的差
 110:Modules/src/ms5611.c ****     TEMP = 2000 + (((int64_t)dT * (int64_t)TEMPSENS) >> 23);  //实际温度, ° *100
 111:Modules/src/ms5611.c ****     OFF  = OFF_t2 + (((int64_t)TCO * (int64_t)dT) >> 7);      //实际温度的零偏
 112:Modules/src/ms5611.c ****     SENS = SENS_t2 + (((int64_t)TCS * (int64_t)dT) >> 8);     //实际温度的灵敏度
 113:Modules/src/ms5611.c **** 
 114:Modules/src/ms5611.c ****     //二阶温度补偿参考MS5611数据手册的第9页
 115:Modules/src/ms5611.c ****     if (TEMP < 2000) {  //当温度小于20°时二阶温度补偿
 116:Modules/src/ms5611.c ****         int64_t T2    = ((int64_t)dT * (int64_t)dT) >> 31;
 117:Modules/src/ms5611.c ****         int64_t OFF2  = (5 * (TEMP - 2000) * (TEMP - 2000)) >> 1;
 118:Modules/src/ms5611.c ****         int64_t SENS2 = OFF2 >> 1;
 119:Modules/src/ms5611.c ****         if (TEMP < -1500)  //当温度小于-15°时
 120:Modules/src/ms5611.c ****         {
 121:Modules/src/ms5611.c ****             OFF2 += 7 * (TEMP + 1500) * (TEMP + 1500);
 122:Modules/src/ms5611.c ****             SENS2 += (11 * (TEMP + 1500) * (TEMP + 1500)) >> 1;
 123:Modules/src/ms5611.c ****         }
 124:Modules/src/ms5611.c ****         TEMP -= T2;
 125:Modules/src/ms5611.c ****         OFF -= OFF2;
 126:Modules/src/ms5611.c ****         SENS -= SENS2;
 127:Modules/src/ms5611.c ****     }
 128:Modules/src/ms5611.c **** 
 129:Modules/src/ms5611.c ****     // temperature = TEMP; //° *100
 130:Modules/src/ms5611.c ****     float pressure    = (float)( (((D1 * SENS) >> 21) - OFF) >> 15 );  //单位为Pa, pa *100
 131:Modules/src/ms5611.c **** 
 132:Modules/src/ms5611.c **** 	*alt = 44330.77f * (1.0f - pow((pressure/101325.0f), 0.1902632f));
 133:Modules/src/ms5611.c ****     return true;
 134:Modules/src/ms5611.c **** }...
 457              		.loc 1 134 1 view .LVU123
 458 0012 2846     		mov	r0, r5
 459 0014 07B0     		add	sp, sp, #28
 460              	.LCFI8:
 461              		.cfi_remember_state
 462              		.cfi_def_cfa_offset 36
 463              	.LVL25:
 464              		.loc 1 134 1 view .LVU124
 465              		@ sp needed
 466 0016 BDE8F08F 		pop	{r4, r5, r6, r7, r8, r9, r10, fp, pc}
 467              	.LVL26:
ARM GAS  C:\Users\luoha\AppData\Local\Temp\cc0QzH2F.s 			page 13


 468              	.L29:
 469              	.LCFI9:
 470              		.cfi_restore_state
 107:Modules/src/ms5611.c ****     if (!MS5611ReadRawTemp(&D2)) {return false;}
 471              		.loc 1 107 5 is_stmt 1 view .LVU125
 107:Modules/src/ms5611.c ****     if (!MS5611ReadRawTemp(&D2)) {return false;}
 472              		.loc 1 107 10 is_stmt 0 view .LVU126
 473 001a 04A8     		add	r0, sp, #16
 474 001c FFF7FEFF 		bl	MS5611ReadRawTemp
 475              	.LVL27:
 107:Modules/src/ms5611.c ****     if (!MS5611ReadRawTemp(&D2)) {return false;}
 476              		.loc 1 107 8 view .LVU127
 477 0020 0546     		mov	r5, r0
 478 0022 0028     		cmp	r0, #0
 479 0024 F5D0     		beq	.L25
 109:Modules/src/ms5611.c ****     dT   = D2 - ((int32_t)TREF << 8);                         //实际和参考温度之间的差
 480              		.loc 1 109 5 is_stmt 1 view .LVU128
 109:Modules/src/ms5611.c ****     dT   = D2 - ((int32_t)TREF << 8);                         //实际和参考温度之间的差
 481              		.loc 1 109 18 is_stmt 0 view .LVU129
 482 0026 6E4B     		ldr	r3, .L30+16
 483 0028 1B88     		ldrh	r3, [r3]
 109:Modules/src/ms5611.c ****     dT   = D2 - ((int32_t)TREF << 8);                         //实际和参考温度之间的差
 484              		.loc 1 109 15 view .LVU130
 485 002a 049A     		ldr	r2, [sp, #16]
 486 002c A2EB0322 		sub	r2, r2, r3, lsl #8
 487              	.LVL28:
 110:Modules/src/ms5611.c ****     TEMP = 2000 + (((int64_t)dT * (int64_t)TEMPSENS) >> 23);  //实际温度, ° *100
 488              		.loc 1 110 5 is_stmt 1 view .LVU131
 110:Modules/src/ms5611.c ****     TEMP = 2000 + (((int64_t)dT * (int64_t)TEMPSENS) >> 23);  //实际温度, ° *100
 489              		.loc 1 110 21 is_stmt 0 view .LVU132
 490 0030 4FEAE279 		asr	r9, r2, #31
 110:Modules/src/ms5611.c ****     TEMP = 2000 + (((int64_t)dT * (int64_t)TEMPSENS) >> 23);  //实际温度, ° *100
 491              		.loc 1 110 35 view .LVU133
 492 0034 6B4B     		ldr	r3, .L30+20
 493 0036 1E88     		ldrh	r6, [r3]
 110:Modules/src/ms5611.c ****     TEMP = 2000 + (((int64_t)dT * (int64_t)TEMPSENS) >> 23);  //实际温度, ° *100
 494              		.loc 1 110 33 view .LVU134
 495 0038 A2FB0601 		umull	r0, r1, r2, r6
 496 003c 06FB0911 		mla	r1, r6, r9, r1
 110:Modules/src/ms5611.c ****     TEMP = 2000 + (((int64_t)dT * (int64_t)TEMPSENS) >> 23);  //实际温度, ° *100
 497              		.loc 1 110 54 view .LVU135
 498 0040 C40D     		lsrs	r4, r0, #23
 499 0042 44EA4124 		orr	r4, r4, r1, lsl #9
 500 0046 4FEAE15C 		asr	ip, r1, #23
 110:Modules/src/ms5611.c ****     TEMP = 2000 + (((int64_t)dT * (int64_t)TEMPSENS) >> 23);  //实际温度, ° *100
 501              		.loc 1 110 10 view .LVU136
 502 004a 14F5FA63 		adds	r3, r4, #2000
 503 004e 9A46     		mov	r10, r3
 504 0050 4CF10003 		adc	r3, ip, #0
 505 0054 9B46     		mov	fp, r3
 506              	.LVL29:
 111:Modules/src/ms5611.c ****     OFF  = OFF_t2 + (((int64_t)TCO * (int64_t)dT) >> 7);      //实际温度的零偏
 507              		.loc 1 111 5 is_stmt 1 view .LVU137
 111:Modules/src/ms5611.c ****     OFF  = OFF_t2 + (((int64_t)TCO * (int64_t)dT) >> 7);      //实际温度的零偏
 508              		.loc 1 111 23 is_stmt 0 view .LVU138
 509 0056 644B     		ldr	r3, .L30+24
 510 0058 1888     		ldrh	r0, [r3]
ARM GAS  C:\Users\luoha\AppData\Local\Temp\cc0QzH2F.s 			page 14


 111:Modules/src/ms5611.c ****     OFF  = OFF_t2 + (((int64_t)TCO * (int64_t)dT) >> 7);      //实际温度的零偏
 511              		.loc 1 111 36 view .LVU139
 512 005a A2FB0067 		umull	r6, r7, r2, r0
 513 005e 00FB0977 		mla	r7, r0, r9, r7
 111:Modules/src/ms5611.c ****     OFF  = OFF_t2 + (((int64_t)TCO * (int64_t)dT) >> 7);      //实际温度的零偏
 514              		.loc 1 111 51 view .LVU140
 515 0062 F009     		lsrs	r0, r6, #7
 516 0064 40EA4760 		orr	r0, r0, r7, lsl #25
 517 0068 F911     		asrs	r1, r7, #7
 111:Modules/src/ms5611.c ****     OFF  = OFF_t2 + (((int64_t)TCO * (int64_t)dT) >> 7);      //实际温度的零偏
 518              		.loc 1 111 19 view .LVU141
 519 006a 604E     		ldr	r6, .L30+28
 520 006c 3368     		ldr	r3, [r6]
 521 006e 7668     		ldr	r6, [r6, #4]
 111:Modules/src/ms5611.c ****     OFF  = OFF_t2 + (((int64_t)TCO * (int64_t)dT) >> 7);      //实际温度的零偏
 522              		.loc 1 111 10 view .LVU142
 523 0070 C018     		adds	r0, r0, r3
 524 0072 46EB0101 		adc	r1, r6, r1
 525              	.LVL30:
 112:Modules/src/ms5611.c ****     SENS = SENS_t2 + (((int64_t)TCS * (int64_t)dT) >> 8);     //实际温度的灵敏度
 526              		.loc 1 112 5 is_stmt 1 view .LVU143
 112:Modules/src/ms5611.c ****     SENS = SENS_t2 + (((int64_t)TCS * (int64_t)dT) >> 8);     //实际温度的灵敏度
 527              		.loc 1 112 24 is_stmt 0 view .LVU144
 528 0076 5E4B     		ldr	r3, .L30+32
 529 0078 1E88     		ldrh	r6, [r3]
 112:Modules/src/ms5611.c ****     SENS = SENS_t2 + (((int64_t)TCS * (int64_t)dT) >> 8);     //实际温度的灵敏度
 530              		.loc 1 112 37 view .LVU145
 531 007a A2FB0623 		umull	r2, r3, r2, r6
 532              	.LVL31:
 112:Modules/src/ms5611.c ****     SENS = SENS_t2 + (((int64_t)TCS * (int64_t)dT) >> 8);     //实际温度的灵敏度
 533              		.loc 1 112 37 view .LVU146
 534 007e 06FB0933 		mla	r3, r6, r9, r3
 112:Modules/src/ms5611.c ****     SENS = SENS_t2 + (((int64_t)TCS * (int64_t)dT) >> 8);     //实际温度的灵敏度
 535              		.loc 1 112 52 view .LVU147
 536 0082 160A     		lsrs	r6, r2, #8
 537 0084 46EA0366 		orr	r6, r6, r3, lsl #24
 538 0088 1F12     		asrs	r7, r3, #8
 112:Modules/src/ms5611.c ****     SENS = SENS_t2 + (((int64_t)TCS * (int64_t)dT) >> 8);     //实际温度的灵敏度
 539              		.loc 1 112 20 view .LVU148
 540 008a 5A4A     		ldr	r2, .L30+36
 541 008c 1368     		ldr	r3, [r2]
 542 008e 5268     		ldr	r2, [r2, #4]
 112:Modules/src/ms5611.c ****     SENS = SENS_t2 + (((int64_t)TCS * (int64_t)dT) >> 8);     //实际温度的灵敏度
 543              		.loc 1 112 10 view .LVU149
 544 0090 F318     		adds	r3, r6, r3
 545 0092 47EB0202 		adc	r2, r7, r2
 546              	.LVL32:
 115:Modules/src/ms5611.c ****     if (TEMP < 2000) {  //当温度小于20°时二阶温度补偿
 547              		.loc 1 115 5 is_stmt 1 view .LVU150
 115:Modules/src/ms5611.c ****     if (TEMP < 2000) {  //当温度小于20°时二阶温度补偿
 548              		.loc 1 115 8 is_stmt 0 view .LVU151
 549 0096 D146     		mov	r9, r10
 550 0098 DA46     		mov	r10, fp
 551 009a 5F46     		mov	r7, fp
 552 009c B9F5FA6F 		cmp	r9, #2000
 553 00a0 77F10007 		sbcs	r7, r7, #0
 554 00a4 62DA     		bge	.L26
ARM GAS  C:\Users\luoha\AppData\Local\Temp\cc0QzH2F.s 			page 15


 555              	.LBB4:
 116:Modules/src/ms5611.c ****         int64_t T2    = ((int64_t)dT * (int64_t)dT) >> 31;
 556              		.loc 1 116 9 is_stmt 1 view .LVU152
 557              	.LVL33:
 117:Modules/src/ms5611.c ****         int64_t OFF2  = (5 * (TEMP - 2000) * (TEMP - 2000)) >> 1;
 558              		.loc 1 117 9 view .LVU153
 117:Modules/src/ms5611.c ****         int64_t OFF2  = (5 * (TEMP - 2000) * (TEMP - 2000)) >> 1;
 559              		.loc 1 117 44 is_stmt 0 view .LVU154
 560 00a6 04FB0CFE 		mul	lr, r4, ip
 561 00aa A4FB0467 		umull	r6, r7, r4, r4
 562 00ae 07EB4E07 		add	r7, r7, lr, lsl #1
 563 00b2 4FEA8708 		lsl	r8, r7, #2
 564 00b6 4FEA860B 		lsl	fp, r6, #2
 565 00ba 48EA967E 		orr	lr, r8, r6, lsr #30
 566 00be 1BEB060B 		adds	fp, fp, r6
 567 00c2 4EEB0706 		adc	r6, lr, r7
 117:Modules/src/ms5611.c ****         int64_t OFF2  = (5 * (TEMP - 2000) * (TEMP - 2000)) >> 1;
 568              		.loc 1 117 17 view .LVU155
 569 00c6 4FEA5B08 		lsr	r8, fp, #1
 570 00ca 48EAC678 		orr	r8, r8, r6, lsl #31
 571 00ce 7710     		asrs	r7, r6, #1
 572 00d0 0197     		str	r7, [sp, #4]
 573              	.LVL34:
 118:Modules/src/ms5611.c ****         int64_t SENS2 = OFF2 >> 1;
 574              		.loc 1 118 9 is_stmt 1 view .LVU156
 118:Modules/src/ms5611.c ****         int64_t SENS2 = OFF2 >> 1;
 575              		.loc 1 118 17 is_stmt 0 view .LVU157
 576 00d2 4FEA9B0E 		lsr	lr, fp, #2
 577 00d6 4EEA867E 		orr	lr, lr, r6, lsl #30
 578 00da B610     		asrs	r6, r6, #2
 579 00dc 0296     		str	r6, [sp, #8]
 580              	.LVL35:
 119:Modules/src/ms5611.c ****         if (TEMP < -1500)  //当温度小于-15°时
 581              		.loc 1 119 9 is_stmt 1 view .LVU158
 119:Modules/src/ms5611.c ****         if (TEMP < -1500)  //当温度小于-15°时
 582              		.loc 1 119 12 is_stmt 0 view .LVU159
 583 00de 464E     		ldr	r6, .L30+40
 584              	.LVL36:
 119:Modules/src/ms5611.c ****         if (TEMP < -1500)  //当温度小于-15°时
 585              		.loc 1 119 12 view .LVU160
 586 00e0 4FF0FF37 		mov	r7, #-1
 587              	.LVL37:
 119:Modules/src/ms5611.c ****         if (TEMP < -1500)  //当温度小于-15°时
 588              		.loc 1 119 12 view .LVU161
 589 00e4 B145     		cmp	r9, r6
 590 00e6 7AEB0706 		sbcs	r6, r10, r7
 591 00ea 35DA     		bge	.L27
 121:Modules/src/ms5611.c ****             OFF2 += 7 * (TEMP + 1500) * (TEMP + 1500);
 592              		.loc 1 121 13 is_stmt 1 view .LVU162
 121:Modules/src/ms5611.c ****             OFF2 += 7 * (TEMP + 1500) * (TEMP + 1500);
 593              		.loc 1 121 31 is_stmt 0 view .LVU163
 594 00ec 40F6AC56 		movw	r6, #3500
 595 00f0 A619     		adds	r6, r4, r6
 596 00f2 4FF00004 		mov	r4, #0
 597              	.LVL38:
 121:Modules/src/ms5611.c ****             OFF2 += 7 * (TEMP + 1500) * (TEMP + 1500);
 598              		.loc 1 121 31 view .LVU164
ARM GAS  C:\Users\luoha\AppData\Local\Temp\cc0QzH2F.s 			page 16


 599 00f6 4CEB040C 		adc	ip, ip, r4
 600              	.LVL39:
 121:Modules/src/ms5611.c ****             OFF2 += 7 * (TEMP + 1500) * (TEMP + 1500);
 601              		.loc 1 121 39 view .LVU165
 602 00fa 06FB0CFC 		mul	ip, r6, ip
 603 00fe A6FB0667 		umull	r6, r7, r6, r6
 121:Modules/src/ms5611.c ****             OFF2 += 7 * (TEMP + 1500) * (TEMP + 1500);
 604              		.loc 1 121 39 view .LVU166
 605 0102 07EB4C07 		add	r7, r7, ip, lsl #1
 606 0106 4FEAC70B 		lsl	fp, r7, #3
 607 010a F400     		lsls	r4, r6, #3
 608 010c 4BEA567C 		orr	ip, fp, r6, lsr #29
 609 0110 A41B     		subs	r4, r4, r6
 610 0112 6CEB070C 		sbc	ip, ip, r7
 121:Modules/src/ms5611.c ****             OFF2 += 7 * (TEMP + 1500) * (TEMP + 1500);
 611              		.loc 1 121 18 view .LVU167
 612 0116 18EB0408 		adds	r8, r8, r4
 613              	.LVL40:
 121:Modules/src/ms5611.c ****             OFF2 += 7 * (TEMP + 1500) * (TEMP + 1500);
 614              		.loc 1 121 18 view .LVU168
 615 011a 019C     		ldr	r4, [sp, #4]
 616 011c 44EB0C04 		adc	r4, r4, ip
 617 0120 0194     		str	r4, [sp, #4]
 618              	.LVL41:
 122:Modules/src/ms5611.c ****             SENS2 += (11 * (TEMP + 1500) * (TEMP + 1500)) >> 1;
 619              		.loc 1 122 13 is_stmt 1 view .LVU169
 122:Modules/src/ms5611.c ****             SENS2 += (11 * (TEMP + 1500) * (TEMP + 1500)) >> 1;
 620              		.loc 1 122 42 is_stmt 0 view .LVU170
 621 0122 B419     		adds	r4, r6, r6
 622              	.LVL42:
 122:Modules/src/ms5611.c ****             SENS2 += (11 * (TEMP + 1500) * (TEMP + 1500)) >> 1;
 623              		.loc 1 122 42 view .LVU171
 624 0124 47EB070C 		adc	ip, r7, r7
 625 0128 A419     		adds	r4, r4, r6
 626 012a 4CEB070C 		adc	ip, ip, r7
 627 012e 4FEA8C0B 		lsl	fp, ip, #2
 628 0132 4BEA947B 		orr	fp, fp, r4, lsr #30
 629 0136 A400     		lsls	r4, r4, #2
 630 0138 0394     		str	r4, [sp, #12]
 631 013a 039C     		ldr	r4, [sp, #12]
 632 013c A41B     		subs	r4, r4, r6
 633 013e 6BEB070C 		sbc	ip, fp, r7
 122:Modules/src/ms5611.c ****             SENS2 += (11 * (TEMP + 1500) * (TEMP + 1500)) >> 1;
 634              		.loc 1 122 59 view .LVU172
 635 0142 6608     		lsrs	r6, r4, #1
 636 0144 46EACC76 		orr	r6, r6, ip, lsl #31
 637 0148 4FEA6C07 		asr	r7, ip, #1
 122:Modules/src/ms5611.c ****             SENS2 += (11 * (TEMP + 1500) * (TEMP + 1500)) >> 1;
 638              		.loc 1 122 19 view .LVU173
 639 014c 1EEB060E 		adds	lr, lr, r6
 640              	.LVL43:
 122:Modules/src/ms5611.c ****             SENS2 += (11 * (TEMP + 1500) * (TEMP + 1500)) >> 1;
 641              		.loc 1 122 19 view .LVU174
 642 0150 029C     		ldr	r4, [sp, #8]
 643 0152 47EB0404 		adc	r4, r7, r4
 644 0156 0294     		str	r4, [sp, #8]
 645              	.LVL44:
ARM GAS  C:\Users\luoha\AppData\Local\Temp\cc0QzH2F.s 			page 17


 646              	.L27:
 124:Modules/src/ms5611.c ****         TEMP -= T2;
 647              		.loc 1 124 9 is_stmt 1 view .LVU175
 125:Modules/src/ms5611.c ****         OFF -= OFF2;
 648              		.loc 1 125 9 view .LVU176
 125:Modules/src/ms5611.c ****         OFF -= OFF2;
 649              		.loc 1 125 13 is_stmt 0 view .LVU177
 650 0158 B0EB0800 		subs	r0, r0, r8
 651              	.LVL45:
 125:Modules/src/ms5611.c ****         OFF -= OFF2;
 652              		.loc 1 125 13 view .LVU178
 653 015c 019C     		ldr	r4, [sp, #4]
 654 015e 61EB0401 		sbc	r1, r1, r4
 655              	.LVL46:
 126:Modules/src/ms5611.c ****         SENS -= SENS2;
 656              		.loc 1 126 9 is_stmt 1 view .LVU179
 126:Modules/src/ms5611.c ****         SENS -= SENS2;
 657              		.loc 1 126 14 is_stmt 0 view .LVU180
 658 0162 B3EB0E03 		subs	r3, r3, lr
 659              	.LVL47:
 126:Modules/src/ms5611.c ****         SENS -= SENS2;
 660              		.loc 1 126 14 view .LVU181
 661 0166 029C     		ldr	r4, [sp, #8]
 662 0168 62EB0402 		sbc	r2, r2, r4
 663              	.LVL48:
 664              	.L26:
 126:Modules/src/ms5611.c ****         SENS -= SENS2;
 665              		.loc 1 126 14 view .LVU182
 666              	.LBE4:
 130:Modules/src/ms5611.c ****     float pressure    = (float)( (((D1 * SENS) >> 21) - OFF) >> 15 );  //单位为Pa, pa *100
 667              		.loc 1 130 5 is_stmt 1 view .LVU183
 130:Modules/src/ms5611.c ****     float pressure    = (float)( (((D1 * SENS) >> 21) - OFF) >> 15 );  //单位为Pa, pa *100
 668              		.loc 1 130 40 is_stmt 0 view .LVU184
 669 016c 059C     		ldr	r4, [sp, #20]
 670 016e A4FB0367 		umull	r6, r7, r4, r3
 671 0172 04FB0277 		mla	r7, r4, r2, r7
 130:Modules/src/ms5611.c ****     float pressure    = (float)( (((D1 * SENS) >> 21) - OFF) >> 15 );  //单位为Pa, pa *100
 672              		.loc 1 130 48 view .LVU185
 673 0176 730D     		lsrs	r3, r6, #21
 674              	.LVL49:
 130:Modules/src/ms5611.c ****     float pressure    = (float)( (((D1 * SENS) >> 21) - OFF) >> 15 );  //单位为Pa, pa *100
 675              		.loc 1 130 48 view .LVU186
 676 0178 43EAC723 		orr	r3, r3, r7, lsl #11
 677 017c 7A15     		asrs	r2, r7, #21
 130:Modules/src/ms5611.c ****     float pressure    = (float)( (((D1 * SENS) >> 21) - OFF) >> 15 );  //单位为Pa, pa *100
 678              		.loc 1 130 55 view .LVU187
 679 017e 181A     		subs	r0, r3, r0
 680              	.LVL50:
 130:Modules/src/ms5611.c ****     float pressure    = (float)( (((D1 * SENS) >> 21) - OFF) >> 15 );  //单位为Pa, pa *100
 681              		.loc 1 130 55 view .LVU188
 682 0180 62EB0101 		sbc	r1, r2, r1
 130:Modules/src/ms5611.c ****     float pressure    = (float)( (((D1 * SENS) >> 21) - OFF) >> 15 );  //单位为Pa, pa *100
 683              		.loc 1 130 62 view .LVU189
 684 0184 C00B     		lsrs	r0, r0, #15
 130:Modules/src/ms5611.c ****     float pressure    = (float)( (((D1 * SENS) >> 21) - OFF) >> 15 );  //单位为Pa, pa *100
 685              		.loc 1 130 11 view .LVU190
 686 0186 40EA4140 		orr	r0, r0, r1, lsl #17
ARM GAS  C:\Users\luoha\AppData\Local\Temp\cc0QzH2F.s 			page 18


 687 018a C913     		asrs	r1, r1, #15
 688 018c FFF7FEFF 		bl	__aeabi_l2f
 689              	.LVL51:
 130:Modules/src/ms5611.c ****     float pressure    = (float)( (((D1 * SENS) >> 21) - OFF) >> 15 );  //单位为Pa, pa *100
 690              		.loc 1 130 11 view .LVU191
 691 0190 07EE100A 		vmov	s14, r0
 692              	.LVL52:
 132:Modules/src/ms5611.c **** 	*alt = 44330.77f * (1.0f - pow((pressure/101325.0f), 0.1902632f));
 693              		.loc 1 132 2 is_stmt 1 view .LVU192
 132:Modules/src/ms5611.c **** 	*alt = 44330.77f * (1.0f - pow((pressure/101325.0f), 0.1902632f));
 694              		.loc 1 132 29 is_stmt 0 view .LVU193
 695 0194 DFED197A 		vldr.32	s15, .L30+44
 696 0198 C7EE277A 		vdiv.f32	s15, s14, s15
 697 019c 17EE900A 		vmov	r0, s15
 698              	.LVL53:
 132:Modules/src/ms5611.c **** 	*alt = 44330.77f * (1.0f - pow((pressure/101325.0f), 0.1902632f));
 699              		.loc 1 132 29 view .LVU194
 700 01a0 FFF7FEFF 		bl	__aeabi_f2d
 701              	.LVL54:
 132:Modules/src/ms5611.c **** 	*alt = 44330.77f * (1.0f - pow((pressure/101325.0f), 0.1902632f));
 702              		.loc 1 132 29 view .LVU195
 703 01a4 9FED0A1B 		vldr.64	d1, .L30
 704 01a8 41EC100B 		vmov	d0, r0, r1
 705 01ac FFF7FEFF 		bl	pow
 706              	.LVL55:
 707 01b0 53EC102B 		vmov	r2, r3, d0
 132:Modules/src/ms5611.c **** 	*alt = 44330.77f * (1.0f - pow((pressure/101325.0f), 0.1902632f));
 708              		.loc 1 132 27 view .LVU196
 709 01b4 0020     		movs	r0, #0
 710 01b6 1249     		ldr	r1, .L30+48
 711 01b8 FFF7FEFF 		bl	__aeabi_dsub
 712              	.LVL56:
 132:Modules/src/ms5611.c **** 	*alt = 44330.77f * (1.0f - pow((pressure/101325.0f), 0.1902632f));
 713              		.loc 1 132 19 view .LVU197
 714 01bc 06A3     		adr	r3, .L30+8
 715 01be D3E90023 		ldrd	r2, [r3]
 716 01c2 FFF7FEFF 		bl	__aeabi_dmul
 717              	.LVL57:
 718 01c6 FFF7FEFF 		bl	__aeabi_d2f
 719              	.LVL58:
 132:Modules/src/ms5611.c **** 	*alt = 44330.77f * (1.0f - pow((pressure/101325.0f), 0.1902632f));
 720              		.loc 1 132 7 view .LVU198
 721 01ca 009B     		ldr	r3, [sp]
 722 01cc 1860     		str	r0, [r3]	@ float
 133:Modules/src/ms5611.c ****     return true;
 723              		.loc 1 133 5 is_stmt 1 view .LVU199
 133:Modules/src/ms5611.c ****     return true;
 724              		.loc 1 133 12 is_stmt 0 view .LVU200
 725 01ce 20E7     		b	.L25
 726              	.L31:
 727              		.align	3
 728              	.L30:
 729 01d0 00000060 		.word	1610612736
 730 01d4 8B5AC83F 		.word	1070094987
 731 01d8 000000A0 		.word	-1610612736
 732 01dc 58A5E540 		.word	1088791896
 733 01e0 00000000 		.word	.LANCHOR5
ARM GAS  C:\Users\luoha\AppData\Local\Temp\cc0QzH2F.s 			page 19


 734 01e4 00000000 		.word	.LANCHOR6
 735 01e8 00000000 		.word	.LANCHOR4
 736 01ec 00000000 		.word	.LANCHOR2
 737 01f0 00000000 		.word	.LANCHOR3
 738 01f4 00000000 		.word	.LANCHOR1
 739 01f8 24FAFFFF 		.word	-1500
 740 01fc 80E6C547 		.word	1204151936
 741 0200 0000F03F 		.word	1072693248
 742              		.cfi_endproc
 743              	.LFE141:
 745              		.section	.bss.OFF_t2,"aw",%nobits
 746              		.align	3
 747              		.set	.LANCHOR2,. + 0
 750              	OFF_t2:
 751 0000 00000000 		.space	8
 751      00000000 
 752              		.section	.bss.SENS_t2,"aw",%nobits
 753              		.align	3
 754              		.set	.LANCHOR1,. + 0
 757              	SENS_t2:
 758 0000 00000000 		.space	8
 758      00000000 
 759              		.section	.bss.TCO,"aw",%nobits
 760              		.align	1
 761              		.set	.LANCHOR4,. + 0
 764              	TCO:
 765 0000 0000     		.space	2
 766              		.section	.bss.TCS,"aw",%nobits
 767              		.align	1
 768              		.set	.LANCHOR3,. + 0
 771              	TCS:
 772 0000 0000     		.space	2
 773              		.section	.bss.TEMPSENS,"aw",%nobits
 774              		.align	1
 775              		.set	.LANCHOR6,. + 0
 778              	TEMPSENS:
 779 0000 0000     		.space	2
 780              		.section	.bss.TREF,"aw",%nobits
 781              		.align	1
 782              		.set	.LANCHOR5,. + 0
 785              	TREF:
 786 0000 0000     		.space	2
 787              		.section	.bss.buffer,"aw",%nobits
 788              		.align	2
 789              		.set	.LANCHOR7,. + 0
 792              	buffer:
 793 0000 000000   		.space	3
 794              		.section	.bss.command,"aw",%nobits
 795              		.set	.LANCHOR0,. + 0
 798              	command:
 799 0000 00       		.space	1
 800              		.text
 801              	.Letext0:
 802              		.file 2 "e:\\gnu tools arm embedded\\9 2019-q4-major\\arm-none-eabi\\include\\machine\\_default_ty
 803              		.file 3 "e:\\gnu tools arm embedded\\9 2019-q4-major\\arm-none-eabi\\include\\sys\\_stdint.h"
 804              		.file 4 "Drivers/CMSIS/Include/core_cm4.h"
 805              		.file 5 "Drivers/CMSIS/Device/ST/STM32F4xx/Include/system_stm32f4xx.h"
ARM GAS  C:\Users\luoha\AppData\Local\Temp\cc0QzH2F.s 			page 20


 806              		.file 6 "Drivers/CMSIS/Device/ST/STM32F4xx/Include/stm32f407xx.h"
 807              		.file 7 "Drivers/STM32F4xx_HAL_Driver/Inc/stm32f4xx_hal_def.h"
 808              		.file 8 "Drivers/STM32F4xx_HAL_Driver/Inc/stm32f4xx_hal_dma.h"
 809              		.file 9 "Drivers/STM32F4xx_HAL_Driver/Inc/stm32f4xx_hal_i2c.h"
 810              		.file 10 "Drivers/STM32F4xx_HAL_Driver/Inc/stm32f4xx_hal_uart.h"
 811              		.file 11 "Drivers/STM32F4xx_HAL_Driver/Inc/stm32f4xx_hal.h"
 812              		.file 12 "e:\\gnu tools arm embedded\\9 2019-q4-major\\arm-none-eabi\\include\\sys\\lock.h"
 813              		.file 13 "e:\\gnu tools arm embedded\\9 2019-q4-major\\arm-none-eabi\\include\\sys\\_types.h"
 814              		.file 14 "e:\\gnu tools arm embedded\\9 2019-q4-major\\lib\\gcc\\arm-none-eabi\\9.2.1\\include\\st
 815              		.file 15 "e:\\gnu tools arm embedded\\9 2019-q4-major\\arm-none-eabi\\include\\sys\\reent.h"
 816              		.file 16 "Modules/include/utils.h"
 817              		.file 17 "Inc/i2c.h"
 818              		.file 18 "Middlewares/Third_Party/FreeRTOS/Source/portable/GCC/ARM_CM4F/portmacro.h"
 819              		.file 19 "Modules/include/i2c1.h"
 820              		.file 20 "Middlewares/Third_Party/FreeRTOS/Source/include/task.h"
 821              		.file 21 "<built-in>"
ARM GAS  C:\Users\luoha\AppData\Local\Temp\cc0QzH2F.s 			page 21


DEFINED SYMBOLS
                            *ABS*:00000000 ms5611.c
C:\Users\luoha\AppData\Local\Temp\cc0QzH2F.s:18     .text.MS5611Init:00000000 $t
C:\Users\luoha\AppData\Local\Temp\cc0QzH2F.s:26     .text.MS5611Init:00000000 MS5611Init
C:\Users\luoha\AppData\Local\Temp\cc0QzH2F.s:200    .text.MS5611Init:000000c4 $d
C:\Users\luoha\AppData\Local\Temp\cc0QzH2F.s:213    .text.MS5611ReadRawTemp:00000000 $t
C:\Users\luoha\AppData\Local\Temp\cc0QzH2F.s:220    .text.MS5611ReadRawTemp:00000000 MS5611ReadRawTemp
C:\Users\luoha\AppData\Local\Temp\cc0QzH2F.s:304    .text.MS5611ReadRawTemp:00000050 $d
C:\Users\luoha\AppData\Local\Temp\cc0QzH2F.s:310    .text.MS5611ReadRawPress:00000000 $t
C:\Users\luoha\AppData\Local\Temp\cc0QzH2F.s:317    .text.MS5611ReadRawPress:00000000 MS5611ReadRawPress
C:\Users\luoha\AppData\Local\Temp\cc0QzH2F.s:401    .text.MS5611ReadRawPress:00000050 $d
C:\Users\luoha\AppData\Local\Temp\cc0QzH2F.s:412    .text.MS5611ReadAlt:00000000 $t
C:\Users\luoha\AppData\Local\Temp\cc0QzH2F.s:419    .text.MS5611ReadAlt:00000000 MS5611ReadAlt
C:\Users\luoha\AppData\Local\Temp\cc0QzH2F.s:729    .text.MS5611ReadAlt:000001d0 $d
C:\Users\luoha\AppData\Local\Temp\cc0QzH2F.s:746    .bss.OFF_t2:00000000 $d
C:\Users\luoha\AppData\Local\Temp\cc0QzH2F.s:750    .bss.OFF_t2:00000000 OFF_t2
C:\Users\luoha\AppData\Local\Temp\cc0QzH2F.s:753    .bss.SENS_t2:00000000 $d
C:\Users\luoha\AppData\Local\Temp\cc0QzH2F.s:757    .bss.SENS_t2:00000000 SENS_t2
C:\Users\luoha\AppData\Local\Temp\cc0QzH2F.s:760    .bss.TCO:00000000 $d
C:\Users\luoha\AppData\Local\Temp\cc0QzH2F.s:764    .bss.TCO:00000000 TCO
C:\Users\luoha\AppData\Local\Temp\cc0QzH2F.s:767    .bss.TCS:00000000 $d
C:\Users\luoha\AppData\Local\Temp\cc0QzH2F.s:771    .bss.TCS:00000000 TCS
C:\Users\luoha\AppData\Local\Temp\cc0QzH2F.s:774    .bss.TEMPSENS:00000000 $d
C:\Users\luoha\AppData\Local\Temp\cc0QzH2F.s:778    .bss.TEMPSENS:00000000 TEMPSENS
C:\Users\luoha\AppData\Local\Temp\cc0QzH2F.s:781    .bss.TREF:00000000 $d
C:\Users\luoha\AppData\Local\Temp\cc0QzH2F.s:785    .bss.TREF:00000000 TREF
C:\Users\luoha\AppData\Local\Temp\cc0QzH2F.s:788    .bss.buffer:00000000 $d
C:\Users\luoha\AppData\Local\Temp\cc0QzH2F.s:792    .bss.buffer:00000000 buffer
C:\Users\luoha\AppData\Local\Temp\cc0QzH2F.s:798    .bss.command:00000000 command
C:\Users\luoha\AppData\Local\Temp\cc0QzH2F.s:799    .bss.command:00000000 $d

UNDEFINED SYMBOLS
HAL_I2C_IsDeviceReady
I2C1Write
vTaskDelay
I2C1MenRead
hi2c1
I2C1Read
__aeabi_l2f
__aeabi_f2d
__aeabi_dsub
__aeabi_dmul
__aeabi_d2f
pow
