ARM GAS  C:\Users\luoha\AppData\Local\Temp\ccgzyVZG.s 			page 1


   1              		.cpu cortex-m4
   2              		.eabi_attribute 27, 1
   3              		.eabi_attribute 28, 1
   4              		.eabi_attribute 20, 1
   5              		.eabi_attribute 21, 1
   6              		.eabi_attribute 23, 3
   7              		.eabi_attribute 24, 1
   8              		.eabi_attribute 25, 1
   9              		.eabi_attribute 26, 1
  10              		.eabi_attribute 30, 1
  11              		.eabi_attribute 34, 1
  12              		.eabi_attribute 18, 4
  13              		.file	"sensors.c"
  14              		.text
  15              	.Ltext0:
  16              		.cfi_sections	.debug_frame
  17              		.global	__aeabi_f2d
  18              		.section	.rodata.SensorsReadTask.str1.4,"aMS",%progbits,1
  19              		.align	2
  20              	.LC0:
  21 0000 25662C25 		.ascii	"%f,%d,%d,%d,%d,%d,%d,%d,%d,%d\012\000"
  21      642C2564 
  21      2C25642C 
  21      25642C25 
  21      642C2564 
  22              		.section	.text.SensorsReadTask,"ax",%progbits
  23              		.align	1
  24              		.global	SensorsReadTask
  25              		.arch armv7e-m
  26              		.syntax unified
  27              		.thumb
  28              		.thumb_func
  29              		.fpu fpv4-sp-d16
  31              	SensorsReadTask:
  32              	.LVL0:
  33              	.LFB139:
  34              		.file 1 "Modules/src/sensors.c"
   1:Modules/src/sensors.c **** #include "sensors.h"
   2:Modules/src/sensors.c **** 
   3:Modules/src/sensors.c **** xQueueHandle acc_raw_queue;
   4:Modules/src/sensors.c **** STATIC_MEM_QUEUE_ALLOC(acc_raw_queue, 1, sizeof(float) * 3);
   5:Modules/src/sensors.c **** xQueueHandle gyro_raw_queue;
   6:Modules/src/sensors.c **** STATIC_MEM_QUEUE_ALLOC(gyro_raw_queue, 1, sizeof(float) * 3);
   7:Modules/src/sensors.c **** xQueueHandle mag_raw_queue;
   8:Modules/src/sensors.c **** STATIC_MEM_QUEUE_ALLOC(mag_raw_queue, 1, sizeof(float) * 3);
   9:Modules/src/sensors.c **** 
  10:Modules/src/sensors.c **** static TaskHandle_t sensors_read_task_handle;
  11:Modules/src/sensors.c **** STATIC_MEM_TASK_ALLOC(sensors_read_task, configMINIMAL_STACK_SIZE * 3);
  12:Modules/src/sensors.c **** const TickType_t sensors_read_task_wait = pdMS_TO_TICKS(10);
  13:Modules/src/sensors.c **** 
  14:Modules/src/sensors.c **** float tmpx, tmpy, tmpz;
  15:Modules/src/sensors.c **** 
  16:Modules/src/sensors.c **** // void MPU6050Task(void *param);
  17:Modules/src/sensors.c **** // void MS5611Task(void *param);
  18:Modules/src/sensors.c **** // void HMC5883LTask(void *param);
  19:Modules/src/sensors.c **** // static TaskHandle_t mpu6050_task_handle;
  20:Modules/src/sensors.c **** // STATIC_MEM_TASK_ALLOC(mpu6050_task, configMINIMAL_STACK_SIZE * 5);
ARM GAS  C:\Users\luoha\AppData\Local\Temp\ccgzyVZG.s 			page 2


  21:Modules/src/sensors.c **** // static TaskHandle_t ms5611_task_handle;
  22:Modules/src/sensors.c **** // STATIC_MEM_TASK_ALLOC(ms5611_task, configMINIMAL_STACK_SIZE *5);
  23:Modules/src/sensors.c **** // static TaskHandle_t hmc5883l_task_handle;
  24:Modules/src/sensors.c **** // STATIC_MEM_TASK_ALLOC(hmc5883l_task, configMINIMAL_STACK_SIZE *5);
  25:Modules/src/sensors.c **** 
  26:Modules/src/sensors.c **** void SensorsInit(void) {
  27:Modules/src/sensors.c ****     acc_raw_queue = STATIC_MEM_QUEUE_CREATE(acc_raw_queue);
  28:Modules/src/sensors.c ****     gyro_raw_queue = STATIC_MEM_QUEUE_CREATE(gyro_raw_queue);
  29:Modules/src/sensors.c ****     mag_raw_queue = STATIC_MEM_QUEUE_CREATE(mag_raw_queue);
  30:Modules/src/sensors.c **** 
  31:Modules/src/sensors.c ****     sensors_read_task_handle = STATIC_MEM_TASK_CREATE(sensors_read_task, SensorsReadTask, "SensorsR
  32:Modules/src/sensors.c ****     // mpu6050_task_handle = STATIC_MEM_TASK_CREATE(mpu6050_task, MPU6050Task, "MPU6050Task", NULL,
  33:Modules/src/sensors.c ****     // ms5611_task_handle = STATIC_MEM_TASK_CREATE(ms5611_task, MS5611Task, "MS5611Task", NULL, 1);
  34:Modules/src/sensors.c ****     // hmc5883l_task_handle = STATIC_MEM_TASK_CREATE(hmc5883l_task, HMC5883LTask, "HMC5883LTask", N
  35:Modules/src/sensors.c **** }
  36:Modules/src/sensors.c **** 
  37:Modules/src/sensors.c **** void SensorsReadTask(void *param) {
  35              		.loc 1 37 35 view -0
  36              		.cfi_startproc
  37              		@ args = 0, pretend = 0, frame = 40
  38              		@ frame_needed = 0, uses_anonymous_args = 0
  39              		.loc 1 37 35 is_stmt 0 view .LVU1
  40 0000 2DE9F04F 		push	{r4, r5, r6, r7, r8, r9, r10, fp, lr}
  41              	.LCFI0:
  42              		.cfi_def_cfa_offset 36
  43              		.cfi_offset 4, -36
  44              		.cfi_offset 5, -32
  45              		.cfi_offset 6, -28
  46              		.cfi_offset 7, -24
  47              		.cfi_offset 8, -20
  48              		.cfi_offset 9, -16
  49              		.cfi_offset 10, -12
  50              		.cfi_offset 11, -8
  51              		.cfi_offset 14, -4
  52 0004 95B0     		sub	sp, sp, #84
  53              	.LCFI1:
  54              		.cfi_def_cfa_offset 120
  38:Modules/src/sensors.c ****     bool IS_SENSORS_OK = MPU6050Init();
  55              		.loc 1 38 5 is_stmt 1 view .LVU2
  56              		.loc 1 38 26 is_stmt 0 view .LVU3
  57 0006 FFF7FEFF 		bl	MPU6050Init
  58              	.LVL1:
  59              		.loc 1 38 26 view .LVU4
  60 000a 0446     		mov	r4, r0
  61              	.LVL2:
  39:Modules/src/sensors.c ****     IS_SENSORS_OK &= HMC5883LInit();
  62              		.loc 1 39 5 is_stmt 1 view .LVU5
  63              		.loc 1 39 22 is_stmt 0 view .LVU6
  64 000c FFF7FEFF 		bl	HMC5883LInit
  65              	.LVL3:
  66 0010 0440     		ands	r4, r4, r0
  67              	.LVL4:
  40:Modules/src/sensors.c ****     IS_SENSORS_OK &= MS5611Init();
  68              		.loc 1 40 5 is_stmt 1 view .LVU7
  69              		.loc 1 40 22 is_stmt 0 view .LVU8
  70 0012 FFF7FEFF 		bl	MS5611Init
  71              	.LVL5:
ARM GAS  C:\Users\luoha\AppData\Local\Temp\ccgzyVZG.s 			page 3


  41:Modules/src/sensors.c ****     if (!IS_SENSORS_OK) return;
  72              		.loc 1 41 5 is_stmt 1 view .LVU9
  73              		.loc 1 41 8 is_stmt 0 view .LVU10
  74 0016 0028     		cmp	r0, #0
  75 0018 4BD0     		beq	.L1
  76 001a E4B2     		uxtb	r4, r4
  77              		.loc 1 41 8 view .LVU11
  78 001c 002C     		cmp	r4, #0
  79 001e 48D0     		beq	.L1
  42:Modules/src/sensors.c **** 
  43:Modules/src/sensors.c ****     int16_t acc_raw[3], gyro_raw[3], mag_raw[3];
  80              		.loc 1 43 5 is_stmt 1 view .LVU12
  44:Modules/src/sensors.c ****     float acc[3], gyro[3], mag[3];
  81              		.loc 1 44 5 view .LVU13
  45:Modules/src/sensors.c **** 
  46:Modules/src/sensors.c ****     portTickType last_wait_time = xTaskGetTickCount();
  82              		.loc 1 46 5 view .LVU14
  83              		.loc 1 46 35 is_stmt 0 view .LVU15
  84 0020 FFF7FEFF 		bl	xTaskGetTickCount
  85              	.LVL6:
  86              		.loc 1 46 18 view .LVU16
  87 0024 0D90     		str	r0, [sp, #52]
  88              	.L4:
  47:Modules/src/sensors.c ****     for(;;) {
  89              		.loc 1 47 5 is_stmt 1 discriminator 1 view .LVU17
  48:Modules/src/sensors.c ****         MPU6050ReadAccelRaw(acc_raw);
  90              		.loc 1 48 9 discriminator 1 view .LVU18
  91 0026 12A8     		add	r0, sp, #72
  92 0028 FFF7FEFF 		bl	MPU6050ReadAccelRaw
  93              	.LVL7:
  49:Modules/src/sensors.c ****         MPU6050ReadGyroRaw(gyro_raw);
  94              		.loc 1 49 9 discriminator 1 view .LVU19
  95 002c 10A8     		add	r0, sp, #64
  96 002e FFF7FEFF 		bl	MPU6050ReadGyroRaw
  97              	.LVL8:
  50:Modules/src/sensors.c ****         HMC5883LReadMagRaw(mag_raw);
  98              		.loc 1 50 9 discriminator 1 view .LVU20
  99 0032 0EA8     		add	r0, sp, #56
 100 0034 FFF7FEFF 		bl	HMC5883LReadMagRaw
 101              	.LVL9:
  51:Modules/src/sensors.c **** 
  52:Modules/src/sensors.c ****         // printf("%u,%d,%d,%d,%d,%d,%d\n", pdTICKS_TO_MS(xTaskGetTickCount()), acc_raw[0], acc_raw
  53:Modules/src/sensors.c ****         // IMUCalibration(acc_raw, gyro_raw, mag_raw, acc, gyro, mag);
  54:Modules/src/sensors.c **** 
  55:Modules/src/sensors.c ****         // xQueueOverwrite(acc_raw_queue, acc_raw);
  56:Modules/src/sensors.c ****         // xQueueOverwrite(gyro_raw_queue, gyro_raw);
  57:Modules/src/sensors.c ****         // xQueueOverwrite(mag_raw_queue, mag_raw);
  58:Modules/src/sensors.c **** 
  59:Modules/src/sensors.c ****         // printf("Accel: %d, %d, %d\r\n", acc_raw[0], acc_raw[1], acc_raw[2]);
  60:Modules/src/sensors.c ****         // printf("Gyro: %d, %d, %d\r\n", gyro_raw[0], gyro_raw[1], gyro_raw[2]);
  61:Modules/src/sensors.c ****         // printf("Mag: %d, %d, %d\r\n", mag_raw[0], mag_raw[1], mag_raw[2]);
  62:Modules/src/sensors.c **** 
  63:Modules/src/sensors.c ****         // printf("Accel: %f %f %f\r\n", acc[0], acc[1], acc[2]);
  64:Modules/src/sensors.c ****         // printf("Gyro : %f %f %f\r\n", gyro[0], gyro[1], gyro[2]);
  65:Modules/src/sensors.c ****         // printf("Mag  : %f %f %f\r\n\r\n", mag[0], mag[1], mag[2]);
  66:Modules/src/sensors.c **** 
  67:Modules/src/sensors.c ****         // printf("%f,%f,%f,%f,%f,%f,%f,%f,%f,%f\n", (float)pdTICKS_TO_MS(xTaskGetTickCount()), acc
ARM GAS  C:\Users\luoha\AppData\Local\Temp\ccgzyVZG.s 			page 4


  68:Modules/src/sensors.c **** 
  69:Modules/src/sensors.c ****         printf("%f,%d,%d,%d,%d,%d,%d,%d,%d,%d\n", (float)pdTICKS_TO_MS(xTaskGetTickCount()), acc_ra
 102              		.loc 1 69 9 discriminator 1 view .LVU21
 103              		.loc 1 69 58 is_stmt 0 discriminator 1 view .LVU22
 104 0038 FFF7FEFF 		bl	xTaskGetTickCount
 105              	.LVL10:
 106 003c 4FF47A73 		mov	r3, #1000
 107 0040 03FB00F0 		mul	r0, r3, r0
 108 0044 1C4B     		ldr	r3, .L6
 109 0046 A3FB0030 		umull	r3, r0, r3, r0
 110 004a 8009     		lsrs	r0, r0, #6
 111              		.loc 1 69 101 discriminator 1 view .LVU23
 112 004c BDF94830 		ldrsh	r3, [sp, #72]
 113 0050 0B93     		str	r3, [sp, #44]
 114              		.loc 1 69 113 discriminator 1 view .LVU24
 115 0052 BDF94A40 		ldrsh	r4, [sp, #74]
 116              		.loc 1 69 125 discriminator 1 view .LVU25
 117 0056 BDF94C50 		ldrsh	r5, [sp, #76]
 118              		.loc 1 69 138 discriminator 1 view .LVU26
 119 005a BDF94060 		ldrsh	r6, [sp, #64]
 120              		.loc 1 69 151 discriminator 1 view .LVU27
 121 005e BDF94270 		ldrsh	r7, [sp, #66]
 122              		.loc 1 69 164 discriminator 1 view .LVU28
 123 0062 BDF94480 		ldrsh	r8, [sp, #68]
 124              		.loc 1 69 176 discriminator 1 view .LVU29
 125 0066 BDF93890 		ldrsh	r9, [sp, #56]
 126              		.loc 1 69 188 discriminator 1 view .LVU30
 127 006a BDF93AA0 		ldrsh	r10, [sp, #58]
 128              		.loc 1 69 200 discriminator 1 view .LVU31
 129 006e BDF93CB0 		ldrsh	fp, [sp, #60]
 130              		.loc 1 69 9 discriminator 1 view .LVU32
 131 0072 07EE900A 		vmov	s15, r0	@ int
 132 0076 F8EE677A 		vcvt.f32.u32	s15, s15
 133 007a 17EE900A 		vmov	r0, s15
 134 007e FFF7FEFF 		bl	__aeabi_f2d
 135              	.LVL11:
 136 0082 0246     		mov	r2, r0
 137 0084 0B46     		mov	r3, r1
 138 0086 CDF820B0 		str	fp, [sp, #32]
 139 008a CDF81CA0 		str	r10, [sp, #28]
 140 008e CDF81890 		str	r9, [sp, #24]
 141 0092 CDF81480 		str	r8, [sp, #20]
 142 0096 0497     		str	r7, [sp, #16]
 143 0098 0396     		str	r6, [sp, #12]
 144 009a 0295     		str	r5, [sp, #8]
 145 009c 0194     		str	r4, [sp, #4]
 146 009e 0B99     		ldr	r1, [sp, #44]
 147 00a0 0091     		str	r1, [sp]
 148 00a2 0648     		ldr	r0, .L6+4
 149 00a4 FFF7FEFF 		bl	printf
 150              	.LVL12:
  70:Modules/src/sensors.c **** 
  71:Modules/src/sensors.c ****         vTaskDelayUntil(&last_wait_time, sensors_read_task_wait);
 151              		.loc 1 71 9 is_stmt 1 discriminator 1 view .LVU33
 152 00a8 0A21     		movs	r1, #10
 153 00aa 0DA8     		add	r0, sp, #52
 154 00ac FFF7FEFF 		bl	vTaskDelayUntil
ARM GAS  C:\Users\luoha\AppData\Local\Temp\ccgzyVZG.s 			page 5


 155              	.LVL13:
  47:Modules/src/sensors.c ****         MPU6050ReadAccelRaw(acc_raw);
 156              		.loc 1 47 10 discriminator 1 view .LVU34
 157 00b0 B9E7     		b	.L4
 158              	.L1:
  72:Modules/src/sensors.c ****     }
  73:Modules/src/sensors.c **** 
  74:Modules/src/sensors.c ****     // int16_t* acc_raw  = pvPortMalloc(sizeof(int16_t) * 3);
  75:Modules/src/sensors.c ****     // int16_t* gyr_raw = pvPortMalloc(sizeof(int16_t) * 3);
  76:Modules/src/sensors.c ****     // int16_t* mag_raw = pvPortMalloc(sizeof(int16_t) * 3);
  77:Modules/src/sensors.c **** }
 159              		.loc 1 77 1 is_stmt 0 view .LVU35
 160 00b2 15B0     		add	sp, sp, #84
 161              	.LCFI2:
 162              		.cfi_def_cfa_offset 36
 163              		@ sp needed
 164 00b4 BDE8F08F 		pop	{r4, r5, r6, r7, r8, r9, r10, fp, pc}
 165              	.L7:
 166              		.align	2
 167              	.L6:
 168 00b8 D34D6210 		.word	274877907
 169 00bc 00000000 		.word	.LC0
 170              		.cfi_endproc
 171              	.LFE139:
 173              		.section	.rodata.SensorsInit.str1.4,"aMS",%progbits,1
 174              		.align	2
 175              	.LC1:
 176 0000 53656E73 		.ascii	"SensorsReadTask\000"
 176      6F727352 
 176      65616454 
 176      61736B00 
 177              		.section	.text.SensorsInit,"ax",%progbits
 178              		.align	1
 179              		.global	SensorsInit
 180              		.syntax unified
 181              		.thumb
 182              		.thumb_func
 183              		.fpu fpv4-sp-d16
 185              	SensorsInit:
 186              	.LFB138:
  26:Modules/src/sensors.c ****     acc_raw_queue = STATIC_MEM_QUEUE_CREATE(acc_raw_queue);
 187              		.loc 1 26 24 is_stmt 1 view -0
 188              		.cfi_startproc
 189              		@ args = 0, pretend = 0, frame = 0
 190              		@ frame_needed = 0, uses_anonymous_args = 0
 191 0000 10B5     		push	{r4, lr}
 192              	.LCFI3:
 193              		.cfi_def_cfa_offset 8
 194              		.cfi_offset 4, -8
 195              		.cfi_offset 14, -4
 196 0002 84B0     		sub	sp, sp, #16
 197              	.LCFI4:
 198              		.cfi_def_cfa_offset 24
  27:Modules/src/sensors.c ****     gyro_raw_queue = STATIC_MEM_QUEUE_CREATE(gyro_raw_queue);
 199              		.loc 1 27 5 view .LVU37
  27:Modules/src/sensors.c ****     gyro_raw_queue = STATIC_MEM_QUEUE_CREATE(gyro_raw_queue);
 200              		.loc 1 27 21 is_stmt 0 view .LVU38
ARM GAS  C:\Users\luoha\AppData\Local\Temp\ccgzyVZG.s 			page 6


 201 0004 0024     		movs	r4, #0
 202 0006 0094     		str	r4, [sp]
 203 0008 144B     		ldr	r3, .L10
 204 000a 154A     		ldr	r2, .L10+4
 205 000c 0C21     		movs	r1, #12
 206 000e 0120     		movs	r0, #1
 207 0010 FFF7FEFF 		bl	xQueueGenericCreateStatic
 208              	.LVL14:
  27:Modules/src/sensors.c ****     gyro_raw_queue = STATIC_MEM_QUEUE_CREATE(gyro_raw_queue);
 209              		.loc 1 27 19 view .LVU39
 210 0014 134B     		ldr	r3, .L10+8
 211 0016 1860     		str	r0, [r3]
  28:Modules/src/sensors.c ****     mag_raw_queue = STATIC_MEM_QUEUE_CREATE(mag_raw_queue);
 212              		.loc 1 28 5 is_stmt 1 view .LVU40
  28:Modules/src/sensors.c ****     mag_raw_queue = STATIC_MEM_QUEUE_CREATE(mag_raw_queue);
 213              		.loc 1 28 22 is_stmt 0 view .LVU41
 214 0018 0094     		str	r4, [sp]
 215 001a 134B     		ldr	r3, .L10+12
 216 001c 134A     		ldr	r2, .L10+16
 217 001e 0C21     		movs	r1, #12
 218 0020 0120     		movs	r0, #1
 219 0022 FFF7FEFF 		bl	xQueueGenericCreateStatic
 220              	.LVL15:
  28:Modules/src/sensors.c ****     mag_raw_queue = STATIC_MEM_QUEUE_CREATE(mag_raw_queue);
 221              		.loc 1 28 20 view .LVU42
 222 0026 124B     		ldr	r3, .L10+20
 223 0028 1860     		str	r0, [r3]
  29:Modules/src/sensors.c **** 
 224              		.loc 1 29 5 is_stmt 1 view .LVU43
  29:Modules/src/sensors.c **** 
 225              		.loc 1 29 21 is_stmt 0 view .LVU44
 226 002a 0094     		str	r4, [sp]
 227 002c 114B     		ldr	r3, .L10+24
 228 002e 124A     		ldr	r2, .L10+28
 229 0030 0C21     		movs	r1, #12
 230 0032 0120     		movs	r0, #1
 231 0034 FFF7FEFF 		bl	xQueueGenericCreateStatic
 232              	.LVL16:
  29:Modules/src/sensors.c **** 
 233              		.loc 1 29 19 view .LVU45
 234 0038 104B     		ldr	r3, .L10+32
 235 003a 1860     		str	r0, [r3]
  31:Modules/src/sensors.c ****     // mpu6050_task_handle = STATIC_MEM_TASK_CREATE(mpu6050_task, MPU6050Task, "MPU6050Task", NULL,
 236              		.loc 1 31 5 is_stmt 1 view .LVU46
  31:Modules/src/sensors.c ****     // mpu6050_task_handle = STATIC_MEM_TASK_CREATE(mpu6050_task, MPU6050Task, "MPU6050Task", NULL,
 237              		.loc 1 31 32 is_stmt 0 view .LVU47
 238 003c 104B     		ldr	r3, .L10+36
 239 003e 0293     		str	r3, [sp, #8]
 240 0040 104B     		ldr	r3, .L10+40
 241 0042 0193     		str	r3, [sp, #4]
 242 0044 0523     		movs	r3, #5
 243 0046 0093     		str	r3, [sp]
 244 0048 2346     		mov	r3, r4
 245 004a 4FF4C072 		mov	r2, #384
 246 004e 0E49     		ldr	r1, .L10+44
 247 0050 0E48     		ldr	r0, .L10+48
 248 0052 FFF7FEFF 		bl	xTaskCreateStatic
ARM GAS  C:\Users\luoha\AppData\Local\Temp\ccgzyVZG.s 			page 7


 249              	.LVL17:
  35:Modules/src/sensors.c **** 
 250              		.loc 1 35 1 view .LVU48
 251 0056 04B0     		add	sp, sp, #16
 252              	.LCFI5:
 253              		.cfi_def_cfa_offset 8
 254              		@ sp needed
 255 0058 10BD     		pop	{r4, pc}
 256              	.L11:
 257 005a 00BF     		.align	2
 258              	.L10:
 259 005c 00000000 		.word	.LANCHOR0
 260 0060 00000000 		.word	.LANCHOR1
 261 0064 00000000 		.word	acc_raw_queue
 262 0068 00000000 		.word	.LANCHOR2
 263 006c 00000000 		.word	.LANCHOR3
 264 0070 00000000 		.word	gyro_raw_queue
 265 0074 00000000 		.word	.LANCHOR4
 266 0078 00000000 		.word	.LANCHOR5
 267 007c 00000000 		.word	mag_raw_queue
 268 0080 00000000 		.word	.LANCHOR6
 269 0084 00000000 		.word	.LANCHOR7
 270 0088 00000000 		.word	.LC1
 271 008c 00000000 		.word	SensorsReadTask
 272              		.cfi_endproc
 273              	.LFE138:
 275              		.section	.text.IMUCalibration,"ax",%progbits
 276              		.align	1
 277              		.global	IMUCalibration
 278              		.syntax unified
 279              		.thumb
 280              		.thumb_func
 281              		.fpu fpv4-sp-d16
 283              	IMUCalibration:
 284              	.LVL18:
 285              	.LFB140:
  78:Modules/src/sensors.c **** 
  79:Modules/src/sensors.c **** void IMUCalibration(const int16_t *acc_raw, const int16_t *gyro_raw, const int16_t *mag_raw, float 
 286              		.loc 1 79 131 is_stmt 1 view -0
 287              		.cfi_startproc
 288              		@ args = 8, pretend = 0, frame = 0
 289              		@ frame_needed = 0, uses_anonymous_args = 0
 290              		@ link register save eliminated.
 291              		.loc 1 79 131 is_stmt 0 view .LVU50
 292 0000 F0B4     		push	{r4, r5, r6, r7}
 293              	.LCFI6:
 294              		.cfi_def_cfa_offset 16
 295              		.cfi_offset 4, -16
 296              		.cfi_offset 5, -12
 297              		.cfi_offset 6, -8
 298              		.cfi_offset 7, -4
 299 0002 049D     		ldr	r5, [sp, #16]
 300 0004 059C     		ldr	r4, [sp, #20]
  80:Modules/src/sensors.c ****     tmpz = Sa_z * (acc_raw[2] - Ba_z);
 301              		.loc 1 80 5 is_stmt 1 view .LVU51
 302              		.loc 1 80 27 is_stmt 0 view .LVU52
 303 0006 B0F90460 		ldrsh	r6, [r0, #4]
ARM GAS  C:\Users\luoha\AppData\Local\Temp\ccgzyVZG.s 			page 8


 304 000a 06EE906A 		vmov	s13, r6	@ int
 305              		.loc 1 80 31 view .LVU53
 306 000e F8EEE66A 		vcvt.f32.s32	s13, s13
 307 0012 DFED637A 		vldr.32	s15, .L14
 308 0016 76EEA76A 		vadd.f32	s13, s13, s15
 309              		.loc 1 80 17 view .LVU54
 310 001a DFED627A 		vldr.32	s15, .L14+4
 311 001e 66EEA76A 		vmul.f32	s13, s13, s15
 312              		.loc 1 80 10 view .LVU55
 313 0022 614E     		ldr	r6, .L14+8
 314 0024 C6ED006A 		vstr.32	s13, [r6]
  81:Modules/src/sensors.c ****     tmpy = Sa_y * (acc_raw[1] - Ba_y);
 315              		.loc 1 81 5 is_stmt 1 view .LVU56
 316              		.loc 1 81 27 is_stmt 0 view .LVU57
 317 0028 B0F90270 		ldrsh	r7, [r0, #2]
 318 002c 06EE107A 		vmov	s12, r7	@ int
 319              		.loc 1 81 31 view .LVU58
 320 0030 B8EEC66A 		vcvt.f32.s32	s12, s12
 321 0034 DFED5D7A 		vldr.32	s15, .L14+12
 322 0038 36EE276A 		vadd.f32	s12, s12, s15
 323              		.loc 1 81 17 view .LVU59
 324 003c DFED5C7A 		vldr.32	s15, .L14+16
 325 0040 26EE276A 		vmul.f32	s12, s12, s15
 326              		.loc 1 81 10 view .LVU60
 327 0044 5B4F     		ldr	r7, .L14+20
 328 0046 87ED006A 		vstr.32	s12, [r7]
  82:Modules/src/sensors.c ****     tmpx = Sa_x * (acc_raw[0] - Ba_x);
 329              		.loc 1 82 5 is_stmt 1 view .LVU61
 330              		.loc 1 82 27 is_stmt 0 view .LVU62
 331 004a B0F90000 		ldrsh	r0, [r0]
 332              	.LVL19:
 333              		.loc 1 82 27 view .LVU63
 334 004e 07EE100A 		vmov	s14, r0	@ int
 335              		.loc 1 82 31 view .LVU64
 336 0052 B8EEC77A 		vcvt.f32.s32	s14, s14
 337 0056 DFED587A 		vldr.32	s15, .L14+24
 338 005a 37EE277A 		vadd.f32	s14, s14, s15
 339              		.loc 1 82 17 view .LVU65
 340 005e DFED577A 		vldr.32	s15, .L14+28
 341 0062 67EE277A 		vmul.f32	s15, s14, s15
 342              		.loc 1 82 10 view .LVU66
 343 0066 5648     		ldr	r0, .L14+32
 344 0068 C0ED007A 		vstr.32	s15, [r0]
  83:Modules/src/sensors.c **** 
  84:Modules/src/sensors.c ****     acc[2] = tmpz;
 345              		.loc 1 84 5 is_stmt 1 view .LVU67
 346              		.loc 1 84 12 is_stmt 0 view .LVU68
 347 006c C3ED026A 		vstr.32	s13, [r3, #8]
  85:Modules/src/sensors.c ****     acc[1] = tmpy + Ta12 * tmpz;
 348              		.loc 1 85 5 is_stmt 1 view .LVU69
 349              		.loc 1 85 26 is_stmt 0 view .LVU70
 350 0070 9FED547A 		vldr.32	s14, .L14+36
 351 0074 26EE877A 		vmul.f32	s14, s13, s14
 352              		.loc 1 85 19 view .LVU71
 353 0078 36EE077A 		vadd.f32	s14, s12, s14
 354              		.loc 1 85 12 view .LVU72
 355 007c 83ED017A 		vstr.32	s14, [r3, #4]
ARM GAS  C:\Users\luoha\AppData\Local\Temp\ccgzyVZG.s 			page 9


  86:Modules/src/sensors.c ****     acc[0] = tmpx + Ta01 * tmpy + Ta02 * tmpz;
 356              		.loc 1 86 5 is_stmt 1 view .LVU73
 357              		.loc 1 86 26 is_stmt 0 view .LVU74
 358 0080 9FED517A 		vldr.32	s14, .L14+40
 359 0084 26EE076A 		vmul.f32	s12, s12, s14
 360              		.loc 1 86 19 view .LVU75
 361 0088 77EE867A 		vadd.f32	s15, s15, s12
 362              		.loc 1 86 40 view .LVU76
 363 008c 9FED4F7A 		vldr.32	s14, .L14+44
 364 0090 66EE876A 		vmul.f32	s13, s13, s14
 365              		.loc 1 86 33 view .LVU77
 366 0094 77EEA67A 		vadd.f32	s15, s15, s13
 367              		.loc 1 86 12 view .LVU78
 368 0098 C3ED007A 		vstr.32	s15, [r3]
  87:Modules/src/sensors.c **** 
  88:Modules/src/sensors.c ****     tmpx = Sg_x * (gyro_raw[0] - Bg_x);
 369              		.loc 1 88 5 is_stmt 1 view .LVU79
 370              		.loc 1 88 28 is_stmt 0 view .LVU80
 371 009c B1F90030 		ldrsh	r3, [r1]
 372              	.LVL20:
 373              		.loc 1 88 28 view .LVU81
 374 00a0 07EE903A 		vmov	s15, r3	@ int
 375              		.loc 1 88 32 view .LVU82
 376 00a4 F8EEE77A 		vcvt.f32.s32	s15, s15
 377 00a8 9FED497A 		vldr.32	s14, .L14+48
 378 00ac 77EEC77A 		vsub.f32	s15, s15, s14
 379              		.loc 1 88 17 view .LVU83
 380 00b0 9FED487A 		vldr.32	s14, .L14+52
 381 00b4 67EE877A 		vmul.f32	s15, s15, s14
 382              		.loc 1 88 10 view .LVU84
 383 00b8 C0ED007A 		vstr.32	s15, [r0]
  89:Modules/src/sensors.c ****     tmpy = Sg_y * (gyro_raw[1] - Bg_y);
 384              		.loc 1 89 5 is_stmt 1 view .LVU85
 385              		.loc 1 89 28 is_stmt 0 view .LVU86
 386 00bc B1F90230 		ldrsh	r3, [r1, #2]
 387 00c0 06EE903A 		vmov	s13, r3	@ int
 388              		.loc 1 89 32 view .LVU87
 389 00c4 F8EEE66A 		vcvt.f32.s32	s13, s13
 390 00c8 9FED437A 		vldr.32	s14, .L14+56
 391 00cc 76EEC76A 		vsub.f32	s13, s13, s14
 392              		.loc 1 89 17 view .LVU88
 393 00d0 9FED427A 		vldr.32	s14, .L14+60
 394 00d4 66EE876A 		vmul.f32	s13, s13, s14
 395              		.loc 1 89 10 view .LVU89
 396 00d8 C7ED006A 		vstr.32	s13, [r7]
  90:Modules/src/sensors.c ****     tmpz = Sg_z * (gyro_raw[2] - Bg_z);
 397              		.loc 1 90 5 is_stmt 1 view .LVU90
 398              		.loc 1 90 28 is_stmt 0 view .LVU91
 399 00dc B1F90430 		ldrsh	r3, [r1, #4]
 400 00e0 07EE103A 		vmov	s14, r3	@ int
 401              		.loc 1 90 32 view .LVU92
 402 00e4 B8EEC77A 		vcvt.f32.s32	s14, s14
 403 00e8 9FED3D6A 		vldr.32	s12, .L14+64
 404 00ec 37EE067A 		vadd.f32	s14, s14, s12
 405              		.loc 1 90 17 view .LVU93
 406 00f0 9FED3C6A 		vldr.32	s12, .L14+68
 407 00f4 27EE067A 		vmul.f32	s14, s14, s12
ARM GAS  C:\Users\luoha\AppData\Local\Temp\ccgzyVZG.s 			page 10


 408              		.loc 1 90 10 view .LVU94
 409 00f8 86ED007A 		vstr.32	s14, [r6]
  91:Modules/src/sensors.c **** 
  92:Modules/src/sensors.c ****     gyro[0] = (float)tmpx + Tg01 * tmpy + Tg02 * tmpz;
 410              		.loc 1 92 5 is_stmt 1 view .LVU95
 411              		.loc 1 92 34 is_stmt 0 view .LVU96
 412 00fc 9FED3A6A 		vldr.32	s12, .L14+72
 413 0100 66EE866A 		vmul.f32	s13, s13, s12
 414              		.loc 1 92 27 view .LVU97
 415 0104 77EEA67A 		vadd.f32	s15, s15, s13
 416              		.loc 1 92 48 view .LVU98
 417 0108 DFED386A 		vldr.32	s13, .L14+76
 418 010c 27EE267A 		vmul.f32	s14, s14, s13
 419              		.loc 1 92 41 view .LVU99
 420 0110 77EE877A 		vadd.f32	s15, s15, s14
 421              		.loc 1 92 13 view .LVU100
 422 0114 C5ED007A 		vstr.32	s15, [r5]
  93:Modules/src/sensors.c ****     gyro[1] = Tg10 * tmpx + (float)tmpy + Tg12 * tmpz;
 423              		.loc 1 93 5 is_stmt 1 view .LVU101
 424              		.loc 1 93 20 is_stmt 0 view .LVU102
 425 0118 90ED007A 		vldr.32	s14, [r0]
 426 011c DFED347A 		vldr.32	s15, .L14+80
 427 0120 67EE277A 		vmul.f32	s15, s14, s15
 428              		.loc 1 93 27 view .LVU103
 429 0124 97ED006A 		vldr.32	s12, [r7]
 430 0128 77EE867A 		vadd.f32	s15, s15, s12
 431              		.loc 1 93 48 view .LVU104
 432 012c D6ED006A 		vldr.32	s13, [r6]
 433 0130 DFED305A 		vldr.32	s11, .L14+84
 434 0134 66EEA55A 		vmul.f32	s11, s13, s11
 435              		.loc 1 93 41 view .LVU105
 436 0138 77EEA57A 		vadd.f32	s15, s15, s11
 437              		.loc 1 93 13 view .LVU106
 438 013c C5ED017A 		vstr.32	s15, [r5, #4]
  94:Modules/src/sensors.c ****     gyro[2] = Tg20 * tmpx + Tg21 * tmpy + (float)tmpz;
 439              		.loc 1 94 5 is_stmt 1 view .LVU107
 440              		.loc 1 94 20 is_stmt 0 view .LVU108
 441 0140 DFED2D7A 		vldr.32	s15, .L14+88
 442 0144 27EE277A 		vmul.f32	s14, s14, s15
 443              		.loc 1 94 34 view .LVU109
 444 0148 DFED2C7A 		vldr.32	s15, .L14+92
 445 014c 26EE276A 		vmul.f32	s12, s12, s15
 446              		.loc 1 94 27 view .LVU110
 447 0150 37EE067A 		vadd.f32	s14, s14, s12
 448              		.loc 1 94 41 view .LVU111
 449 0154 36EE877A 		vadd.f32	s14, s13, s14
 450              		.loc 1 94 13 view .LVU112
 451 0158 85ED027A 		vstr.32	s14, [r5, #8]
  95:Modules/src/sensors.c **** 
  96:Modules/src/sensors.c ****     mag[0] = Sm_x * mag_raw[0];
 452              		.loc 1 96 5 is_stmt 1 view .LVU113
 453              		.loc 1 96 28 is_stmt 0 view .LVU114
 454 015c B2F90030 		ldrsh	r3, [r2]
 455 0160 07EE103A 		vmov	s14, r3	@ int
 456              		.loc 1 96 19 view .LVU115
 457 0164 B8EEC77A 		vcvt.f32.s32	s14, s14
 458 0168 DFED256A 		vldr.32	s13, .L14+96
ARM GAS  C:\Users\luoha\AppData\Local\Temp\ccgzyVZG.s 			page 11


 459 016c 27EE267A 		vmul.f32	s14, s14, s13
 460              		.loc 1 96 12 view .LVU116
 461 0170 84ED007A 		vstr.32	s14, [r4]
  97:Modules/src/sensors.c ****     mag[1] = Sm_y * mag_raw[1];
 462              		.loc 1 97 5 is_stmt 1 view .LVU117
 463              		.loc 1 97 28 is_stmt 0 view .LVU118
 464 0174 B2F90230 		ldrsh	r3, [r2, #2]
 465 0178 07EE103A 		vmov	s14, r3	@ int
 466              		.loc 1 97 19 view .LVU119
 467 017c B8EEC77A 		vcvt.f32.s32	s14, s14
 468 0180 27EE267A 		vmul.f32	s14, s14, s13
 469              		.loc 1 97 12 view .LVU120
 470 0184 84ED017A 		vstr.32	s14, [r4, #4]
  98:Modules/src/sensors.c ****     mag[2] = Sm_z * mag_raw[2];
 471              		.loc 1 98 5 is_stmt 1 view .LVU121
 472              		.loc 1 98 28 is_stmt 0 view .LVU122
 473 0188 B2F90430 		ldrsh	r3, [r2, #4]
 474 018c 07EE903A 		vmov	s15, r3	@ int
 475              		.loc 1 98 19 view .LVU123
 476 0190 F8EEE77A 		vcvt.f32.s32	s15, s15
 477 0194 67EEA67A 		vmul.f32	s15, s15, s13
 478              		.loc 1 98 12 view .LVU124
 479 0198 C4ED027A 		vstr.32	s15, [r4, #8]
  99:Modules/src/sensors.c **** }
 480              		.loc 1 99 1 view .LVU125
 481 019c F0BC     		pop	{r4, r5, r6, r7}
 482              	.LCFI7:
 483              		.cfi_restore 7
 484              		.cfi_restore 6
 485              		.cfi_restore 5
 486              		.cfi_restore 4
 487              		.cfi_def_cfa_offset 0
 488              	.LVL21:
 489              		.loc 1 99 1 view .LVU126
 490 019e 7047     		bx	lr
 491              	.L15:
 492              		.align	2
 493              	.L14:
 494 01a0 C395D243 		.word	1137874371
 495 01a4 BDC11BBA 		.word	-1172586051
 496 01a8 00000000 		.word	tmpz
 497 01ac D7A3C842 		.word	1120445399
 498 01b0 E0EA1BBA 		.word	-1172575520
 499 01b4 00000000 		.word	tmpy
 500 01b8 AAC16B44 		.word	1147912618
 501 01bc 88621CBA 		.word	-1172544888
 502 01c0 00000000 		.word	tmpx
 503 01c4 F8FBE6BB 		.word	-1142490120
 504 01c8 94B7BE38 		.word	952022932
 505 01cc B03196BB 		.word	-1147784784
 506 01d0 0F9CBC41 		.word	1102879759
 507 01d4 0B248B3A 		.word	982197259
 508 01d8 4BE52940 		.word	1076487499
 509 01dc E4748A3A 		.word	982152420
 510 01e0 F2B00E41 		.word	1091481842
 511 01e4 5E528C3A 		.word	982274654
 512 01e8 15D426BA 		.word	-1171860459
ARM GAS  C:\Users\luoha\AppData\Local\Temp\ccgzyVZG.s 			page 12


 513 01ec FCABA63B 		.word	1000778748
 514 01f0 387832BB 		.word	-1154320328
 515 01f4 AC4FBD3B 		.word	1002262444
 516 01f8 3328073C 		.word	1007102003
 517 01fc ECD2503C 		.word	1011929836
 518 0200 C47F703A 		.word	980451268
 519              		.cfi_endproc
 520              	.LFE140:
 522              		.comm	tmpz,4,4
 523              		.comm	tmpy,4,4
 524              		.comm	tmpx,4,4
 525              		.global	sensors_read_task_wait
 526              		.comm	mag_raw_queue,4,4
 527              		.comm	gyro_raw_queue,4,4
 528              		.comm	acc_raw_queue,4,4
 529              		.section	.bss.osSys_acc_raw_queueMgm,"aw",%nobits
 530              		.align	2
 531              		.set	.LANCHOR0,. + 0
 534              	osSys_acc_raw_queueMgm:
 535 0000 00000000 		.space	72
 535      00000000 
 535      00000000 
 535      00000000 
 535      00000000 
 536              		.section	.bss.osSys_acc_raw_queueStorage,"aw",%nobits
 537              		.align	2
 538              		.set	.LANCHOR1,. + 0
 541              	osSys_acc_raw_queueStorage:
 542 0000 00000000 		.space	12
 542      00000000 
 542      00000000 
 543              		.section	.bss.osSys_gyro_raw_queueMgm,"aw",%nobits
 544              		.align	2
 545              		.set	.LANCHOR2,. + 0
 548              	osSys_gyro_raw_queueMgm:
 549 0000 00000000 		.space	72
 549      00000000 
 549      00000000 
 549      00000000 
 549      00000000 
 550              		.section	.bss.osSys_gyro_raw_queueStorage,"aw",%nobits
 551              		.align	2
 552              		.set	.LANCHOR3,. + 0
 555              	osSys_gyro_raw_queueStorage:
 556 0000 00000000 		.space	12
 556      00000000 
 556      00000000 
 557              		.section	.bss.osSys_mag_raw_queueMgm,"aw",%nobits
 558              		.align	2
 559              		.set	.LANCHOR4,. + 0
 562              	osSys_mag_raw_queueMgm:
 563 0000 00000000 		.space	72
 563      00000000 
 563      00000000 
 563      00000000 
 563      00000000 
 564              		.section	.bss.osSys_mag_raw_queueStorage,"aw",%nobits
ARM GAS  C:\Users\luoha\AppData\Local\Temp\ccgzyVZG.s 			page 13


 565              		.align	2
 566              		.set	.LANCHOR5,. + 0
 569              	osSys_mag_raw_queueStorage:
 570 0000 00000000 		.space	12
 570      00000000 
 570      00000000 
 571              		.section	.bss.osSys_sensors_read_taskStackBuffer,"aw",%nobits
 572              		.align	2
 573              		.set	.LANCHOR7,. + 0
 576              	osSys_sensors_read_taskStackBuffer:
 577 0000 00000000 		.space	1536
 577      00000000 
 577      00000000 
 577      00000000 
 577      00000000 
 578              		.section	.bss.osSys_sensors_read_taskTaskBuffer,"aw",%nobits
 579              		.align	2
 580              		.set	.LANCHOR6,. + 0
 583              	osSys_sensors_read_taskTaskBuffer:
 584 0000 00000000 		.space	84
 584      00000000 
 584      00000000 
 584      00000000 
 584      00000000 
 585              		.section	.rodata.sensors_read_task_wait,"a"
 586              		.align	2
 589              	sensors_read_task_wait:
 590 0000 0A000000 		.word	10
 591              		.text
 592              	.Letext0:
 593              		.file 2 "c:\\gnu_tools_arm_embedded\\arm-none-eabi\\include\\machine\\_default_types.h"
 594              		.file 3 "c:\\gnu_tools_arm_embedded\\arm-none-eabi\\include\\sys\\_stdint.h"
 595              		.file 4 "Middlewares/Third_Party/FreeRTOS/Source/portable/GCC/ARM_CM4F/portmacro.h"
 596              		.file 5 "Middlewares/Third_Party/FreeRTOS/Source/include/FreeRTOS.h"
 597              		.file 6 "Inc/FreeRTOSConfig.h"
 598              		.file 7 "Drivers/CMSIS/Include/core_cm4.h"
 599              		.file 8 "Drivers/CMSIS/Device/ST/STM32F4xx/Include/system_stm32f4xx.h"
 600              		.file 9 "Drivers/CMSIS/Device/ST/STM32F4xx/Include/stm32f407xx.h"
 601              		.file 10 "Drivers/STM32F4xx_HAL_Driver/Inc/stm32f4xx_hal_def.h"
 602              		.file 11 "Drivers/STM32F4xx_HAL_Driver/Inc/stm32f4xx_hal_dma.h"
 603              		.file 12 "Drivers/STM32F4xx_HAL_Driver/Inc/stm32f4xx_hal_i2c.h"
 604              		.file 13 "Drivers/STM32F4xx_HAL_Driver/Inc/stm32f4xx_hal_uart.h"
 605              		.file 14 "Drivers/STM32F4xx_HAL_Driver/Inc/stm32f4xx_hal.h"
 606              		.file 15 "c:\\gnu_tools_arm_embedded\\arm-none-eabi\\include\\sys\\lock.h"
 607              		.file 16 "c:\\gnu_tools_arm_embedded\\arm-none-eabi\\include\\sys\\_types.h"
 608              		.file 17 "c:\\gnu_tools_arm_embedded\\lib\\gcc\\arm-none-eabi\\9.2.1\\include\\stddef.h"
 609              		.file 18 "c:\\gnu_tools_arm_embedded\\arm-none-eabi\\include\\sys\\reent.h"
 610              		.file 19 "Modules/include/utils.h"
 611              		.file 20 "Inc/i2c.h"
 612              		.file 21 "Middlewares/Third_Party/FreeRTOS/Source/include/task.h"
 613              		.file 22 "Middlewares/Third_Party/FreeRTOS/Source/include/queue.h"
 614              		.file 23 "Modules/include/sensors.h"
 615              		.file 24 "Modules/include/mpu6050.h"
 616              		.file 25 "Modules/include/hmc5883l.h"
 617              		.file 26 "Modules/include/ms5611.h"
 618              		.file 27 "c:\\gnu_tools_arm_embedded\\arm-none-eabi\\include\\stdio.h"
ARM GAS  C:\Users\luoha\AppData\Local\Temp\ccgzyVZG.s 			page 14


DEFINED SYMBOLS
                            *ABS*:00000000 sensors.c
C:\Users\luoha\AppData\Local\Temp\ccgzyVZG.s:19     .rodata.SensorsReadTask.str1.4:00000000 $d
C:\Users\luoha\AppData\Local\Temp\ccgzyVZG.s:23     .text.SensorsReadTask:00000000 $t
C:\Users\luoha\AppData\Local\Temp\ccgzyVZG.s:31     .text.SensorsReadTask:00000000 SensorsReadTask
C:\Users\luoha\AppData\Local\Temp\ccgzyVZG.s:168    .text.SensorsReadTask:000000b8 $d
C:\Users\luoha\AppData\Local\Temp\ccgzyVZG.s:174    .rodata.SensorsInit.str1.4:00000000 $d
C:\Users\luoha\AppData\Local\Temp\ccgzyVZG.s:178    .text.SensorsInit:00000000 $t
C:\Users\luoha\AppData\Local\Temp\ccgzyVZG.s:185    .text.SensorsInit:00000000 SensorsInit
C:\Users\luoha\AppData\Local\Temp\ccgzyVZG.s:259    .text.SensorsInit:0000005c $d
                            *COM*:00000004 acc_raw_queue
                            *COM*:00000004 gyro_raw_queue
                            *COM*:00000004 mag_raw_queue
C:\Users\luoha\AppData\Local\Temp\ccgzyVZG.s:276    .text.IMUCalibration:00000000 $t
C:\Users\luoha\AppData\Local\Temp\ccgzyVZG.s:283    .text.IMUCalibration:00000000 IMUCalibration
C:\Users\luoha\AppData\Local\Temp\ccgzyVZG.s:494    .text.IMUCalibration:000001a0 $d
                            *COM*:00000004 tmpz
                            *COM*:00000004 tmpy
                            *COM*:00000004 tmpx
C:\Users\luoha\AppData\Local\Temp\ccgzyVZG.s:589    .rodata.sensors_read_task_wait:00000000 sensors_read_task_wait
C:\Users\luoha\AppData\Local\Temp\ccgzyVZG.s:530    .bss.osSys_acc_raw_queueMgm:00000000 $d
C:\Users\luoha\AppData\Local\Temp\ccgzyVZG.s:534    .bss.osSys_acc_raw_queueMgm:00000000 osSys_acc_raw_queueMgm
C:\Users\luoha\AppData\Local\Temp\ccgzyVZG.s:537    .bss.osSys_acc_raw_queueStorage:00000000 $d
C:\Users\luoha\AppData\Local\Temp\ccgzyVZG.s:541    .bss.osSys_acc_raw_queueStorage:00000000 osSys_acc_raw_queueStorage
C:\Users\luoha\AppData\Local\Temp\ccgzyVZG.s:544    .bss.osSys_gyro_raw_queueMgm:00000000 $d
C:\Users\luoha\AppData\Local\Temp\ccgzyVZG.s:548    .bss.osSys_gyro_raw_queueMgm:00000000 osSys_gyro_raw_queueMgm
C:\Users\luoha\AppData\Local\Temp\ccgzyVZG.s:551    .bss.osSys_gyro_raw_queueStorage:00000000 $d
C:\Users\luoha\AppData\Local\Temp\ccgzyVZG.s:555    .bss.osSys_gyro_raw_queueStorage:00000000 osSys_gyro_raw_queueStorage
C:\Users\luoha\AppData\Local\Temp\ccgzyVZG.s:558    .bss.osSys_mag_raw_queueMgm:00000000 $d
C:\Users\luoha\AppData\Local\Temp\ccgzyVZG.s:562    .bss.osSys_mag_raw_queueMgm:00000000 osSys_mag_raw_queueMgm
C:\Users\luoha\AppData\Local\Temp\ccgzyVZG.s:565    .bss.osSys_mag_raw_queueStorage:00000000 $d
C:\Users\luoha\AppData\Local\Temp\ccgzyVZG.s:569    .bss.osSys_mag_raw_queueStorage:00000000 osSys_mag_raw_queueStorage
C:\Users\luoha\AppData\Local\Temp\ccgzyVZG.s:572    .bss.osSys_sensors_read_taskStackBuffer:00000000 $d
C:\Users\luoha\AppData\Local\Temp\ccgzyVZG.s:576    .bss.osSys_sensors_read_taskStackBuffer:00000000 osSys_sensors_read_taskStackBuffer
C:\Users\luoha\AppData\Local\Temp\ccgzyVZG.s:579    .bss.osSys_sensors_read_taskTaskBuffer:00000000 $d
C:\Users\luoha\AppData\Local\Temp\ccgzyVZG.s:583    .bss.osSys_sensors_read_taskTaskBuffer:00000000 osSys_sensors_read_taskTaskBuffer
C:\Users\luoha\AppData\Local\Temp\ccgzyVZG.s:586    .rodata.sensors_read_task_wait:00000000 $d

UNDEFINED SYMBOLS
__aeabi_f2d
MPU6050Init
HMC5883LInit
MS5611Init
xTaskGetTickCount
MPU6050ReadAccelRaw
MPU6050ReadGyroRaw
HMC5883LReadMagRaw
printf
vTaskDelayUntil
xQueueGenericCreateStatic
xTaskCreateStatic
