ARM GAS  C:\Users\luoha\AppData\Local\Temp\cchx2Ejd.s 			page 1


   1              		.cpu cortex-m4
   2              		.eabi_attribute 27, 1
   3              		.eabi_attribute 28, 1
   4              		.eabi_attribute 20, 1
   5              		.eabi_attribute 21, 1
   6              		.eabi_attribute 23, 3
   7              		.eabi_attribute 24, 1
   8              		.eabi_attribute 25, 1
   9              		.eabi_attribute 26, 1
  10              		.eabi_attribute 30, 1
  11              		.eabi_attribute 34, 1
  12              		.eabi_attribute 18, 4
  13              		.file	"sensors.c"
  14              		.text
  15              	.Ltext0:
  16              		.cfi_sections	.debug_frame
  17              		.section	.rodata.MS5611Task.str1.4,"aMS",%progbits,1
  18              		.align	2
  19              	.LC0:
  20 0000 3D3D3D3D 		.ascii	"================\015\000"
  20      3D3D3D3D 
  20      3D3D3D3D 
  20      3D3D3D3D 
  20      0D00
  21              		.global	__aeabi_f2d
  22 0012 0000     		.align	2
  23              	.LC1:
  24 0014 416C743A 		.ascii	"Alt: %f\015\012\000"
  24      2025660D 
  24      0A00
  25              		.section	.text.MS5611Task,"ax",%progbits
  26              		.align	1
  27              		.global	MS5611Task
  28              		.arch armv7e-m
  29              		.syntax unified
  30              		.thumb
  31              		.thumb_func
  32              		.fpu fpv4-sp-d16
  34              	MS5611Task:
  35              	.LVL0:
  36              	.LFB140:
  37              		.file 1 "Modules/src/sensors.c"
   1:Modules/src/sensors.c **** #include "sensors.h"
   2:Modules/src/sensors.c **** 
   3:Modules/src/sensors.c **** static TaskHandle_t mpu6050_task_handle;
   4:Modules/src/sensors.c **** STATIC_MEM_TASK_ALLOC(mpu6050_task, configMINIMAL_STACK_SIZE * 5);
   5:Modules/src/sensors.c **** 
   6:Modules/src/sensors.c **** static TaskHandle_t ms5611_task_handle;
   7:Modules/src/sensors.c **** STATIC_MEM_TASK_ALLOC(ms5611_task, configMINIMAL_STACK_SIZE *5);
   8:Modules/src/sensors.c **** 
   9:Modules/src/sensors.c **** void SensorsInit(void) {
  10:Modules/src/sensors.c ****     // mpu6050_task_handle = STATIC_MEM_TASK_CREATE(mpu6050_task, MPU6050Task, "MPU6050Task", NULL,
  11:Modules/src/sensors.c ****     ms5611_task_handle = STATIC_MEM_TASK_CREATE(ms5611_task, MS5611Task, "MS5611Task", NULL, 1);
  12:Modules/src/sensors.c **** }
  13:Modules/src/sensors.c **** 
  14:Modules/src/sensors.c **** void MPU6050Task(void *param) {
  15:Modules/src/sensors.c ****     float accel_x, accel_y, accel_z;
ARM GAS  C:\Users\luoha\AppData\Local\Temp\cchx2Ejd.s 			page 2


  16:Modules/src/sensors.c ****     float gyro_x, gyro_y, gyro_z;
  17:Modules/src/sensors.c ****     float celsius;
  18:Modules/src/sensors.c **** 
  19:Modules/src/sensors.c ****     if(!MPU6050Init()) return;
  20:Modules/src/sensors.c **** 
  21:Modules/src/sensors.c ****     for(;;) {
  22:Modules/src/sensors.c ****         printf("================\r\n");
  23:Modules/src/sensors.c ****         MPU6050ReadAccel(&accel_x, &accel_y, &accel_z);
  24:Modules/src/sensors.c ****         printf("Accel: %f, %f, %f\r\n", accel_x, accel_y, accel_z);
  25:Modules/src/sensors.c **** 
  26:Modules/src/sensors.c ****         MPU6050ReadGyro(&gyro_x, &gyro_y, &gyro_z);
  27:Modules/src/sensors.c ****         printf("Gyro: %f, %f, %f\r\n", gyro_x, gyro_y, gyro_z);
  28:Modules/src/sensors.c ****        
  29:Modules/src/sensors.c ****         MPU6050ReadTemp(&celsius);
  30:Modules/src/sensors.c ****         printf("Temp: %f\r\n", celsius);
  31:Modules/src/sensors.c ****         printf("================\r\n");
  32:Modules/src/sensors.c ****         vTaskDelay(pdMS_TO_TICKS(100));
  33:Modules/src/sensors.c ****     }
  34:Modules/src/sensors.c **** }
  35:Modules/src/sensors.c **** 
  36:Modules/src/sensors.c **** void MS5611Task(void *param) {
  38              		.loc 1 36 30 view -0
  39              		.cfi_startproc
  40              		@ args = 0, pretend = 0, frame = 8
  41              		@ frame_needed = 0, uses_anonymous_args = 0
  42              		.loc 1 36 30 is_stmt 0 view .LVU1
  43 0000 10B5     		push	{r4, lr}
  44              	.LCFI0:
  45              		.cfi_def_cfa_offset 8
  46              		.cfi_offset 4, -8
  47              		.cfi_offset 14, -4
  48 0002 82B0     		sub	sp, sp, #8
  49              	.LCFI1:
  50              		.cfi_def_cfa_offset 16
  37:Modules/src/sensors.c ****     // if(!MPU6050Init()) return;
  38:Modules/src/sensors.c ****     // uint32_t temp_raw, press_raw;
  39:Modules/src/sensors.c ****     float alt;
  51              		.loc 1 39 5 is_stmt 1 view .LVU2
  40:Modules/src/sensors.c **** 
  41:Modules/src/sensors.c ****     if(!MS5611Init()) return;
  52              		.loc 1 41 5 view .LVU3
  53              		.loc 1 41 9 is_stmt 0 view .LVU4
  54 0004 FFF7FEFF 		bl	MS5611Init
  55              	.LVL1:
  56              		.loc 1 41 7 view .LVU5
  57 0008 A0B1     		cbz	r0, .L3
  58              	.L2:
  42:Modules/src/sensors.c **** 
  43:Modules/src/sensors.c ****     for(;;) {
  59              		.loc 1 43 5 is_stmt 1 discriminator 1 view .LVU6
  44:Modules/src/sensors.c ****         printf("================\r\n");
  60              		.loc 1 44 9 discriminator 1 view .LVU7
  61 000a 0B4C     		ldr	r4, .L5
  62 000c 2046     		mov	r0, r4
  63 000e FFF7FEFF 		bl	puts
  64              	.LVL2:
  45:Modules/src/sensors.c ****         MS5611Calculate();
ARM GAS  C:\Users\luoha\AppData\Local\Temp\cchx2Ejd.s 			page 3


  65              		.loc 1 45 9 discriminator 1 view .LVU8
  66 0012 FFF7FEFF 		bl	MS5611Calculate
  67              	.LVL3:
  46:Modules/src/sensors.c ****         MS5611ReadAlt(&alt);
  68              		.loc 1 46 9 discriminator 1 view .LVU9
  69 0016 01A8     		add	r0, sp, #4
  70 0018 FFF7FEFF 		bl	MS5611ReadAlt
  71              	.LVL4:
  47:Modules/src/sensors.c ****         printf("Alt: %f\r\n", alt);
  72              		.loc 1 47 9 discriminator 1 view .LVU10
  73 001c 0198     		ldr	r0, [sp, #4]	@ float
  74 001e FFF7FEFF 		bl	__aeabi_f2d
  75              	.LVL5:
  76 0022 0246     		mov	r2, r0
  77 0024 0B46     		mov	r3, r1
  78 0026 0548     		ldr	r0, .L5+4
  79 0028 FFF7FEFF 		bl	printf
  80              	.LVL6:
  48:Modules/src/sensors.c **** 
  49:Modules/src/sensors.c ****         // MS5611ReadRawTemp(&temp_raw);
  50:Modules/src/sensors.c ****         // printf("Temp: %lu\r\n", temp_raw);
  51:Modules/src/sensors.c **** 
  52:Modules/src/sensors.c ****         // MS5611ReadRawPress(&press_raw);
  53:Modules/src/sensors.c ****         // printf("Press: %lu\r\n", press_raw);
  54:Modules/src/sensors.c ****         printf("================\r\n");
  81              		.loc 1 54 9 discriminator 1 view .LVU11
  82 002c 2046     		mov	r0, r4
  83 002e FFF7FEFF 		bl	puts
  84              	.LVL7:
  43:Modules/src/sensors.c ****         printf("================\r\n");
  85              		.loc 1 43 10 discriminator 1 view .LVU12
  86 0032 EAE7     		b	.L2
  87              	.L3:
  55:Modules/src/sensors.c ****         // vTaskDelay(pdMS_TO_TICKS(1));      
  56:Modules/src/sensors.c ****     }
  57:Modules/src/sensors.c **** 
  58:Modules/src/sensors.c **** }...
  88              		.loc 1 58 1 is_stmt 0 view .LVU13
  89 0034 02B0     		add	sp, sp, #8
  90              	.LCFI2:
  91              		.cfi_def_cfa_offset 8
  92              		@ sp needed
  93 0036 10BD     		pop	{r4, pc}
  94              	.L6:
  95              		.align	2
  96              	.L5:
  97 0038 00000000 		.word	.LC0
  98 003c 14000000 		.word	.LC1
  99              		.cfi_endproc
 100              	.LFE140:
 102              		.section	.rodata.SensorsInit.str1.4,"aMS",%progbits,1
 103              		.align	2
 104              	.LC2:
 105 0000 4D533536 		.ascii	"MS5611Task\000"
 105      31315461 
 105      736B00
 106              		.section	.text.SensorsInit,"ax",%progbits
ARM GAS  C:\Users\luoha\AppData\Local\Temp\cchx2Ejd.s 			page 4


 107              		.align	1
 108              		.global	SensorsInit
 109              		.syntax unified
 110              		.thumb
 111              		.thumb_func
 112              		.fpu fpv4-sp-d16
 114              	SensorsInit:
 115              	.LFB138:
   9:Modules/src/sensors.c **** void SensorsInit(void) {
 116              		.loc 1 9 24 is_stmt 1 view -0
 117              		.cfi_startproc
 118              		@ args = 0, pretend = 0, frame = 0
 119              		@ frame_needed = 0, uses_anonymous_args = 0
 120 0000 00B5     		push	{lr}
 121              	.LCFI3:
 122              		.cfi_def_cfa_offset 4
 123              		.cfi_offset 14, -4
 124 0002 85B0     		sub	sp, sp, #20
 125              	.LCFI4:
 126              		.cfi_def_cfa_offset 24
  11:Modules/src/sensors.c ****     ms5611_task_handle = STATIC_MEM_TASK_CREATE(ms5611_task, MS5611Task, "MS5611Task", NULL, 1);
 127              		.loc 1 11 5 view .LVU15
  11:Modules/src/sensors.c ****     ms5611_task_handle = STATIC_MEM_TASK_CREATE(ms5611_task, MS5611Task, "MS5611Task", NULL, 1);
 128              		.loc 1 11 26 is_stmt 0 view .LVU16
 129 0004 074B     		ldr	r3, .L9
 130 0006 0293     		str	r3, [sp, #8]
 131 0008 074B     		ldr	r3, .L9+4
 132 000a 0193     		str	r3, [sp, #4]
 133 000c 0123     		movs	r3, #1
 134 000e 0093     		str	r3, [sp]
 135 0010 0023     		movs	r3, #0
 136 0012 4FF42072 		mov	r2, #640
 137 0016 0549     		ldr	r1, .L9+8
 138 0018 0548     		ldr	r0, .L9+12
 139 001a FFF7FEFF 		bl	xTaskCreateStatic
 140              	.LVL8:
  12:Modules/src/sensors.c **** }
 141              		.loc 1 12 1 view .LVU17
 142 001e 05B0     		add	sp, sp, #20
 143              	.LCFI5:
 144              		.cfi_def_cfa_offset 4
 145              		@ sp needed
 146 0020 5DF804FB 		ldr	pc, [sp], #4
 147              	.L10:
 148              		.align	2
 149              	.L9:
 150 0024 00000000 		.word	.LANCHOR0
 151 0028 00000000 		.word	.LANCHOR1
 152 002c 00000000 		.word	.LC2
 153 0030 00000000 		.word	MS5611Task
 154              		.cfi_endproc
 155              	.LFE138:
 157              		.section	.rodata.MPU6050Task.str1.4,"aMS",%progbits,1
 158              		.align	2
 159              	.LC3:
 160 0000 41636365 		.ascii	"Accel: %f, %f, %f\015\012\000"
 160      6C3A2025 
ARM GAS  C:\Users\luoha\AppData\Local\Temp\cchx2Ejd.s 			page 5


 160      662C2025 
 160      662C2025 
 160      660D0A00 
 161              		.align	2
 162              	.LC4:
 163 0014 4779726F 		.ascii	"Gyro: %f, %f, %f\015\012\000"
 163      3A202566 
 163      2C202566 
 163      2C202566 
 163      0D0A00
 164 0027 00       		.align	2
 165              	.LC5:
 166 0028 54656D70 		.ascii	"Temp: %f\015\012\000"
 166      3A202566 
 166      0D0A00
 167              		.section	.text.MPU6050Task,"ax",%progbits
 168              		.align	1
 169              		.global	MPU6050Task
 170              		.syntax unified
 171              		.thumb
 172              		.thumb_func
 173              		.fpu fpv4-sp-d16
 175              	MPU6050Task:
 176              	.LVL9:
 177              	.LFB139:
  14:Modules/src/sensors.c **** void MPU6050Task(void *param) {
 178              		.loc 1 14 31 is_stmt 1 view -0
 179              		.cfi_startproc
 180              		@ args = 0, pretend = 0, frame = 32
 181              		@ frame_needed = 0, uses_anonymous_args = 0
  14:Modules/src/sensors.c **** void MPU6050Task(void *param) {
 182              		.loc 1 14 31 is_stmt 0 view .LVU19
 183 0000 70B5     		push	{r4, r5, r6, lr}
 184              	.LCFI6:
 185              		.cfi_def_cfa_offset 16
 186              		.cfi_offset 4, -16
 187              		.cfi_offset 5, -12
 188              		.cfi_offset 6, -8
 189              		.cfi_offset 14, -4
 190 0002 8CB0     		sub	sp, sp, #48
 191              	.LCFI7:
 192              		.cfi_def_cfa_offset 64
  15:Modules/src/sensors.c ****     float accel_x, accel_y, accel_z;
 193              		.loc 1 15 5 is_stmt 1 view .LVU20
  16:Modules/src/sensors.c ****     float gyro_x, gyro_y, gyro_z;
 194              		.loc 1 16 5 view .LVU21
  17:Modules/src/sensors.c ****     float celsius;
 195              		.loc 1 17 5 view .LVU22
  19:Modules/src/sensors.c ****     if(!MPU6050Init()) return;
 196              		.loc 1 19 5 view .LVU23
  19:Modules/src/sensors.c ****     if(!MPU6050Init()) return;
 197              		.loc 1 19 9 is_stmt 0 view .LVU24
 198 0004 FFF7FEFF 		bl	MPU6050Init
 199              	.LVL10:
  19:Modules/src/sensors.c ****     if(!MPU6050Init()) return;
 200              		.loc 1 19 7 view .LVU25
 201 0008 0028     		cmp	r0, #0
ARM GAS  C:\Users\luoha\AppData\Local\Temp\cchx2Ejd.s 			page 6


 202 000a 47D0     		beq	.L13
 203              	.L12:
  21:Modules/src/sensors.c ****     for(;;) {
 204              		.loc 1 21 5 is_stmt 1 discriminator 1 view .LVU26
  22:Modules/src/sensors.c ****         printf("================\r\n");
 205              		.loc 1 22 9 discriminator 1 view .LVU27
 206 000c 244E     		ldr	r6, .L15
 207 000e 3046     		mov	r0, r6
 208 0010 FFF7FEFF 		bl	puts
 209              	.LVL11:
  23:Modules/src/sensors.c ****         MPU6050ReadAccel(&accel_x, &accel_y, &accel_z);
 210              		.loc 1 23 9 discriminator 1 view .LVU28
 211 0014 09AA     		add	r2, sp, #36
 212 0016 0AA9     		add	r1, sp, #40
 213 0018 0BA8     		add	r0, sp, #44
 214 001a FFF7FEFF 		bl	MPU6050ReadAccel
 215              	.LVL12:
  24:Modules/src/sensors.c ****         printf("Accel: %f, %f, %f\r\n", accel_x, accel_y, accel_z);
 216              		.loc 1 24 9 discriminator 1 view .LVU29
 217 001e 0B98     		ldr	r0, [sp, #44]	@ float
 218 0020 FFF7FEFF 		bl	__aeabi_f2d
 219              	.LVL13:
 220 0024 0446     		mov	r4, r0
 221 0026 0D46     		mov	r5, r1
 222 0028 0998     		ldr	r0, [sp, #36]	@ float
 223 002a FFF7FEFF 		bl	__aeabi_f2d
 224              	.LVL14:
 225 002e CDE90201 		strd	r0, [sp, #8]
 226 0032 0A98     		ldr	r0, [sp, #40]	@ float
 227 0034 FFF7FEFF 		bl	__aeabi_f2d
 228              	.LVL15:
 229 0038 CDE90001 		strd	r0, [sp]
 230 003c 2246     		mov	r2, r4
 231 003e 2B46     		mov	r3, r5
 232 0040 1848     		ldr	r0, .L15+4
 233 0042 FFF7FEFF 		bl	printf
 234              	.LVL16:
  26:Modules/src/sensors.c ****         MPU6050ReadGyro(&gyro_x, &gyro_y, &gyro_z);
 235              		.loc 1 26 9 discriminator 1 view .LVU30
 236 0046 06AA     		add	r2, sp, #24
 237 0048 07A9     		add	r1, sp, #28
 238 004a 08A8     		add	r0, sp, #32
 239 004c FFF7FEFF 		bl	MPU6050ReadGyro
 240              	.LVL17:
  27:Modules/src/sensors.c ****         printf("Gyro: %f, %f, %f\r\n", gyro_x, gyro_y, gyro_z);
 241              		.loc 1 27 9 discriminator 1 view .LVU31
 242 0050 0898     		ldr	r0, [sp, #32]	@ float
 243 0052 FFF7FEFF 		bl	__aeabi_f2d
 244              	.LVL18:
 245 0056 0446     		mov	r4, r0
 246 0058 0D46     		mov	r5, r1
 247 005a 0698     		ldr	r0, [sp, #24]	@ float
 248 005c FFF7FEFF 		bl	__aeabi_f2d
 249              	.LVL19:
 250 0060 CDE90201 		strd	r0, [sp, #8]
 251 0064 0798     		ldr	r0, [sp, #28]	@ float
 252 0066 FFF7FEFF 		bl	__aeabi_f2d
ARM GAS  C:\Users\luoha\AppData\Local\Temp\cchx2Ejd.s 			page 7


 253              	.LVL20:
 254 006a CDE90001 		strd	r0, [sp]
 255 006e 2246     		mov	r2, r4
 256 0070 2B46     		mov	r3, r5
 257 0072 0D48     		ldr	r0, .L15+8
 258 0074 FFF7FEFF 		bl	printf
 259              	.LVL21:
  29:Modules/src/sensors.c ****         MPU6050ReadTemp(&celsius);
 260              		.loc 1 29 9 discriminator 1 view .LVU32
 261 0078 05A8     		add	r0, sp, #20
 262 007a FFF7FEFF 		bl	MPU6050ReadTemp
 263              	.LVL22:
  30:Modules/src/sensors.c ****         printf("Temp: %f\r\n", celsius);
 264              		.loc 1 30 9 discriminator 1 view .LVU33
 265 007e 0598     		ldr	r0, [sp, #20]	@ float
 266 0080 FFF7FEFF 		bl	__aeabi_f2d
 267              	.LVL23:
 268 0084 0246     		mov	r2, r0
 269 0086 0B46     		mov	r3, r1
 270 0088 0848     		ldr	r0, .L15+12
 271 008a FFF7FEFF 		bl	printf
 272              	.LVL24:
  31:Modules/src/sensors.c ****         printf("================\r\n");
 273              		.loc 1 31 9 discriminator 1 view .LVU34
 274 008e 3046     		mov	r0, r6
 275 0090 FFF7FEFF 		bl	puts
 276              	.LVL25:
  32:Modules/src/sensors.c ****         vTaskDelay(pdMS_TO_TICKS(100));
 277              		.loc 1 32 9 discriminator 1 view .LVU35
 278 0094 6420     		movs	r0, #100
 279 0096 FFF7FEFF 		bl	vTaskDelay
 280              	.LVL26:
  21:Modules/src/sensors.c ****     for(;;) {
 281              		.loc 1 21 10 discriminator 1 view .LVU36
 282 009a B7E7     		b	.L12
 283              	.L13:
  34:Modules/src/sensors.c **** }
 284              		.loc 1 34 1 is_stmt 0 view .LVU37
 285 009c 0CB0     		add	sp, sp, #48
 286              	.LCFI8:
 287              		.cfi_def_cfa_offset 16
 288              		@ sp needed
 289 009e 70BD     		pop	{r4, r5, r6, pc}
 290              	.L16:
 291              		.align	2
 292              	.L15:
 293 00a0 00000000 		.word	.LC0
 294 00a4 00000000 		.word	.LC3
 295 00a8 14000000 		.word	.LC4
 296 00ac 28000000 		.word	.LC5
 297              		.cfi_endproc
 298              	.LFE139:
 300              		.section	.bss.osSys_ms5611_taskStackBuffer,"aw",%nobits
 301              		.align	2
 302              		.set	.LANCHOR1,. + 0
 305              	osSys_ms5611_taskStackBuffer:
 306 0000 00000000 		.space	2560
ARM GAS  C:\Users\luoha\AppData\Local\Temp\cchx2Ejd.s 			page 8


 306      00000000 
 306      00000000 
 306      00000000 
 306      00000000 
 307              		.section	.bss.osSys_ms5611_taskTaskBuffer,"aw",%nobits
 308              		.align	2
 309              		.set	.LANCHOR0,. + 0
 312              	osSys_ms5611_taskTaskBuffer:
 313 0000 00000000 		.space	84
 313      00000000 
 313      00000000 
 313      00000000 
 313      00000000 
 314              		.text
 315              	.Letext0:
 316              		.file 2 "e:\\gnu tools arm embedded\\9 2019-q4-major\\arm-none-eabi\\include\\machine\\_default_ty
 317              		.file 3 "e:\\gnu tools arm embedded\\9 2019-q4-major\\arm-none-eabi\\include\\sys\\_stdint.h"
 318              		.file 4 "Drivers/CMSIS/Include/core_cm4.h"
 319              		.file 5 "Drivers/CMSIS/Device/ST/STM32F4xx/Include/system_stm32f4xx.h"
 320              		.file 6 "Drivers/CMSIS/Device/ST/STM32F4xx/Include/stm32f407xx.h"
 321              		.file 7 "Drivers/STM32F4xx_HAL_Driver/Inc/stm32f4xx_hal_def.h"
 322              		.file 8 "Drivers/STM32F4xx_HAL_Driver/Inc/stm32f4xx_hal_dma.h"
 323              		.file 9 "Drivers/STM32F4xx_HAL_Driver/Inc/stm32f4xx_hal_i2c.h"
 324              		.file 10 "Drivers/STM32F4xx_HAL_Driver/Inc/stm32f4xx_hal_uart.h"
 325              		.file 11 "Drivers/STM32F4xx_HAL_Driver/Inc/stm32f4xx_hal.h"
 326              		.file 12 "e:\\gnu tools arm embedded\\9 2019-q4-major\\arm-none-eabi\\include\\sys\\lock.h"
 327              		.file 13 "e:\\gnu tools arm embedded\\9 2019-q4-major\\arm-none-eabi\\include\\sys\\_types.h"
 328              		.file 14 "e:\\gnu tools arm embedded\\9 2019-q4-major\\lib\\gcc\\arm-none-eabi\\9.2.1\\include\\st
 329              		.file 15 "e:\\gnu tools arm embedded\\9 2019-q4-major\\arm-none-eabi\\include\\sys\\reent.h"
 330              		.file 16 "Modules/include/utils.h"
 331              		.file 17 "Inc/i2c.h"
 332              		.file 18 "Middlewares/Third_Party/FreeRTOS/Source/portable/GCC/ARM_CM4F/portmacro.h"
 333              		.file 19 "Middlewares/Third_Party/FreeRTOS/Source/include/FreeRTOS.h"
 334              		.file 20 "Middlewares/Third_Party/FreeRTOS/Source/include/task.h"
 335              		.file 21 "Modules/include/ms5611.h"
 336              		.file 22 "e:\\gnu tools arm embedded\\9 2019-q4-major\\arm-none-eabi\\include\\stdio.h"
 337              		.file 23 "Modules/include/mpu6050.h"
 338              		.file 24 "<built-in>"
ARM GAS  C:\Users\luoha\AppData\Local\Temp\cchx2Ejd.s 			page 9


DEFINED SYMBOLS
                            *ABS*:00000000 sensors.c
C:\Users\luoha\AppData\Local\Temp\cchx2Ejd.s:18     .rodata.MS5611Task.str1.4:00000000 $d
C:\Users\luoha\AppData\Local\Temp\cchx2Ejd.s:26     .text.MS5611Task:00000000 $t
C:\Users\luoha\AppData\Local\Temp\cchx2Ejd.s:34     .text.MS5611Task:00000000 MS5611Task
C:\Users\luoha\AppData\Local\Temp\cchx2Ejd.s:97     .text.MS5611Task:00000038 $d
C:\Users\luoha\AppData\Local\Temp\cchx2Ejd.s:103    .rodata.SensorsInit.str1.4:00000000 $d
C:\Users\luoha\AppData\Local\Temp\cchx2Ejd.s:107    .text.SensorsInit:00000000 $t
C:\Users\luoha\AppData\Local\Temp\cchx2Ejd.s:114    .text.SensorsInit:00000000 SensorsInit
C:\Users\luoha\AppData\Local\Temp\cchx2Ejd.s:150    .text.SensorsInit:00000024 $d
C:\Users\luoha\AppData\Local\Temp\cchx2Ejd.s:158    .rodata.MPU6050Task.str1.4:00000000 $d
C:\Users\luoha\AppData\Local\Temp\cchx2Ejd.s:168    .text.MPU6050Task:00000000 $t
C:\Users\luoha\AppData\Local\Temp\cchx2Ejd.s:175    .text.MPU6050Task:00000000 MPU6050Task
C:\Users\luoha\AppData\Local\Temp\cchx2Ejd.s:293    .text.MPU6050Task:000000a0 $d
C:\Users\luoha\AppData\Local\Temp\cchx2Ejd.s:301    .bss.osSys_ms5611_taskStackBuffer:00000000 $d
C:\Users\luoha\AppData\Local\Temp\cchx2Ejd.s:305    .bss.osSys_ms5611_taskStackBuffer:00000000 osSys_ms5611_taskStackBuffer
C:\Users\luoha\AppData\Local\Temp\cchx2Ejd.s:308    .bss.osSys_ms5611_taskTaskBuffer:00000000 $d
C:\Users\luoha\AppData\Local\Temp\cchx2Ejd.s:312    .bss.osSys_ms5611_taskTaskBuffer:00000000 osSys_ms5611_taskTaskBuffer

UNDEFINED SYMBOLS
__aeabi_f2d
MS5611Init
puts
MS5611Calculate
MS5611ReadAlt
printf
xTaskCreateStatic
MPU6050Init
MPU6050ReadAccel
MPU6050ReadGyro
MPU6050ReadTemp
vTaskDelay
