ARM GAS  C:\Users\luoha\AppData\Local\Temp\ccK7ckjj.s 			page 1


   1              		.cpu cortex-m4
   2              		.eabi_attribute 27, 1
   3              		.eabi_attribute 28, 1
   4              		.eabi_attribute 20, 1
   5              		.eabi_attribute 21, 1
   6              		.eabi_attribute 23, 3
   7              		.eabi_attribute 24, 1
   8              		.eabi_attribute 25, 1
   9              		.eabi_attribute 26, 1
  10              		.eabi_attribute 30, 1
  11              		.eabi_attribute 34, 1
  12              		.eabi_attribute 18, 4
  13              		.file	"sensors_task.c"
  14              		.text
  15              	.Ltext0:
  16              		.cfi_sections	.debug_frame
  17              		.section	.text.SensorsTask,"ax",%progbits
  18              		.align	1
  19              		.global	SensorsTask
  20              		.arch armv7e-m
  21              		.syntax unified
  22              		.thumb
  23              		.thumb_func
  24              		.fpu fpv4-sp-d16
  26              	SensorsTask:
  27              	.LVL0:
  28              	.LFB173:
  29              		.file 1 "Modules/src/sensors_task.c"
   1:Modules/src/sensors_task.c **** #include "sensors_task.h"
   2:Modules/src/sensors_task.c **** 
   3:Modules/src/sensors_task.c **** 
   4:Modules/src/sensors_task.c **** 
   5:Modules/src/sensors_task.c **** extern xQueueHandle acc_queue;
   6:Modules/src/sensors_task.c **** extern xQueueHandle gyro_queue;
   7:Modules/src/sensors_task.c **** extern xQueueHandle mag_queue;
   8:Modules/src/sensors_task.c **** extern xQueueHandle alt_queue;
   9:Modules/src/sensors_task.c **** 
  10:Modules/src/sensors_task.c **** static TaskHandle_t sensors_task_handle;
  11:Modules/src/sensors_task.c **** STATIC_MEM_TASK_ALLOC(sensors_task, SENSORS_TASK_STACKSIZE);
  12:Modules/src/sensors_task.c **** 
  13:Modules/src/sensors_task.c **** const TickType_t sensors_task_wait = pdMS_TO_TICKS(1000.0 / IMU_SAMPLE_FREQ);
  14:Modules/src/sensors_task.c **** const static uint8_t mag_meas_delay = IMU_SAMPLE_FREQ / MAG_SAMPLE_FREQ;
  15:Modules/src/sensors_task.c **** const static uint8_t alt_meas_delay = IMU_SAMPLE_FREQ / ALT_SAMPLE_FREQ;
  16:Modules/src/sensors_task.c **** 
  17:Modules/src/sensors_task.c **** static Lowpass2Data acc_lpf[3];
  18:Modules/src/sensors_task.c **** static Lowpass2Data gyro_lpf[3];
  19:Modules/src/sensors_task.c **** 
  20:Modules/src/sensors_task.c **** void SensorsLaunch(void) {
  21:Modules/src/sensors_task.c ****     for(unsigned int i = 0; i < 3; i++) {
  22:Modules/src/sensors_task.c ****         Lowpass2Init(&acc_lpf[i], IMU_SAMPLE_FREQ, ACC_LPF_CUTOFF_FREQ);
  23:Modules/src/sensors_task.c ****         Lowpass2Init(&gyro_lpf[i], IMU_SAMPLE_FREQ, GYRO_LPF_CUTOFF_FREQ);
  24:Modules/src/sensors_task.c ****     }
  25:Modules/src/sensors_task.c **** 
  26:Modules/src/sensors_task.c ****     sensors_task_handle = STATIC_MEM_TASK_CREATE(sensors_task, SensorsTask, "SensorsTask", NULL, SE
  27:Modules/src/sensors_task.c **** }
  28:Modules/src/sensors_task.c **** 
  29:Modules/src/sensors_task.c **** 
ARM GAS  C:\Users\luoha\AppData\Local\Temp\ccK7ckjj.s 			page 2


  30:Modules/src/sensors_task.c **** void SensorsTask(void *param) {
  30              		.loc 1 30 31 view -0
  31              		.cfi_startproc
  32              		@ args = 0, pretend = 0, frame = 72
  33              		@ frame_needed = 0, uses_anonymous_args = 0
  34              		.loc 1 30 31 is_stmt 0 view .LVU1
  35 0000 30B5     		push	{r4, r5, lr}
  36              	.LCFI0:
  37              		.cfi_def_cfa_offset 12
  38              		.cfi_offset 4, -12
  39              		.cfi_offset 5, -8
  40              		.cfi_offset 14, -4
  41 0002 93B0     		sub	sp, sp, #76
  42              	.LCFI1:
  43              		.cfi_def_cfa_offset 88
  31:Modules/src/sensors_task.c ****     // SystemWaitStart();
  32:Modules/src/sensors_task.c **** 
  33:Modules/src/sensors_task.c ****     int16_t acc_raw[3] = {0}, gyro_raw[3] = {0}, mag_raw[3] = {0};
  44              		.loc 1 33 5 is_stmt 1 view .LVU2
  45              		.loc 1 33 13 is_stmt 0 view .LVU3
  46 0004 0023     		movs	r3, #0
  47 0006 1093     		str	r3, [sp, #64]
  48 0008 ADF84430 		strh	r3, [sp, #68]	@ movhi
  49              		.loc 1 33 31 view .LVU4
  50 000c 0E93     		str	r3, [sp, #56]
  51 000e ADF83C30 		strh	r3, [sp, #60]	@ movhi
  52              		.loc 1 33 50 view .LVU5
  53 0012 0C93     		str	r3, [sp, #48]
  54 0014 ADF83430 		strh	r3, [sp, #52]	@ movhi
  34:Modules/src/sensors_task.c ****     float alt = 0.f, acc[3] = {0}, gyro[3] = {0}, mag[3] = {0};
  55              		.loc 1 34 5 is_stmt 1 view .LVU6
  56              		.loc 1 34 11 is_stmt 0 view .LVU7
  57 0018 0022     		movs	r2, #0
  58 001a 0B92     		str	r2, [sp, #44]	@ float
  59              		.loc 1 34 22 view .LVU8
  60 001c 0893     		str	r3, [sp, #32]
  61 001e 0993     		str	r3, [sp, #36]
  62 0020 0A93     		str	r3, [sp, #40]
  63              		.loc 1 34 36 view .LVU9
  64 0022 0593     		str	r3, [sp, #20]
  65 0024 0693     		str	r3, [sp, #24]
  66 0026 0793     		str	r3, [sp, #28]
  67              		.loc 1 34 51 view .LVU10
  68 0028 0293     		str	r3, [sp, #8]
  69 002a 0393     		str	r3, [sp, #12]
  70 002c 0493     		str	r3, [sp, #16]
  35:Modules/src/sensors_task.c **** 
  36:Modules/src/sensors_task.c ****     uint8_t mag_meas_count = mag_meas_delay;
  71              		.loc 1 36 5 is_stmt 1 view .LVU11
  72              	.LVL1:
  37:Modules/src/sensors_task.c ****     uint8_t alt_meas_count = alt_meas_delay;
  73              		.loc 1 37 5 view .LVU12
  38:Modules/src/sensors_task.c **** 
  39:Modules/src/sensors_task.c ****     portTickType last_wait_time = xTaskGetTickCount();
  74              		.loc 1 39 5 view .LVU13
  75              		.loc 1 39 35 is_stmt 0 view .LVU14
  76 002e FFF7FEFF 		bl	xTaskGetTickCount
ARM GAS  C:\Users\luoha\AppData\Local\Temp\ccK7ckjj.s 			page 3


  77              	.LVL2:
  78              		.loc 1 39 18 view .LVU15
  79 0032 0190     		str	r0, [sp, #4]
  37:Modules/src/sensors_task.c ****     uint8_t alt_meas_count = alt_meas_delay;
  80              		.loc 1 37 13 view .LVU16
  81 0034 0A24     		movs	r4, #10
  36:Modules/src/sensors_task.c ****     uint8_t alt_meas_count = alt_meas_delay;
  82              		.loc 1 36 13 view .LVU17
  83 0036 0D25     		movs	r5, #13
  84 0038 13E0     		b	.L4
  85              	.LVL3:
  86              	.L6:
  40:Modules/src/sensors_task.c **** 
  41:Modules/src/sensors_task.c ****     while(1) {
  42:Modules/src/sensors_task.c ****         SensorsReadAccelRaw(acc_raw);
  43:Modules/src/sensors_task.c ****         SensorsReadGyroRaw(gyro_raw);
  44:Modules/src/sensors_task.c ****       
  45:Modules/src/sensors_task.c ****         CalibrateIMU(acc_raw, gyro_raw, acc, gyro);
  46:Modules/src/sensors_task.c **** 
  47:Modules/src/sensors_task.c ****         Lowpass2Apply3Axis((Lowpass2Data*)(&acc_lpf), acc);
  48:Modules/src/sensors_task.c ****         Lowpass2Apply3Axis((Lowpass2Data*)(&gyro_lpf), gyro);
  49:Modules/src/sensors_task.c **** 
  50:Modules/src/sensors_task.c ****         xQueueOverwrite(acc_queue, acc);
  51:Modules/src/sensors_task.c ****         xQueueOverwrite(gyro_queue, gyro);
  52:Modules/src/sensors_task.c **** 
  53:Modules/src/sensors_task.c ****         if (--mag_meas_count == 0) {
  54:Modules/src/sensors_task.c ****             SensorsReadMagRaw(mag_raw);
  87              		.loc 1 54 13 is_stmt 1 view .LVU18
  88 003a 0CA8     		add	r0, sp, #48
  89 003c FFF7FEFF 		bl	HMC5883LReadMagRaw
  90              	.LVL4:
  55:Modules/src/sensors_task.c ****             CalibrateMag(mag_raw, mag);
  91              		.loc 1 55 13 view .LVU19
  92 0040 02A9     		add	r1, sp, #8
  93 0042 0CA8     		add	r0, sp, #48
  94 0044 FFF7FEFF 		bl	CalibrateMag
  95              	.LVL5:
  56:Modules/src/sensors_task.c ****             xQueueOverwrite(mag_queue, mag);
  96              		.loc 1 56 13 view .LVU20
  97 0048 0223     		movs	r3, #2
  98 004a 0022     		movs	r2, #0
  99 004c 02A9     		add	r1, sp, #8
 100 004e 2048     		ldr	r0, .L7
 101 0050 0068     		ldr	r0, [r0]
 102 0052 FFF7FEFF 		bl	xQueueGenericSend
 103              	.LVL6:
  57:Modules/src/sensors_task.c ****             mag_meas_count = mag_meas_delay;
 104              		.loc 1 57 13 view .LVU21
 105              		.loc 1 57 28 is_stmt 0 view .LVU22
 106 0056 0D25     		movs	r5, #13
 107 0058 29E0     		b	.L2
 108              	.LVL7:
 109              	.L3:
  58:Modules/src/sensors_task.c ****         }
  59:Modules/src/sensors_task.c **** 
  60:Modules/src/sensors_task.c ****         if (--alt_meas_count == 0) {
  61:Modules/src/sensors_task.c ****             SensorsReadAlt(&alt);
ARM GAS  C:\Users\luoha\AppData\Local\Temp\ccK7ckjj.s 			page 4


  62:Modules/src/sensors_task.c ****             xQueueOverwrite(alt_queue, &alt);
  63:Modules/src/sensors_task.c ****             alt_meas_count = alt_meas_delay;
  64:Modules/src/sensors_task.c ****         } 
  65:Modules/src/sensors_task.c **** 
  66:Modules/src/sensors_task.c ****         // printf("%lu,%f,%f,%f,%f,%f,%f,%f,%f,%f,%f\n", (unsigned long)pdTICKS_TO_MS(xTaskGetTickC
  67:Modules/src/sensors_task.c ****         // printf("%lu\n", (unsigned long)pdTICKS_TO_MS(xTaskGetTickCount())); 
  68:Modules/src/sensors_task.c ****         vTaskDelayUntil(&last_wait_time, sensors_task_wait);
 110              		.loc 1 68 9 is_stmt 1 view .LVU23
 111 005a 0121     		movs	r1, #1
 112 005c 01A8     		add	r0, sp, #4
 113 005e FFF7FEFF 		bl	vTaskDelayUntil
 114              	.LVL8:
  41:Modules/src/sensors_task.c ****         SensorsReadAccelRaw(acc_raw);
 115              		.loc 1 41 10 view .LVU24
 116              	.L4:
  41:Modules/src/sensors_task.c ****         SensorsReadAccelRaw(acc_raw);
 117              		.loc 1 41 5 view .LVU25
  42:Modules/src/sensors_task.c ****         SensorsReadGyroRaw(gyro_raw);
 118              		.loc 1 42 9 view .LVU26
 119 0062 10A8     		add	r0, sp, #64
 120 0064 FFF7FEFF 		bl	MPU6050ReadAccelRaw
 121              	.LVL9:
  43:Modules/src/sensors_task.c ****       
 122              		.loc 1 43 9 view .LVU27
 123 0068 0EA8     		add	r0, sp, #56
 124 006a FFF7FEFF 		bl	MPU6050ReadGyroRaw
 125              	.LVL10:
  45:Modules/src/sensors_task.c **** 
 126              		.loc 1 45 9 view .LVU28
 127 006e 05AB     		add	r3, sp, #20
 128 0070 08AA     		add	r2, sp, #32
 129 0072 0EA9     		add	r1, sp, #56
 130 0074 10A8     		add	r0, sp, #64
 131 0076 FFF7FEFF 		bl	CalibrateIMU
 132              	.LVL11:
  47:Modules/src/sensors_task.c ****         Lowpass2Apply3Axis((Lowpass2Data*)(&gyro_lpf), gyro);
 133              		.loc 1 47 9 view .LVU29
 134 007a 08A9     		add	r1, sp, #32
 135 007c 1548     		ldr	r0, .L7+4
 136 007e FFF7FEFF 		bl	Lowpass2Apply3Axis
 137              	.LVL12:
  48:Modules/src/sensors_task.c **** 
 138              		.loc 1 48 9 view .LVU30
 139 0082 05A9     		add	r1, sp, #20
 140 0084 1448     		ldr	r0, .L7+8
 141 0086 FFF7FEFF 		bl	Lowpass2Apply3Axis
 142              	.LVL13:
  50:Modules/src/sensors_task.c ****         xQueueOverwrite(gyro_queue, gyro);
 143              		.loc 1 50 9 view .LVU31
 144 008a 0223     		movs	r3, #2
 145 008c 0022     		movs	r2, #0
 146 008e 08A9     		add	r1, sp, #32
 147 0090 1248     		ldr	r0, .L7+12
 148 0092 0068     		ldr	r0, [r0]
 149 0094 FFF7FEFF 		bl	xQueueGenericSend
 150              	.LVL14:
  51:Modules/src/sensors_task.c **** 
ARM GAS  C:\Users\luoha\AppData\Local\Temp\ccK7ckjj.s 			page 5


 151              		.loc 1 51 9 view .LVU32
 152 0098 0223     		movs	r3, #2
 153 009a 0022     		movs	r2, #0
 154 009c 05A9     		add	r1, sp, #20
 155 009e 1048     		ldr	r0, .L7+16
 156 00a0 0068     		ldr	r0, [r0]
 157 00a2 FFF7FEFF 		bl	xQueueGenericSend
 158              	.LVL15:
  53:Modules/src/sensors_task.c ****             SensorsReadMagRaw(mag_raw);
 159              		.loc 1 53 9 view .LVU33
  53:Modules/src/sensors_task.c ****             SensorsReadMagRaw(mag_raw);
 160              		.loc 1 53 12 is_stmt 0 view .LVU34
 161 00a6 6B1E     		subs	r3, r5, #1
 162              	.LVL16:
  53:Modules/src/sensors_task.c ****             SensorsReadMagRaw(mag_raw);
 163              		.loc 1 53 12 view .LVU35
 164 00a8 13F0FF05 		ands	r5, r3, #255
 165 00ac C5D0     		beq	.L6
 166              	.LVL17:
 167              	.L2:
  60:Modules/src/sensors_task.c ****             SensorsReadAlt(&alt);
 168              		.loc 1 60 9 is_stmt 1 view .LVU36
  60:Modules/src/sensors_task.c ****             SensorsReadAlt(&alt);
 169              		.loc 1 60 12 is_stmt 0 view .LVU37
 170 00ae 631E     		subs	r3, r4, #1
 171              	.LVL18:
  60:Modules/src/sensors_task.c ****             SensorsReadAlt(&alt);
 172              		.loc 1 60 12 view .LVU38
 173 00b0 13F0FF04 		ands	r4, r3, #255
 174 00b4 D1D1     		bne	.L3
  61:Modules/src/sensors_task.c ****             xQueueOverwrite(alt_queue, &alt);
 175              		.loc 1 61 13 is_stmt 1 view .LVU39
 176 00b6 0BA8     		add	r0, sp, #44
 177 00b8 FFF7FEFF 		bl	MS5611ReadAlt
 178              	.LVL19:
  62:Modules/src/sensors_task.c ****             alt_meas_count = alt_meas_delay;
 179              		.loc 1 62 13 view .LVU40
 180 00bc 0223     		movs	r3, #2
 181 00be 0022     		movs	r2, #0
 182 00c0 0BA9     		add	r1, sp, #44
 183 00c2 0848     		ldr	r0, .L7+20
 184 00c4 0068     		ldr	r0, [r0]
 185 00c6 FFF7FEFF 		bl	xQueueGenericSend
 186              	.LVL20:
  63:Modules/src/sensors_task.c ****         } 
 187              		.loc 1 63 13 view .LVU41
  63:Modules/src/sensors_task.c ****         } 
 188              		.loc 1 63 28 is_stmt 0 view .LVU42
 189 00ca 0A24     		movs	r4, #10
 190 00cc C5E7     		b	.L3
 191              	.L8:
 192 00ce 00BF     		.align	2
 193              	.L7:
 194 00d0 00000000 		.word	mag_queue
 195 00d4 00000000 		.word	.LANCHOR0
 196 00d8 00000000 		.word	.LANCHOR1
 197 00dc 00000000 		.word	acc_queue
ARM GAS  C:\Users\luoha\AppData\Local\Temp\ccK7ckjj.s 			page 6


 198 00e0 00000000 		.word	gyro_queue
 199 00e4 00000000 		.word	alt_queue
 200              		.cfi_endproc
 201              	.LFE173:
 203              		.section	.rodata.SensorsLaunch.str1.4,"aMS",%progbits,1
 204              		.align	2
 205              	.LC0:
 206 0000 53656E73 		.ascii	"SensorsTask\000"
 206      6F727354 
 206      61736B00 
 207              		.section	.text.SensorsLaunch,"ax",%progbits
 208              		.align	1
 209              		.global	SensorsLaunch
 210              		.syntax unified
 211              		.thumb
 212              		.thumb_func
 213              		.fpu fpv4-sp-d16
 215              	SensorsLaunch:
 216              	.LFB172:
  20:Modules/src/sensors_task.c ****     for(unsigned int i = 0; i < 3; i++) {
 217              		.loc 1 20 26 is_stmt 1 view -0
 218              		.cfi_startproc
 219              		@ args = 0, pretend = 0, frame = 0
 220              		@ frame_needed = 0, uses_anonymous_args = 0
 221 0000 30B5     		push	{r4, r5, lr}
 222              	.LCFI2:
 223              		.cfi_def_cfa_offset 12
 224              		.cfi_offset 4, -12
 225              		.cfi_offset 5, -8
 226              		.cfi_offset 14, -4
 227 0002 2DED028B 		vpush.64	{d8}
 228              	.LCFI3:
 229              		.cfi_def_cfa_offset 20
 230              		.cfi_offset 80, -20
 231              		.cfi_offset 81, -16
 232 0006 85B0     		sub	sp, sp, #20
 233              	.LCFI4:
 234              		.cfi_def_cfa_offset 40
  21:Modules/src/sensors_task.c ****         Lowpass2Init(&acc_lpf[i], IMU_SAMPLE_FREQ, ACC_LPF_CUTOFF_FREQ);
 235              		.loc 1 21 5 view .LVU44
 236              	.LBB2:
  21:Modules/src/sensors_task.c ****         Lowpass2Init(&acc_lpf[i], IMU_SAMPLE_FREQ, ACC_LPF_CUTOFF_FREQ);
 237              		.loc 1 21 9 view .LVU45
 238              	.LVL21:
  21:Modules/src/sensors_task.c ****         Lowpass2Init(&acc_lpf[i], IMU_SAMPLE_FREQ, ACC_LPF_CUTOFF_FREQ);
 239              		.loc 1 21 22 is_stmt 0 view .LVU46
 240 0008 0024     		movs	r4, #0
  21:Modules/src/sensors_task.c ****         Lowpass2Init(&acc_lpf[i], IMU_SAMPLE_FREQ, ACC_LPF_CUTOFF_FREQ);
 241              		.loc 1 21 5 view .LVU47
 242 000a 18E0     		b	.L10
 243              	.LVL22:
 244              	.L11:
  22:Modules/src/sensors_task.c ****         Lowpass2Init(&gyro_lpf[i], IMU_SAMPLE_FREQ, GYRO_LPF_CUTOFF_FREQ);
 245              		.loc 1 22 9 is_stmt 1 discriminator 3 view .LVU48
 246 000c 9FED158A 		vldr.32	s16, .L13
 247 0010 E500     		lsls	r5, r4, #3
 248 0012 C4EBC402 		rsb	r2, r4, r4, lsl #3
ARM GAS  C:\Users\luoha\AppData\Local\Temp\ccK7ckjj.s 			page 7


 249 0016 9300     		lsls	r3, r2, #2
 250 0018 F3EE0E0A 		vmov.f32	s1, #3.0e+1
 251 001c B0EE480A 		vmov.f32	s0, s16
 252 0020 1148     		ldr	r0, .L13+4
 253 0022 1844     		add	r0, r0, r3
 254 0024 FFF7FEFF 		bl	Lowpass2Init
 255              	.LVL23:
  23:Modules/src/sensors_task.c ****     }
 256              		.loc 1 23 9 discriminator 3 view .LVU49
 257 0028 2B1B     		subs	r3, r5, r4
 258 002a 9A00     		lsls	r2, r3, #2
 259 002c DFED0F0A 		vldr.32	s1, .L13+8
 260 0030 B0EE480A 		vmov.f32	s0, s16
 261 0034 0E48     		ldr	r0, .L13+12
 262 0036 1044     		add	r0, r0, r2
 263 0038 FFF7FEFF 		bl	Lowpass2Init
 264              	.LVL24:
  21:Modules/src/sensors_task.c ****         Lowpass2Init(&acc_lpf[i], IMU_SAMPLE_FREQ, ACC_LPF_CUTOFF_FREQ);
 265              		.loc 1 21 36 discriminator 3 view .LVU50
  21:Modules/src/sensors_task.c ****         Lowpass2Init(&acc_lpf[i], IMU_SAMPLE_FREQ, ACC_LPF_CUTOFF_FREQ);
 266              		.loc 1 21 37 is_stmt 0 discriminator 3 view .LVU51
 267 003c 0134     		adds	r4, r4, #1
 268              	.LVL25:
 269              	.L10:
  21:Modules/src/sensors_task.c ****         Lowpass2Init(&acc_lpf[i], IMU_SAMPLE_FREQ, ACC_LPF_CUTOFF_FREQ);
 270              		.loc 1 21 29 is_stmt 1 discriminator 1 view .LVU52
  21:Modules/src/sensors_task.c ****         Lowpass2Init(&acc_lpf[i], IMU_SAMPLE_FREQ, ACC_LPF_CUTOFF_FREQ);
 271              		.loc 1 21 5 is_stmt 0 discriminator 1 view .LVU53
 272 003e 022C     		cmp	r4, #2
 273 0040 E4D9     		bls	.L11
 274              	.LBE2:
  26:Modules/src/sensors_task.c **** }
 275              		.loc 1 26 5 is_stmt 1 view .LVU54
  26:Modules/src/sensors_task.c **** }
 276              		.loc 1 26 27 is_stmt 0 view .LVU55
 277 0042 0C4B     		ldr	r3, .L13+16
 278 0044 0293     		str	r3, [sp, #8]
 279 0046 0C4B     		ldr	r3, .L13+20
 280 0048 0193     		str	r3, [sp, #4]
 281 004a 0523     		movs	r3, #5
 282 004c 0093     		str	r3, [sp]
 283 004e 0023     		movs	r3, #0
 284 0050 4FF48072 		mov	r2, #256
 285 0054 0949     		ldr	r1, .L13+24
 286 0056 0A48     		ldr	r0, .L13+28
 287 0058 FFF7FEFF 		bl	xTaskCreateStatic
 288              	.LVL26:
  27:Modules/src/sensors_task.c **** 
 289              		.loc 1 27 1 view .LVU56
 290 005c 05B0     		add	sp, sp, #20
 291              	.LCFI5:
 292              		.cfi_def_cfa_offset 20
 293              		@ sp needed
 294 005e BDEC028B 		vldm	sp!, {d8}
 295              	.LCFI6:
 296              		.cfi_restore 80
 297              		.cfi_restore 81
ARM GAS  C:\Users\luoha\AppData\Local\Temp\ccK7ckjj.s 			page 8


 298              		.cfi_def_cfa_offset 12
 299 0062 30BD     		pop	{r4, r5, pc}
 300              	.LVL27:
 301              	.L14:
  27:Modules/src/sensors_task.c **** 
 302              		.loc 1 27 1 view .LVU57
 303              		.align	2
 304              	.L13:
 305 0064 00007A44 		.word	1148846080
 306 0068 00000000 		.word	.LANCHOR0
 307 006c 0000A042 		.word	1117782016
 308 0070 00000000 		.word	.LANCHOR1
 309 0074 00000000 		.word	.LANCHOR2
 310 0078 00000000 		.word	.LANCHOR3
 311 007c 00000000 		.word	.LC0
 312 0080 00000000 		.word	SensorsTask
 313              		.cfi_endproc
 314              	.LFE172:
 316              		.global	sensors_task_wait
 317              		.section	.bss.acc_lpf,"aw",%nobits
 318              		.align	2
 319              		.set	.LANCHOR0,. + 0
 322              	acc_lpf:
 323 0000 00000000 		.space	84
 323      00000000 
 323      00000000 
 323      00000000 
 323      00000000 
 324              		.section	.bss.gyro_lpf,"aw",%nobits
 325              		.align	2
 326              		.set	.LANCHOR1,. + 0
 329              	gyro_lpf:
 330 0000 00000000 		.space	84
 330      00000000 
 330      00000000 
 330      00000000 
 330      00000000 
 331              		.section	.bss.osSys_sensors_taskStackBuffer,"aw",%nobits
 332              		.align	2
 333              		.set	.LANCHOR3,. + 0
 336              	osSys_sensors_taskStackBuffer:
 337 0000 00000000 		.space	1024
 337      00000000 
 337      00000000 
 337      00000000 
 337      00000000 
 338              		.section	.bss.osSys_sensors_taskTaskBuffer,"aw",%nobits
 339              		.align	2
 340              		.set	.LANCHOR2,. + 0
 343              	osSys_sensors_taskTaskBuffer:
 344 0000 00000000 		.space	84
 344      00000000 
 344      00000000 
 344      00000000 
 344      00000000 
 345              		.section	.rodata.sensors_task_wait,"a"
 346              		.align	2
ARM GAS  C:\Users\luoha\AppData\Local\Temp\ccK7ckjj.s 			page 9


 349              	sensors_task_wait:
 350 0000 01000000 		.word	1
 351              		.text
 352              	.Letext0:
 353              		.file 2 "c:\\gnu_tools_arm_embedded\\arm-none-eabi\\include\\machine\\_default_types.h"
 354              		.file 3 "c:\\gnu_tools_arm_embedded\\arm-none-eabi\\include\\sys\\_stdint.h"
 355              		.file 4 "Middlewares/Third_Party/FreeRTOS/Source/portable/GCC/ARM_CM4F/portmacro.h"
 356              		.file 5 "Middlewares/Third_Party/FreeRTOS/Source/include/FreeRTOS.h"
 357              		.file 6 "Inc/FreeRTOSConfig.h"
 358              		.file 7 "Drivers/CMSIS/Include/core_cm4.h"
 359              		.file 8 "Drivers/CMSIS/Device/ST/STM32F4xx/Include/system_stm32f4xx.h"
 360              		.file 9 "Drivers/CMSIS/Device/ST/STM32F4xx/Include/stm32f407xx.h"
 361              		.file 10 "Drivers/STM32F4xx_HAL_Driver/Inc/stm32f4xx_hal_def.h"
 362              		.file 11 "Drivers/STM32F4xx_HAL_Driver/Inc/stm32f4xx_hal_dma.h"
 363              		.file 12 "Drivers/STM32F4xx_HAL_Driver/Inc/stm32f4xx_hal_i2c.h"
 364              		.file 13 "Drivers/STM32F4xx_HAL_Driver/Inc/stm32f4xx_hal_uart.h"
 365              		.file 14 "Drivers/STM32F4xx_HAL_Driver/Inc/stm32f4xx_hal.h"
 366              		.file 15 "c:\\gnu_tools_arm_embedded\\arm-none-eabi\\include\\sys\\lock.h"
 367              		.file 16 "c:\\gnu_tools_arm_embedded\\arm-none-eabi\\include\\sys\\_types.h"
 368              		.file 17 "c:\\gnu_tools_arm_embedded\\lib\\gcc\\arm-none-eabi\\9.2.1\\include\\stddef.h"
 369              		.file 18 "c:\\gnu_tools_arm_embedded\\arm-none-eabi\\include\\sys\\reent.h"
 370              		.file 19 "Modules/include/utils/utils.h"
 371              		.file 20 "Inc/i2c.h"
 372              		.file 21 "Middlewares/Third_Party/FreeRTOS/Source/include/task.h"
 373              		.file 22 "Middlewares/Third_Party/FreeRTOS/Source/include/queue.h"
 374              		.file 23 "c:\\gnu_tools_arm_embedded\\arm-none-eabi\\include\\math.h"
 375              		.file 24 "Modules/include/filter.h"
 376              		.file 25 "Modules/include/hmc5883l.h"
 377              		.file 26 "Modules/include/mpu6050.h"
 378              		.file 27 "Modules/include/ms5611.h"
ARM GAS  C:\Users\luoha\AppData\Local\Temp\ccK7ckjj.s 			page 10


DEFINED SYMBOLS
                            *ABS*:00000000 sensors_task.c
C:\Users\luoha\AppData\Local\Temp\ccK7ckjj.s:18     .text.SensorsTask:00000000 $t
C:\Users\luoha\AppData\Local\Temp\ccK7ckjj.s:26     .text.SensorsTask:00000000 SensorsTask
C:\Users\luoha\AppData\Local\Temp\ccK7ckjj.s:194    .text.SensorsTask:000000d0 $d
C:\Users\luoha\AppData\Local\Temp\ccK7ckjj.s:204    .rodata.SensorsLaunch.str1.4:00000000 $d
C:\Users\luoha\AppData\Local\Temp\ccK7ckjj.s:208    .text.SensorsLaunch:00000000 $t
C:\Users\luoha\AppData\Local\Temp\ccK7ckjj.s:215    .text.SensorsLaunch:00000000 SensorsLaunch
C:\Users\luoha\AppData\Local\Temp\ccK7ckjj.s:305    .text.SensorsLaunch:00000064 $d
C:\Users\luoha\AppData\Local\Temp\ccK7ckjj.s:349    .rodata.sensors_task_wait:00000000 sensors_task_wait
C:\Users\luoha\AppData\Local\Temp\ccK7ckjj.s:318    .bss.acc_lpf:00000000 $d
C:\Users\luoha\AppData\Local\Temp\ccK7ckjj.s:322    .bss.acc_lpf:00000000 acc_lpf
C:\Users\luoha\AppData\Local\Temp\ccK7ckjj.s:325    .bss.gyro_lpf:00000000 $d
C:\Users\luoha\AppData\Local\Temp\ccK7ckjj.s:329    .bss.gyro_lpf:00000000 gyro_lpf
C:\Users\luoha\AppData\Local\Temp\ccK7ckjj.s:332    .bss.osSys_sensors_taskStackBuffer:00000000 $d
C:\Users\luoha\AppData\Local\Temp\ccK7ckjj.s:336    .bss.osSys_sensors_taskStackBuffer:00000000 osSys_sensors_taskStackBuffer
C:\Users\luoha\AppData\Local\Temp\ccK7ckjj.s:339    .bss.osSys_sensors_taskTaskBuffer:00000000 $d
C:\Users\luoha\AppData\Local\Temp\ccK7ckjj.s:343    .bss.osSys_sensors_taskTaskBuffer:00000000 osSys_sensors_taskTaskBuffer
C:\Users\luoha\AppData\Local\Temp\ccK7ckjj.s:346    .rodata.sensors_task_wait:00000000 $d

UNDEFINED SYMBOLS
xTaskGetTickCount
HMC5883LReadMagRaw
CalibrateMag
xQueueGenericSend
vTaskDelayUntil
MPU6050ReadAccelRaw
MPU6050ReadGyroRaw
CalibrateIMU
Lowpass2Apply3Axis
MS5611ReadAlt
mag_queue
acc_queue
gyro_queue
alt_queue
Lowpass2Init
xTaskCreateStatic
