ARM GAS  C:\Users\luoha\AppData\Local\Temp\ccE6HcR9.s 			page 1


   1              		.cpu cortex-m4
   2              		.eabi_attribute 27, 1
   3              		.eabi_attribute 28, 1
   4              		.eabi_attribute 20, 1
   5              		.eabi_attribute 21, 1
   6              		.eabi_attribute 23, 3
   7              		.eabi_attribute 24, 1
   8              		.eabi_attribute 25, 1
   9              		.eabi_attribute 26, 1
  10              		.eabi_attribute 30, 1
  11              		.eabi_attribute 34, 1
  12              		.eabi_attribute 18, 4
  13              		.file	"sensors.c"
  14              		.text
  15              	.Ltext0:
  16              		.cfi_sections	.debug_frame
  17              		.section	.rodata.SensorsInit.str1.4,"aMS",%progbits,1
  18              		.align	2
  19              	.LC0:
  20 0000 53656E73 		.ascii	"SensorsReadTask\000"
  20      6F727352 
  20      65616454 
  20      61736B00 
  21              		.section	.text.SensorsInit,"ax",%progbits
  22              		.align	1
  23              		.global	SensorsInit
  24              		.arch armv7e-m
  25              		.syntax unified
  26              		.thumb
  27              		.thumb_func
  28              		.fpu fpv4-sp-d16
  30              	SensorsInit:
  31              	.LFB138:
  32              		.file 1 "Modules/src/sensors.c"
   1:Modules/src/sensors.c **** #include "sensors.h"
   2:Modules/src/sensors.c **** 
   3:Modules/src/sensors.c **** xQueueHandle acc_raw_queue;
   4:Modules/src/sensors.c **** STATIC_MEM_QUEUE_ALLOC(acc_raw_queue, 1, sizeof(float) * 3);
   5:Modules/src/sensors.c **** xQueueHandle gyro_raw_queue;
   6:Modules/src/sensors.c **** STATIC_MEM_QUEUE_ALLOC(gyro_raw_queue, 1, sizeof(float) * 3);
   7:Modules/src/sensors.c **** xQueueHandle mag_raw_queue;
   8:Modules/src/sensors.c **** STATIC_MEM_QUEUE_ALLOC(mag_raw_queue, 1, sizeof(float) * 3);
   9:Modules/src/sensors.c **** 
  10:Modules/src/sensors.c **** static TaskHandle_t sensors_read_task_handle;
  11:Modules/src/sensors.c **** STATIC_MEM_TASK_ALLOC(sensors_read_task, configMINIMAL_STACK_SIZE * 3);
  12:Modules/src/sensors.c **** const TickType_t sensors_read_task_wait = pdMS_TO_TICKS(50);
  13:Modules/src/sensors.c **** 
  14:Modules/src/sensors.c **** float tmpx, tmpy, tmpz;
  15:Modules/src/sensors.c **** 
  16:Modules/src/sensors.c **** // void MPU6050Task(void *param);
  17:Modules/src/sensors.c **** // void MS5611Task(void *param);
  18:Modules/src/sensors.c **** // void HMC5883LTask(void *param);
  19:Modules/src/sensors.c **** // static TaskHandle_t mpu6050_task_handle;
  20:Modules/src/sensors.c **** // STATIC_MEM_TASK_ALLOC(mpu6050_task, configMINIMAL_STACK_SIZE * 5);
  21:Modules/src/sensors.c **** // static TaskHandle_t ms5611_task_handle;
  22:Modules/src/sensors.c **** // STATIC_MEM_TASK_ALLOC(ms5611_task, configMINIMAL_STACK_SIZE *5);
  23:Modules/src/sensors.c **** // static TaskHandle_t hmc5883l_task_handle;
ARM GAS  C:\Users\luoha\AppData\Local\Temp\ccE6HcR9.s 			page 2


  24:Modules/src/sensors.c **** // STATIC_MEM_TASK_ALLOC(hmc5883l_task, configMINIMAL_STACK_SIZE *5);
  25:Modules/src/sensors.c **** 
  26:Modules/src/sensors.c **** void SensorsInit(void) {
  33              		.loc 1 26 24 view -0
  34              		.cfi_startproc
  35              		@ args = 0, pretend = 0, frame = 0
  36              		@ frame_needed = 0, uses_anonymous_args = 0
  37 0000 10B5     		push	{r4, lr}
  38              	.LCFI0:
  39              		.cfi_def_cfa_offset 8
  40              		.cfi_offset 4, -8
  41              		.cfi_offset 14, -4
  42 0002 84B0     		sub	sp, sp, #16
  43              	.LCFI1:
  44              		.cfi_def_cfa_offset 24
  27:Modules/src/sensors.c ****     acc_raw_queue = STATIC_MEM_QUEUE_CREATE(acc_raw_queue);
  45              		.loc 1 27 5 view .LVU1
  46              		.loc 1 27 21 is_stmt 0 view .LVU2
  47 0004 0024     		movs	r4, #0
  48 0006 0094     		str	r4, [sp]
  49 0008 144B     		ldr	r3, .L3
  50 000a 154A     		ldr	r2, .L3+4
  51 000c 0C21     		movs	r1, #12
  52 000e 0120     		movs	r0, #1
  53 0010 FFF7FEFF 		bl	xQueueGenericCreateStatic
  54              	.LVL0:
  55              		.loc 1 27 19 view .LVU3
  56 0014 134B     		ldr	r3, .L3+8
  57 0016 1860     		str	r0, [r3]
  28:Modules/src/sensors.c ****     gyro_raw_queue = STATIC_MEM_QUEUE_CREATE(gyro_raw_queue);
  58              		.loc 1 28 5 is_stmt 1 view .LVU4
  59              		.loc 1 28 22 is_stmt 0 view .LVU5
  60 0018 0094     		str	r4, [sp]
  61 001a 134B     		ldr	r3, .L3+12
  62 001c 134A     		ldr	r2, .L3+16
  63 001e 0C21     		movs	r1, #12
  64 0020 0120     		movs	r0, #1
  65 0022 FFF7FEFF 		bl	xQueueGenericCreateStatic
  66              	.LVL1:
  67              		.loc 1 28 20 view .LVU6
  68 0026 124B     		ldr	r3, .L3+20
  69 0028 1860     		str	r0, [r3]
  29:Modules/src/sensors.c ****     mag_raw_queue = STATIC_MEM_QUEUE_CREATE(mag_raw_queue);
  70              		.loc 1 29 5 is_stmt 1 view .LVU7
  71              		.loc 1 29 21 is_stmt 0 view .LVU8
  72 002a 0094     		str	r4, [sp]
  73 002c 114B     		ldr	r3, .L3+24
  74 002e 124A     		ldr	r2, .L3+28
  75 0030 0C21     		movs	r1, #12
  76 0032 0120     		movs	r0, #1
  77 0034 FFF7FEFF 		bl	xQueueGenericCreateStatic
  78              	.LVL2:
  79              		.loc 1 29 19 view .LVU9
  80 0038 104B     		ldr	r3, .L3+32
  81 003a 1860     		str	r0, [r3]
  30:Modules/src/sensors.c **** 
  31:Modules/src/sensors.c ****     sensors_read_task_handle = STATIC_MEM_TASK_CREATE(sensors_read_task, SensorsReadTask, "SensorsR
ARM GAS  C:\Users\luoha\AppData\Local\Temp\ccE6HcR9.s 			page 3


  82              		.loc 1 31 5 is_stmt 1 view .LVU10
  83              		.loc 1 31 32 is_stmt 0 view .LVU11
  84 003c 104B     		ldr	r3, .L3+36
  85 003e 0293     		str	r3, [sp, #8]
  86 0040 104B     		ldr	r3, .L3+40
  87 0042 0193     		str	r3, [sp, #4]
  88 0044 0523     		movs	r3, #5
  89 0046 0093     		str	r3, [sp]
  90 0048 2346     		mov	r3, r4
  91 004a 4FF4C072 		mov	r2, #384
  92 004e 0E49     		ldr	r1, .L3+44
  93 0050 0E48     		ldr	r0, .L3+48
  94 0052 FFF7FEFF 		bl	xTaskCreateStatic
  95              	.LVL3:
  32:Modules/src/sensors.c ****     // mpu6050_task_handle = STATIC_MEM_TASK_CREATE(mpu6050_task, MPU6050Task, "MPU6050Task", NULL,
  33:Modules/src/sensors.c ****     // ms5611_task_handle = STATIC_MEM_TASK_CREATE(ms5611_task, MS5611Task, "MS5611Task", NULL, 1);
  34:Modules/src/sensors.c ****     // hmc5883l_task_handle = STATIC_MEM_TASK_CREATE(hmc5883l_task, HMC5883LTask, "HMC5883LTask", N
  35:Modules/src/sensors.c **** }
  96              		.loc 1 35 1 view .LVU12
  97 0056 04B0     		add	sp, sp, #16
  98              	.LCFI2:
  99              		.cfi_def_cfa_offset 8
 100              		@ sp needed
 101 0058 10BD     		pop	{r4, pc}
 102              	.L4:
 103 005a 00BF     		.align	2
 104              	.L3:
 105 005c 00000000 		.word	.LANCHOR0
 106 0060 00000000 		.word	.LANCHOR1
 107 0064 00000000 		.word	acc_raw_queue
 108 0068 00000000 		.word	.LANCHOR2
 109 006c 00000000 		.word	.LANCHOR3
 110 0070 00000000 		.word	gyro_raw_queue
 111 0074 00000000 		.word	.LANCHOR4
 112 0078 00000000 		.word	.LANCHOR5
 113 007c 00000000 		.word	mag_raw_queue
 114 0080 00000000 		.word	.LANCHOR6
 115 0084 00000000 		.word	.LANCHOR7
 116 0088 00000000 		.word	.LC0
 117 008c 00000000 		.word	SensorsReadTask
 118              		.cfi_endproc
 119              	.LFE138:
 121              		.section	.text.IMUCalibration,"ax",%progbits
 122              		.align	1
 123              		.global	IMUCalibration
 124              		.syntax unified
 125              		.thumb
 126              		.thumb_func
 127              		.fpu fpv4-sp-d16
 129              	IMUCalibration:
 130              	.LVL4:
 131              	.LFB140:
  36:Modules/src/sensors.c **** 
  37:Modules/src/sensors.c **** void SensorsReadTask(void *param) {
  38:Modules/src/sensors.c ****     bool IS_SENSORS_OK = MPU6050Init();
  39:Modules/src/sensors.c ****     IS_SENSORS_OK &= HMC5883LInit();
  40:Modules/src/sensors.c ****     IS_SENSORS_OK &= MS5611Init();
ARM GAS  C:\Users\luoha\AppData\Local\Temp\ccE6HcR9.s 			page 4


  41:Modules/src/sensors.c ****     if (!IS_SENSORS_OK) return;
  42:Modules/src/sensors.c **** 
  43:Modules/src/sensors.c ****     int16_t acc_raw[3], gyro_raw[3], mag_raw[3];
  44:Modules/src/sensors.c ****     float acc[3], gyro[3], mag[3];
  45:Modules/src/sensors.c **** 
  46:Modules/src/sensors.c ****     portTickType last_wait_time = xTaskGetTickCount();
  47:Modules/src/sensors.c ****     for(;;) {
  48:Modules/src/sensors.c ****         MPU6050ReadAccelRaw(acc_raw);
  49:Modules/src/sensors.c ****         MPU6050ReadGyroRaw(gyro_raw);
  50:Modules/src/sensors.c ****         HMC5883LReadMagRaw(mag_raw);
  51:Modules/src/sensors.c **** 
  52:Modules/src/sensors.c ****         // printf("%u,%d,%d,%d,%d,%d,%d\n", pdTICKS_TO_MS(xTaskGetTickCount()), acc_raw[0], acc_raw
  53:Modules/src/sensors.c ****         IMUCalibration(acc_raw, gyro_raw, mag_raw, acc, gyro, mag);
  54:Modules/src/sensors.c **** 
  55:Modules/src/sensors.c ****         // xQueueOverwrite(acc_raw_queue, acc_raw);
  56:Modules/src/sensors.c ****         // xQueueOverwrite(gyro_raw_queue, gyro_raw);
  57:Modules/src/sensors.c ****         // xQueueOverwrite(mag_raw_queue, mag_raw);
  58:Modules/src/sensors.c **** 
  59:Modules/src/sensors.c ****         // printf("Accel: %d, %d, %d\r\n", acc_raw[0], acc_raw[1], acc_raw[2]);
  60:Modules/src/sensors.c ****         // printf("Gyro: %d, %d, %d\r\n", gyro_raw[0], gyro_raw[1], gyro_raw[2]);
  61:Modules/src/sensors.c ****         // printf("Mag: %d, %d, %d\r\n", mag_raw[0], mag_raw[1], mag_raw[2]);
  62:Modules/src/sensors.c **** 
  63:Modules/src/sensors.c ****         // printf("Accel: %f %f %f\r\n", acc[0], acc[1], acc[2]);
  64:Modules/src/sensors.c ****         // printf("Gyro : %f %f %f\r\n", gyro[0], gyro[1], gyro[2]);
  65:Modules/src/sensors.c ****         // printf("Mag  : %f %f %f\r\n\r\n", mag[0], mag[1], mag[2]);
  66:Modules/src/sensors.c **** 
  67:Modules/src/sensors.c ****         printf("%f,%f,%f,%f,%f,%f,%f,%f,%f,%f\n", (float)pdTICKS_TO_MS(xTaskGetTickCount()), acc[0]
  68:Modules/src/sensors.c **** 
  69:Modules/src/sensors.c ****         // printf("%f,%d,%d,%d,%d,%d,%d,%d,%d,%d\n", (float)pdTICKS_TO_MS(xTaskGetTickCount()), acc
  70:Modules/src/sensors.c **** 
  71:Modules/src/sensors.c ****         vTaskDelayUntil(&last_wait_time, sensors_read_task_wait);
  72:Modules/src/sensors.c ****     }
  73:Modules/src/sensors.c **** 
  74:Modules/src/sensors.c ****     // int16_t* acc_raw  = pvPortMalloc(sizeof(int16_t) * 3);
  75:Modules/src/sensors.c ****     // int16_t* gyr_raw = pvPortMalloc(sizeof(int16_t) * 3);
  76:Modules/src/sensors.c ****     // int16_t* mag_raw = pvPortMalloc(sizeof(int16_t) * 3);
  77:Modules/src/sensors.c **** }
  78:Modules/src/sensors.c **** 
  79:Modules/src/sensors.c **** void IMUCalibration(const int16_t *acc_raw, const int16_t *gyro_raw, const int16_t *mag_raw, float 
 132              		.loc 1 79 131 is_stmt 1 view -0
 133              		.cfi_startproc
 134              		@ args = 8, pretend = 0, frame = 0
 135              		@ frame_needed = 0, uses_anonymous_args = 0
 136              		@ link register save eliminated.
 137              		.loc 1 79 131 is_stmt 0 view .LVU14
 138 0000 F0B4     		push	{r4, r5, r6, r7}
 139              	.LCFI3:
 140              		.cfi_def_cfa_offset 16
 141              		.cfi_offset 4, -16
 142              		.cfi_offset 5, -12
 143              		.cfi_offset 6, -8
 144              		.cfi_offset 7, -4
 145 0002 049F     		ldr	r7, [sp, #16]
 146 0004 059E     		ldr	r6, [sp, #20]
  80:Modules/src/sensors.c ****     tmpz = Sa_z * (acc_raw[2] - Ba_z);
 147              		.loc 1 80 5 is_stmt 1 view .LVU15
 148              		.loc 1 80 27 is_stmt 0 view .LVU16
ARM GAS  C:\Users\luoha\AppData\Local\Temp\ccE6HcR9.s 			page 5


 149 0006 B0F90440 		ldrsh	r4, [r0, #4]
 150 000a 06EE904A 		vmov	s13, r4	@ int
 151              		.loc 1 80 31 view .LVU17
 152 000e F8EEE66A 		vcvt.f32.s32	s13, s13
 153 0012 DFED837A 		vldr.32	s15, .L7
 154 0016 76EEA76A 		vadd.f32	s13, s13, s15
 155              		.loc 1 80 17 view .LVU18
 156 001a DFED827A 		vldr.32	s15, .L7+4
 157 001e 66EEA76A 		vmul.f32	s13, s13, s15
 158              		.loc 1 80 10 view .LVU19
 159 0022 814C     		ldr	r4, .L7+8
 160 0024 C4ED006A 		vstr.32	s13, [r4]
  81:Modules/src/sensors.c ****     tmpy = Sa_y * (acc_raw[1] - Ba_y);
 161              		.loc 1 81 5 is_stmt 1 view .LVU20
 162              		.loc 1 81 27 is_stmt 0 view .LVU21
 163 0028 B0F90250 		ldrsh	r5, [r0, #2]
 164 002c 06EE105A 		vmov	s12, r5	@ int
 165              		.loc 1 81 31 view .LVU22
 166 0030 B8EEC66A 		vcvt.f32.s32	s12, s12
 167 0034 DFED7D7A 		vldr.32	s15, .L7+12
 168 0038 36EE276A 		vadd.f32	s12, s12, s15
 169              		.loc 1 81 17 view .LVU23
 170 003c DFED7C7A 		vldr.32	s15, .L7+16
 171 0040 26EE276A 		vmul.f32	s12, s12, s15
 172              		.loc 1 81 10 view .LVU24
 173 0044 7B4D     		ldr	r5, .L7+20
 174 0046 85ED006A 		vstr.32	s12, [r5]
  82:Modules/src/sensors.c ****     tmpx = Sa_x * (acc_raw[0] - Ba_x);
 175              		.loc 1 82 5 is_stmt 1 view .LVU25
 176              		.loc 1 82 27 is_stmt 0 view .LVU26
 177 004a B0F90000 		ldrsh	r0, [r0]
 178              	.LVL5:
 179              		.loc 1 82 27 view .LVU27
 180 004e 07EE100A 		vmov	s14, r0	@ int
 181              		.loc 1 82 31 view .LVU28
 182 0052 B8EEC77A 		vcvt.f32.s32	s14, s14
 183 0056 DFED787A 		vldr.32	s15, .L7+24
 184 005a 37EE277A 		vadd.f32	s14, s14, s15
 185              		.loc 1 82 17 view .LVU29
 186 005e DFED777A 		vldr.32	s15, .L7+28
 187 0062 67EE277A 		vmul.f32	s15, s14, s15
 188              		.loc 1 82 10 view .LVU30
 189 0066 7648     		ldr	r0, .L7+32
 190 0068 C0ED007A 		vstr.32	s15, [r0]
  83:Modules/src/sensors.c **** 
  84:Modules/src/sensors.c ****     acc[2] = tmpz;
 191              		.loc 1 84 5 is_stmt 1 view .LVU31
 192              		.loc 1 84 12 is_stmt 0 view .LVU32
 193 006c C3ED026A 		vstr.32	s13, [r3, #8]
  85:Modules/src/sensors.c ****     acc[1] = tmpy + Ta12 * tmpz;
 194              		.loc 1 85 5 is_stmt 1 view .LVU33
 195              		.loc 1 85 26 is_stmt 0 view .LVU34
 196 0070 9FED747A 		vldr.32	s14, .L7+36
 197 0074 26EE877A 		vmul.f32	s14, s13, s14
 198              		.loc 1 85 19 view .LVU35
 199 0078 36EE077A 		vadd.f32	s14, s12, s14
 200              		.loc 1 85 12 view .LVU36
ARM GAS  C:\Users\luoha\AppData\Local\Temp\ccE6HcR9.s 			page 6


 201 007c 83ED017A 		vstr.32	s14, [r3, #4]
  86:Modules/src/sensors.c ****     acc[0] = tmpx + Ta01 * tmpy + Ta02 * tmpz;
 202              		.loc 1 86 5 is_stmt 1 view .LVU37
 203              		.loc 1 86 26 is_stmt 0 view .LVU38
 204 0080 9FED717A 		vldr.32	s14, .L7+40
 205 0084 26EE076A 		vmul.f32	s12, s12, s14
 206              		.loc 1 86 19 view .LVU39
 207 0088 77EE867A 		vadd.f32	s15, s15, s12
 208              		.loc 1 86 40 view .LVU40
 209 008c 9FED6F7A 		vldr.32	s14, .L7+44
 210 0090 66EE876A 		vmul.f32	s13, s13, s14
 211              		.loc 1 86 33 view .LVU41
 212 0094 77EEA67A 		vadd.f32	s15, s15, s13
 213              		.loc 1 86 12 view .LVU42
 214 0098 C3ED007A 		vstr.32	s15, [r3]
  87:Modules/src/sensors.c **** 
  88:Modules/src/sensors.c ****     tmpx = Sg_x * (gyro_raw[0] - Bg_x);
 215              		.loc 1 88 5 is_stmt 1 view .LVU43
 216              		.loc 1 88 28 is_stmt 0 view .LVU44
 217 009c B1F90030 		ldrsh	r3, [r1]
 218              	.LVL6:
 219              		.loc 1 88 28 view .LVU45
 220 00a0 07EE903A 		vmov	s15, r3	@ int
 221              		.loc 1 88 32 view .LVU46
 222 00a4 F8EEE77A 		vcvt.f32.s32	s15, s15
 223 00a8 9FED697A 		vldr.32	s14, .L7+48
 224 00ac 77EEC77A 		vsub.f32	s15, s15, s14
 225              		.loc 1 88 17 view .LVU47
 226 00b0 9FED687A 		vldr.32	s14, .L7+52
 227 00b4 67EE877A 		vmul.f32	s15, s15, s14
 228              		.loc 1 88 10 view .LVU48
 229 00b8 C0ED007A 		vstr.32	s15, [r0]
  89:Modules/src/sensors.c ****     tmpy = Sg_y * (gyro_raw[1] - Bg_y);
 230              		.loc 1 89 5 is_stmt 1 view .LVU49
 231              		.loc 1 89 28 is_stmt 0 view .LVU50
 232 00bc B1F90230 		ldrsh	r3, [r1, #2]
 233 00c0 06EE903A 		vmov	s13, r3	@ int
 234              		.loc 1 89 32 view .LVU51
 235 00c4 F8EEE66A 		vcvt.f32.s32	s13, s13
 236 00c8 9FED637A 		vldr.32	s14, .L7+56
 237 00cc 76EEC76A 		vsub.f32	s13, s13, s14
 238              		.loc 1 89 17 view .LVU52
 239 00d0 9FED627A 		vldr.32	s14, .L7+60
 240 00d4 66EE876A 		vmul.f32	s13, s13, s14
 241              		.loc 1 89 10 view .LVU53
 242 00d8 C5ED006A 		vstr.32	s13, [r5]
  90:Modules/src/sensors.c ****     tmpz = Sg_z * (gyro_raw[2] - Bg_z);
 243              		.loc 1 90 5 is_stmt 1 view .LVU54
 244              		.loc 1 90 28 is_stmt 0 view .LVU55
 245 00dc B1F90430 		ldrsh	r3, [r1, #4]
 246 00e0 07EE103A 		vmov	s14, r3	@ int
 247              		.loc 1 90 32 view .LVU56
 248 00e4 B8EEC77A 		vcvt.f32.s32	s14, s14
 249 00e8 9FED5D6A 		vldr.32	s12, .L7+64
 250 00ec 37EE067A 		vadd.f32	s14, s14, s12
 251              		.loc 1 90 17 view .LVU57
 252 00f0 9FED5C6A 		vldr.32	s12, .L7+68
ARM GAS  C:\Users\luoha\AppData\Local\Temp\ccE6HcR9.s 			page 7


 253 00f4 27EE067A 		vmul.f32	s14, s14, s12
 254              		.loc 1 90 10 view .LVU58
 255 00f8 84ED007A 		vstr.32	s14, [r4]
  91:Modules/src/sensors.c **** 
  92:Modules/src/sensors.c ****     gyro[0] = tmpx + Tg01 * tmpy + Tg02 * tmpz;
 256              		.loc 1 92 5 is_stmt 1 view .LVU59
 257              		.loc 1 92 27 is_stmt 0 view .LVU60
 258 00fc 9FED5A6A 		vldr.32	s12, .L7+72
 259 0100 66EE866A 		vmul.f32	s13, s13, s12
 260              		.loc 1 92 20 view .LVU61
 261 0104 77EEA67A 		vadd.f32	s15, s15, s13
 262              		.loc 1 92 41 view .LVU62
 263 0108 DFED586A 		vldr.32	s13, .L7+76
 264 010c 27EE267A 		vmul.f32	s14, s14, s13
 265              		.loc 1 92 34 view .LVU63
 266 0110 77EE877A 		vadd.f32	s15, s15, s14
 267              		.loc 1 92 13 view .LVU64
 268 0114 C7ED007A 		vstr.32	s15, [r7]
  93:Modules/src/sensors.c ****     gyro[1] = Tg10 * tmpx + tmpy + Tg12 * tmpz;
 269              		.loc 1 93 5 is_stmt 1 view .LVU65
 270              		.loc 1 93 20 is_stmt 0 view .LVU66
 271 0118 90ED007A 		vldr.32	s14, [r0]
 272 011c DFED547A 		vldr.32	s15, .L7+80
 273 0120 67EE277A 		vmul.f32	s15, s14, s15
 274              		.loc 1 93 27 view .LVU67
 275 0124 95ED006A 		vldr.32	s12, [r5]
 276 0128 77EE867A 		vadd.f32	s15, s15, s12
 277              		.loc 1 93 41 view .LVU68
 278 012c D4ED006A 		vldr.32	s13, [r4]
 279 0130 DFED505A 		vldr.32	s11, .L7+84
 280 0134 66EEA55A 		vmul.f32	s11, s13, s11
 281              		.loc 1 93 34 view .LVU69
 282 0138 77EEA57A 		vadd.f32	s15, s15, s11
 283              		.loc 1 93 13 view .LVU70
 284 013c C7ED017A 		vstr.32	s15, [r7, #4]
  94:Modules/src/sensors.c ****     gyro[2] = Tg20 * tmpx + Tg21 * tmpy + tmpz;
 285              		.loc 1 94 5 is_stmt 1 view .LVU71
 286              		.loc 1 94 20 is_stmt 0 view .LVU72
 287 0140 DFED4D7A 		vldr.32	s15, .L7+88
 288 0144 27EE277A 		vmul.f32	s14, s14, s15
 289              		.loc 1 94 34 view .LVU73
 290 0148 DFED4C7A 		vldr.32	s15, .L7+92
 291 014c 26EE276A 		vmul.f32	s12, s12, s15
 292              		.loc 1 94 27 view .LVU74
 293 0150 37EE067A 		vadd.f32	s14, s14, s12
 294              		.loc 1 94 41 view .LVU75
 295 0154 36EE877A 		vadd.f32	s14, s13, s14
 296              		.loc 1 94 13 view .LVU76
 297 0158 87ED027A 		vstr.32	s14, [r7, #8]
  95:Modules/src/sensors.c **** 
  96:Modules/src/sensors.c ****     tmpx = mag_raw[0] - Bm_x;
 298              		.loc 1 96 5 is_stmt 1 view .LVU77
 299              		.loc 1 96 19 is_stmt 0 view .LVU78
 300 015c B2F90030 		ldrsh	r3, [r2]
 301 0160 07EE903A 		vmov	s15, r3	@ int
 302              		.loc 1 96 23 view .LVU79
 303 0164 F8EEE77A 		vcvt.f32.s32	s15, s15
ARM GAS  C:\Users\luoha\AppData\Local\Temp\ccE6HcR9.s 			page 8


 304 0168 9FED457A 		vldr.32	s14, .L7+96
 305 016c 77EE877A 		vadd.f32	s15, s15, s14
 306              		.loc 1 96 10 view .LVU80
 307 0170 C0ED007A 		vstr.32	s15, [r0]
  97:Modules/src/sensors.c ****     tmpy = mag_raw[1] - Bm_y;
 308              		.loc 1 97 5 is_stmt 1 view .LVU81
 309              		.loc 1 97 19 is_stmt 0 view .LVU82
 310 0174 B2F90230 		ldrsh	r3, [r2, #2]
 311 0178 06EE903A 		vmov	s13, r3	@ int
 312              		.loc 1 97 23 view .LVU83
 313 017c F8EEE66A 		vcvt.f32.s32	s13, s13
 314 0180 9FED407A 		vldr.32	s14, .L7+100
 315 0184 76EEC76A 		vsub.f32	s13, s13, s14
 316              		.loc 1 97 10 view .LVU84
 317 0188 C5ED006A 		vstr.32	s13, [r5]
  98:Modules/src/sensors.c ****     tmpz = mag_raw[2] - Bm_z;
 318              		.loc 1 98 5 is_stmt 1 view .LVU85
 319              		.loc 1 98 19 is_stmt 0 view .LVU86
 320 018c B2F90430 		ldrsh	r3, [r2, #4]
 321 0190 07EE103A 		vmov	s14, r3	@ int
 322              		.loc 1 98 23 view .LVU87
 323 0194 B8EEC77A 		vcvt.f32.s32	s14, s14
 324 0198 9FED3B6A 		vldr.32	s12, .L7+104
 325 019c 37EE467A 		vsub.f32	s14, s14, s12
 326              		.loc 1 98 10 view .LVU88
 327 01a0 84ED007A 		vstr.32	s14, [r4]
  99:Modules/src/sensors.c **** 
 100:Modules/src/sensors.c ****     mag[0] = tmpx * Tm00 + tmpy * Tm01  + tmpz * Tm02;
 328              		.loc 1 100 5 is_stmt 1 view .LVU89
 329              		.loc 1 100 19 is_stmt 0 view .LVU90
 330 01a4 9FED396A 		vldr.32	s12, .L7+108
 331 01a8 67EE867A 		vmul.f32	s15, s15, s12
 332              		.loc 1 100 33 view .LVU91
 333 01ac 9FED386A 		vldr.32	s12, .L7+112
 334 01b0 66EE866A 		vmul.f32	s13, s13, s12
 335              		.loc 1 100 26 view .LVU92
 336 01b4 77EEA67A 		vadd.f32	s15, s15, s13
 337              		.loc 1 100 48 view .LVU93
 338 01b8 DFED366A 		vldr.32	s13, .L7+116
 339 01bc 27EE267A 		vmul.f32	s14, s14, s13
 340              		.loc 1 100 41 view .LVU94
 341 01c0 77EE877A 		vadd.f32	s15, s15, s14
 342              		.loc 1 100 12 view .LVU95
 343 01c4 C6ED007A 		vstr.32	s15, [r6]
 101:Modules/src/sensors.c ****     mag[1] = tmpx * Tm10 + tmpy * Tm11  + tmpz * Tm12;
 344              		.loc 1 101 5 is_stmt 1 view .LVU96
 345              		.loc 1 101 19 is_stmt 0 view .LVU97
 346 01c8 D0ED007A 		vldr.32	s15, [r0]
 347 01cc 9FED327A 		vldr.32	s14, .L7+120
 348 01d0 27EE877A 		vmul.f32	s14, s15, s14
 349              		.loc 1 101 33 view .LVU98
 350 01d4 95ED006A 		vldr.32	s12, [r5]
 351 01d8 DFED306A 		vldr.32	s13, .L7+124
 352 01dc 66EE266A 		vmul.f32	s13, s12, s13
 353              		.loc 1 101 26 view .LVU99
 354 01e0 37EE267A 		vadd.f32	s14, s14, s13
 355              		.loc 1 101 48 view .LVU100
ARM GAS  C:\Users\luoha\AppData\Local\Temp\ccE6HcR9.s 			page 9


 356 01e4 D4ED006A 		vldr.32	s13, [r4]
 357 01e8 DFED2D5A 		vldr.32	s11, .L7+128
 358 01ec 66EEA55A 		vmul.f32	s11, s13, s11
 359              		.loc 1 101 41 view .LVU101
 360 01f0 37EE257A 		vadd.f32	s14, s14, s11
 361              		.loc 1 101 12 view .LVU102
 362 01f4 86ED017A 		vstr.32	s14, [r6, #4]
 102:Modules/src/sensors.c ****     mag[2] = tmpx * Tm20 + tmpy * Tm21  + tmpz * Tm22;
 363              		.loc 1 102 5 is_stmt 1 view .LVU103
 364              		.loc 1 102 19 is_stmt 0 view .LVU104
 365 01f8 9FED2A7A 		vldr.32	s14, .L7+132
 366 01fc 67EE877A 		vmul.f32	s15, s15, s14
 367              		.loc 1 102 33 view .LVU105
 368 0200 9FED297A 		vldr.32	s14, .L7+136
 369 0204 26EE076A 		vmul.f32	s12, s12, s14
 370              		.loc 1 102 26 view .LVU106
 371 0208 77EE867A 		vadd.f32	s15, s15, s12
 372              		.loc 1 102 48 view .LVU107
 373 020c 9FED277A 		vldr.32	s14, .L7+140
 374 0210 66EE876A 		vmul.f32	s13, s13, s14
 375              		.loc 1 102 41 view .LVU108
 376 0214 77EEA67A 		vadd.f32	s15, s15, s13
 377              		.loc 1 102 12 view .LVU109
 378 0218 C6ED027A 		vstr.32	s15, [r6, #8]
 103:Modules/src/sensors.c **** }
 379              		.loc 1 103 1 view .LVU110
 380 021c F0BC     		pop	{r4, r5, r6, r7}
 381              	.LCFI4:
 382              		.cfi_restore 7
 383              		.cfi_restore 6
 384              		.cfi_restore 5
 385              		.cfi_restore 4
 386              		.cfi_def_cfa_offset 0
 387              	.LVL7:
 388              		.loc 1 103 1 view .LVU111
 389 021e 7047     		bx	lr
 390              	.L8:
 391              		.align	2
 392              	.L7:
 393 0220 C395D243 		.word	1137874371
 394 0224 BDC11BBA 		.word	-1172586051
 395 0228 00000000 		.word	tmpz
 396 022c D7A3C842 		.word	1120445399
 397 0230 E0EA1BBA 		.word	-1172575520
 398 0234 00000000 		.word	tmpy
 399 0238 AAC16B44 		.word	1147912618
 400 023c 88621CBA 		.word	-1172544888
 401 0240 00000000 		.word	tmpx
 402 0244 F8FBE6BB 		.word	-1142490120
 403 0248 94B7BE38 		.word	952022932
 404 024c B03196BB 		.word	-1147784784
 405 0250 0F9CBC41 		.word	1102879759
 406 0254 0B248B3A 		.word	982197259
 407 0258 4BE52940 		.word	1076487499
 408 025c E4748A3A 		.word	982152420
 409 0260 F2B00E41 		.word	1091481842
 410 0264 5E528C3A 		.word	982274654
ARM GAS  C:\Users\luoha\AppData\Local\Temp\ccE6HcR9.s 			page 10


 411 0268 15D426BA 		.word	-1171860459
 412 026c FCABA63B 		.word	1000778748
 413 0270 387832BB 		.word	-1154320328
 414 0274 AC4FBD3B 		.word	1002262444
 415 0278 3328073C 		.word	1007102003
 416 027c ECD2503C 		.word	1011929836
 417 0280 09262643 		.word	1126573577
 418 0284 064E3A43 		.word	1127894534
 419 0288 671A1D43 		.word	1125980775
 420 028c 8920153B 		.word	991240329
 421 0290 D59862B7 		.word	-1218275115
 422 0294 8307F838 		.word	955778947
 423 0298 BAB45938 		.word	945403066
 424 029c 6FB3113B 		.word	991015791
 425 02a0 E2E25437 		.word	928309986
 426 02a4 6DD15C37 		.word	928829805
 427 02a8 5AA05CB7 		.word	-1218666406
 428 02ac 3CD9283B 		.word	992532796
 429              		.cfi_endproc
 430              	.LFE140:
 432              		.global	__aeabi_f2d
 433              		.section	.rodata.SensorsReadTask.str1.4,"aMS",%progbits,1
 434              		.align	2
 435              	.LC1:
 436 0000 25662C25 		.ascii	"%f,%f,%f,%f,%f,%f,%f,%f,%f,%f\012\000"
 436      662C2566 
 436      2C25662C 
 436      25662C25 
 436      662C2566 
 437              		.section	.text.SensorsReadTask,"ax",%progbits
 438              		.align	1
 439              		.global	SensorsReadTask
 440              		.syntax unified
 441              		.thumb
 442              		.thumb_func
 443              		.fpu fpv4-sp-d16
 445              	SensorsReadTask:
 446              	.LVL8:
 447              	.LFB139:
  37:Modules/src/sensors.c ****     bool IS_SENSORS_OK = MPU6050Init();
 448              		.loc 1 37 35 is_stmt 1 view -0
 449              		.cfi_startproc
 450              		@ args = 0, pretend = 0, frame = 64
 451              		@ frame_needed = 0, uses_anonymous_args = 0
  37:Modules/src/sensors.c ****     bool IS_SENSORS_OK = MPU6050Init();
 452              		.loc 1 37 35 is_stmt 0 view .LVU113
 453 0000 30B5     		push	{r4, r5, lr}
 454              	.LCFI5:
 455              		.cfi_def_cfa_offset 12
 456              		.cfi_offset 4, -12
 457              		.cfi_offset 5, -8
 458              		.cfi_offset 14, -4
 459 0002 A3B0     		sub	sp, sp, #140
 460              	.LCFI6:
 461              		.cfi_def_cfa_offset 152
  38:Modules/src/sensors.c ****     IS_SENSORS_OK &= HMC5883LInit();
 462              		.loc 1 38 5 is_stmt 1 view .LVU114
ARM GAS  C:\Users\luoha\AppData\Local\Temp\ccE6HcR9.s 			page 11


  38:Modules/src/sensors.c ****     IS_SENSORS_OK &= HMC5883LInit();
 463              		.loc 1 38 26 is_stmt 0 view .LVU115
 464 0004 FFF7FEFF 		bl	MPU6050Init
 465              	.LVL9:
  38:Modules/src/sensors.c ****     IS_SENSORS_OK &= HMC5883LInit();
 466              		.loc 1 38 26 view .LVU116
 467 0008 0446     		mov	r4, r0
 468              	.LVL10:
  39:Modules/src/sensors.c ****     IS_SENSORS_OK &= MS5611Init();
 469              		.loc 1 39 5 is_stmt 1 view .LVU117
  39:Modules/src/sensors.c ****     IS_SENSORS_OK &= MS5611Init();
 470              		.loc 1 39 22 is_stmt 0 view .LVU118
 471 000a FFF7FEFF 		bl	HMC5883LInit
 472              	.LVL11:
 473 000e 0440     		ands	r4, r4, r0
 474              	.LVL12:
  40:Modules/src/sensors.c ****     if (!IS_SENSORS_OK) return;
 475              		.loc 1 40 5 is_stmt 1 view .LVU119
  40:Modules/src/sensors.c ****     if (!IS_SENSORS_OK) return;
 476              		.loc 1 40 22 is_stmt 0 view .LVU120
 477 0010 FFF7FEFF 		bl	MS5611Init
 478              	.LVL13:
  41:Modules/src/sensors.c **** 
 479              		.loc 1 41 5 is_stmt 1 view .LVU121
  41:Modules/src/sensors.c **** 
 480              		.loc 1 41 8 is_stmt 0 view .LVU122
 481 0014 0028     		cmp	r0, #0
 482 0016 63D0     		beq	.L9
 483 0018 E4B2     		uxtb	r4, r4
  41:Modules/src/sensors.c **** 
 484              		.loc 1 41 8 view .LVU123
 485 001a 002C     		cmp	r4, #0
 486 001c 60D0     		beq	.L9
  43:Modules/src/sensors.c ****     float acc[3], gyro[3], mag[3];
 487              		.loc 1 43 5 is_stmt 1 view .LVU124
  44:Modules/src/sensors.c **** 
 488              		.loc 1 44 5 view .LVU125
  46:Modules/src/sensors.c ****     for(;;) {
 489              		.loc 1 46 5 view .LVU126
  46:Modules/src/sensors.c ****     for(;;) {
 490              		.loc 1 46 35 is_stmt 0 view .LVU127
 491 001e FFF7FEFF 		bl	xTaskGetTickCount
 492              	.LVL14:
  46:Modules/src/sensors.c ****     for(;;) {
 493              		.loc 1 46 18 view .LVU128
 494 0022 1290     		str	r0, [sp, #72]
 495              	.L12:
  47:Modules/src/sensors.c ****         MPU6050ReadAccelRaw(acc_raw);
 496              		.loc 1 47 5 is_stmt 1 discriminator 1 view .LVU129
  48:Modules/src/sensors.c ****         MPU6050ReadGyroRaw(gyro_raw);
 497              		.loc 1 48 9 discriminator 1 view .LVU130
 498 0024 20A8     		add	r0, sp, #128
 499 0026 FFF7FEFF 		bl	MPU6050ReadAccelRaw
 500              	.LVL15:
  49:Modules/src/sensors.c ****         HMC5883LReadMagRaw(mag_raw);
 501              		.loc 1 49 9 discriminator 1 view .LVU131
 502 002a 1EA8     		add	r0, sp, #120
ARM GAS  C:\Users\luoha\AppData\Local\Temp\ccE6HcR9.s 			page 12


 503 002c FFF7FEFF 		bl	MPU6050ReadGyroRaw
 504              	.LVL16:
  50:Modules/src/sensors.c **** 
 505              		.loc 1 50 9 discriminator 1 view .LVU132
 506 0030 1CA8     		add	r0, sp, #112
 507 0032 FFF7FEFF 		bl	HMC5883LReadMagRaw
 508              	.LVL17:
  53:Modules/src/sensors.c **** 
 509              		.loc 1 53 9 discriminator 1 view .LVU133
 510 0036 13AB     		add	r3, sp, #76
 511 0038 0193     		str	r3, [sp, #4]
 512 003a 16AB     		add	r3, sp, #88
 513 003c 0093     		str	r3, [sp]
 514 003e 19AB     		add	r3, sp, #100
 515 0040 1CAA     		add	r2, sp, #112
 516 0042 1EA9     		add	r1, sp, #120
 517 0044 20A8     		add	r0, sp, #128
 518 0046 FFF7FEFF 		bl	IMUCalibration
 519              	.LVL18:
  67:Modules/src/sensors.c **** 
 520              		.loc 1 67 9 discriminator 1 view .LVU134
  67:Modules/src/sensors.c **** 
 521              		.loc 1 67 58 is_stmt 0 discriminator 1 view .LVU135
 522 004a FFF7FEFF 		bl	xTaskGetTickCount
 523              	.LVL19:
 524 004e 4FF47A73 		mov	r3, #1000
 525 0052 03FB00F0 		mul	r0, r3, r0
 526 0056 234B     		ldr	r3, .L14
 527 0058 A3FB0030 		umull	r3, r0, r3, r0
 528 005c 8009     		lsrs	r0, r0, #6
  67:Modules/src/sensors.c **** 
 529              		.loc 1 67 9 discriminator 1 view .LVU136
 530 005e 07EE900A 		vmov	s15, r0	@ int
 531 0062 F8EE677A 		vcvt.f32.u32	s15, s15
 532 0066 17EE900A 		vmov	r0, s15
 533 006a FFF7FEFF 		bl	__aeabi_f2d
 534              	.LVL20:
 535 006e 0446     		mov	r4, r0
 536 0070 0D46     		mov	r5, r1
 537 0072 1598     		ldr	r0, [sp, #84]	@ float
 538 0074 FFF7FEFF 		bl	__aeabi_f2d
 539              	.LVL21:
 540 0078 CDE91001 		strd	r0, [sp, #64]
 541 007c 1498     		ldr	r0, [sp, #80]	@ float
 542 007e FFF7FEFF 		bl	__aeabi_f2d
 543              	.LVL22:
 544 0082 CDE90E01 		strd	r0, [sp, #56]
 545 0086 1398     		ldr	r0, [sp, #76]	@ float
 546 0088 FFF7FEFF 		bl	__aeabi_f2d
 547              	.LVL23:
 548 008c CDE90C01 		strd	r0, [sp, #48]
 549 0090 1898     		ldr	r0, [sp, #96]	@ float
 550 0092 FFF7FEFF 		bl	__aeabi_f2d
 551              	.LVL24:
 552 0096 CDE90A01 		strd	r0, [sp, #40]
 553 009a 1798     		ldr	r0, [sp, #92]	@ float
 554 009c FFF7FEFF 		bl	__aeabi_f2d
ARM GAS  C:\Users\luoha\AppData\Local\Temp\ccE6HcR9.s 			page 13


 555              	.LVL25:
 556 00a0 CDE90801 		strd	r0, [sp, #32]
 557 00a4 1698     		ldr	r0, [sp, #88]	@ float
 558 00a6 FFF7FEFF 		bl	__aeabi_f2d
 559              	.LVL26:
 560 00aa CDE90601 		strd	r0, [sp, #24]
 561 00ae 1B98     		ldr	r0, [sp, #108]	@ float
 562 00b0 FFF7FEFF 		bl	__aeabi_f2d
 563              	.LVL27:
 564 00b4 CDE90401 		strd	r0, [sp, #16]
 565 00b8 1A98     		ldr	r0, [sp, #104]	@ float
 566 00ba FFF7FEFF 		bl	__aeabi_f2d
 567              	.LVL28:
 568 00be CDE90201 		strd	r0, [sp, #8]
 569 00c2 1998     		ldr	r0, [sp, #100]	@ float
 570 00c4 FFF7FEFF 		bl	__aeabi_f2d
 571              	.LVL29:
 572 00c8 CDE90001 		strd	r0, [sp]
 573 00cc 2246     		mov	r2, r4
 574 00ce 2B46     		mov	r3, r5
 575 00d0 0548     		ldr	r0, .L14+4
 576 00d2 FFF7FEFF 		bl	printf
 577              	.LVL30:
  71:Modules/src/sensors.c ****     }
 578              		.loc 1 71 9 is_stmt 1 discriminator 1 view .LVU137
 579 00d6 3221     		movs	r1, #50
 580 00d8 12A8     		add	r0, sp, #72
 581 00da FFF7FEFF 		bl	vTaskDelayUntil
 582              	.LVL31:
  47:Modules/src/sensors.c ****         MPU6050ReadAccelRaw(acc_raw);
 583              		.loc 1 47 10 discriminator 1 view .LVU138
 584 00de A1E7     		b	.L12
 585              	.L9:
  77:Modules/src/sensors.c **** 
 586              		.loc 1 77 1 is_stmt 0 view .LVU139
 587 00e0 23B0     		add	sp, sp, #140
 588              	.LCFI7:
 589              		.cfi_def_cfa_offset 12
 590              		@ sp needed
 591 00e2 30BD     		pop	{r4, r5, pc}
 592              	.L15:
 593              		.align	2
 594              	.L14:
 595 00e4 D34D6210 		.word	274877907
 596 00e8 00000000 		.word	.LC1
 597              		.cfi_endproc
 598              	.LFE139:
 600              		.comm	tmpz,4,4
 601              		.comm	tmpy,4,4
 602              		.comm	tmpx,4,4
 603              		.global	sensors_read_task_wait
 604              		.comm	mag_raw_queue,4,4
 605              		.comm	gyro_raw_queue,4,4
 606              		.comm	acc_raw_queue,4,4
 607              		.section	.bss.osSys_acc_raw_queueMgm,"aw",%nobits
 608              		.align	2
 609              		.set	.LANCHOR0,. + 0
ARM GAS  C:\Users\luoha\AppData\Local\Temp\ccE6HcR9.s 			page 14


 612              	osSys_acc_raw_queueMgm:
 613 0000 00000000 		.space	72
 613      00000000 
 613      00000000 
 613      00000000 
 613      00000000 
 614              		.section	.bss.osSys_acc_raw_queueStorage,"aw",%nobits
 615              		.align	2
 616              		.set	.LANCHOR1,. + 0
 619              	osSys_acc_raw_queueStorage:
 620 0000 00000000 		.space	12
 620      00000000 
 620      00000000 
 621              		.section	.bss.osSys_gyro_raw_queueMgm,"aw",%nobits
 622              		.align	2
 623              		.set	.LANCHOR2,. + 0
 626              	osSys_gyro_raw_queueMgm:
 627 0000 00000000 		.space	72
 627      00000000 
 627      00000000 
 627      00000000 
 627      00000000 
 628              		.section	.bss.osSys_gyro_raw_queueStorage,"aw",%nobits
 629              		.align	2
 630              		.set	.LANCHOR3,. + 0
 633              	osSys_gyro_raw_queueStorage:
 634 0000 00000000 		.space	12
 634      00000000 
 634      00000000 
 635              		.section	.bss.osSys_mag_raw_queueMgm,"aw",%nobits
 636              		.align	2
 637              		.set	.LANCHOR4,. + 0
 640              	osSys_mag_raw_queueMgm:
 641 0000 00000000 		.space	72
 641      00000000 
 641      00000000 
 641      00000000 
 641      00000000 
 642              		.section	.bss.osSys_mag_raw_queueStorage,"aw",%nobits
 643              		.align	2
 644              		.set	.LANCHOR5,. + 0
 647              	osSys_mag_raw_queueStorage:
 648 0000 00000000 		.space	12
 648      00000000 
 648      00000000 
 649              		.section	.bss.osSys_sensors_read_taskStackBuffer,"aw",%nobits
 650              		.align	2
 651              		.set	.LANCHOR7,. + 0
 654              	osSys_sensors_read_taskStackBuffer:
 655 0000 00000000 		.space	1536
 655      00000000 
 655      00000000 
 655      00000000 
 655      00000000 
 656              		.section	.bss.osSys_sensors_read_taskTaskBuffer,"aw",%nobits
 657              		.align	2
 658              		.set	.LANCHOR6,. + 0
ARM GAS  C:\Users\luoha\AppData\Local\Temp\ccE6HcR9.s 			page 15


 661              	osSys_sensors_read_taskTaskBuffer:
 662 0000 00000000 		.space	84
 662      00000000 
 662      00000000 
 662      00000000 
 662      00000000 
 663              		.section	.rodata.sensors_read_task_wait,"a"
 664              		.align	2
 667              	sensors_read_task_wait:
 668 0000 32000000 		.word	50
 669              		.text
 670              	.Letext0:
 671              		.file 2 "e:\\gnu tools arm embedded\\9 2019-q4-major\\arm-none-eabi\\include\\machine\\_default_ty
 672              		.file 3 "e:\\gnu tools arm embedded\\9 2019-q4-major\\arm-none-eabi\\include\\sys\\_stdint.h"
 673              		.file 4 "Middlewares/Third_Party/FreeRTOS/Source/portable/GCC/ARM_CM4F/portmacro.h"
 674              		.file 5 "Middlewares/Third_Party/FreeRTOS/Source/include/FreeRTOS.h"
 675              		.file 6 "Inc/FreeRTOSConfig.h"
 676              		.file 7 "Drivers/CMSIS/Include/core_cm4.h"
 677              		.file 8 "Drivers/CMSIS/Device/ST/STM32F4xx/Include/system_stm32f4xx.h"
 678              		.file 9 "Drivers/CMSIS/Device/ST/STM32F4xx/Include/stm32f407xx.h"
 679              		.file 10 "Drivers/STM32F4xx_HAL_Driver/Inc/stm32f4xx_hal_def.h"
 680              		.file 11 "Drivers/STM32F4xx_HAL_Driver/Inc/stm32f4xx_hal_dma.h"
 681              		.file 12 "Drivers/STM32F4xx_HAL_Driver/Inc/stm32f4xx_hal_i2c.h"
 682              		.file 13 "Drivers/STM32F4xx_HAL_Driver/Inc/stm32f4xx_hal_uart.h"
 683              		.file 14 "Drivers/STM32F4xx_HAL_Driver/Inc/stm32f4xx_hal.h"
 684              		.file 15 "e:\\gnu tools arm embedded\\9 2019-q4-major\\arm-none-eabi\\include\\sys\\lock.h"
 685              		.file 16 "e:\\gnu tools arm embedded\\9 2019-q4-major\\arm-none-eabi\\include\\sys\\_types.h"
 686              		.file 17 "e:\\gnu tools arm embedded\\9 2019-q4-major\\lib\\gcc\\arm-none-eabi\\9.2.1\\include\\st
 687              		.file 18 "e:\\gnu tools arm embedded\\9 2019-q4-major\\arm-none-eabi\\include\\sys\\reent.h"
 688              		.file 19 "Modules/include/utils.h"
 689              		.file 20 "Inc/i2c.h"
 690              		.file 21 "Middlewares/Third_Party/FreeRTOS/Source/include/task.h"
 691              		.file 22 "Middlewares/Third_Party/FreeRTOS/Source/include/queue.h"
 692              		.file 23 "Modules/include/sensors.h"
 693              		.file 24 "Modules/include/mpu6050.h"
 694              		.file 25 "Modules/include/hmc5883l.h"
 695              		.file 26 "Modules/include/ms5611.h"
 696              		.file 27 "e:\\gnu tools arm embedded\\9 2019-q4-major\\arm-none-eabi\\include\\stdio.h"
ARM GAS  C:\Users\luoha\AppData\Local\Temp\ccE6HcR9.s 			page 16


DEFINED SYMBOLS
                            *ABS*:00000000 sensors.c
C:\Users\luoha\AppData\Local\Temp\ccE6HcR9.s:18     .rodata.SensorsInit.str1.4:00000000 $d
C:\Users\luoha\AppData\Local\Temp\ccE6HcR9.s:22     .text.SensorsInit:00000000 $t
C:\Users\luoha\AppData\Local\Temp\ccE6HcR9.s:30     .text.SensorsInit:00000000 SensorsInit
C:\Users\luoha\AppData\Local\Temp\ccE6HcR9.s:105    .text.SensorsInit:0000005c $d
                            *COM*:00000004 acc_raw_queue
                            *COM*:00000004 gyro_raw_queue
                            *COM*:00000004 mag_raw_queue
C:\Users\luoha\AppData\Local\Temp\ccE6HcR9.s:445    .text.SensorsReadTask:00000000 SensorsReadTask
C:\Users\luoha\AppData\Local\Temp\ccE6HcR9.s:122    .text.IMUCalibration:00000000 $t
C:\Users\luoha\AppData\Local\Temp\ccE6HcR9.s:129    .text.IMUCalibration:00000000 IMUCalibration
C:\Users\luoha\AppData\Local\Temp\ccE6HcR9.s:393    .text.IMUCalibration:00000220 $d
                            *COM*:00000004 tmpz
                            *COM*:00000004 tmpy
                            *COM*:00000004 tmpx
C:\Users\luoha\AppData\Local\Temp\ccE6HcR9.s:434    .rodata.SensorsReadTask.str1.4:00000000 $d
C:\Users\luoha\AppData\Local\Temp\ccE6HcR9.s:438    .text.SensorsReadTask:00000000 $t
C:\Users\luoha\AppData\Local\Temp\ccE6HcR9.s:595    .text.SensorsReadTask:000000e4 $d
C:\Users\luoha\AppData\Local\Temp\ccE6HcR9.s:667    .rodata.sensors_read_task_wait:00000000 sensors_read_task_wait
C:\Users\luoha\AppData\Local\Temp\ccE6HcR9.s:608    .bss.osSys_acc_raw_queueMgm:00000000 $d
C:\Users\luoha\AppData\Local\Temp\ccE6HcR9.s:612    .bss.osSys_acc_raw_queueMgm:00000000 osSys_acc_raw_queueMgm
C:\Users\luoha\AppData\Local\Temp\ccE6HcR9.s:615    .bss.osSys_acc_raw_queueStorage:00000000 $d
C:\Users\luoha\AppData\Local\Temp\ccE6HcR9.s:619    .bss.osSys_acc_raw_queueStorage:00000000 osSys_acc_raw_queueStorage
C:\Users\luoha\AppData\Local\Temp\ccE6HcR9.s:622    .bss.osSys_gyro_raw_queueMgm:00000000 $d
C:\Users\luoha\AppData\Local\Temp\ccE6HcR9.s:626    .bss.osSys_gyro_raw_queueMgm:00000000 osSys_gyro_raw_queueMgm
C:\Users\luoha\AppData\Local\Temp\ccE6HcR9.s:629    .bss.osSys_gyro_raw_queueStorage:00000000 $d
C:\Users\luoha\AppData\Local\Temp\ccE6HcR9.s:633    .bss.osSys_gyro_raw_queueStorage:00000000 osSys_gyro_raw_queueStorage
C:\Users\luoha\AppData\Local\Temp\ccE6HcR9.s:636    .bss.osSys_mag_raw_queueMgm:00000000 $d
C:\Users\luoha\AppData\Local\Temp\ccE6HcR9.s:640    .bss.osSys_mag_raw_queueMgm:00000000 osSys_mag_raw_queueMgm
C:\Users\luoha\AppData\Local\Temp\ccE6HcR9.s:643    .bss.osSys_mag_raw_queueStorage:00000000 $d
C:\Users\luoha\AppData\Local\Temp\ccE6HcR9.s:647    .bss.osSys_mag_raw_queueStorage:00000000 osSys_mag_raw_queueStorage
C:\Users\luoha\AppData\Local\Temp\ccE6HcR9.s:650    .bss.osSys_sensors_read_taskStackBuffer:00000000 $d
C:\Users\luoha\AppData\Local\Temp\ccE6HcR9.s:654    .bss.osSys_sensors_read_taskStackBuffer:00000000 osSys_sensors_read_taskStackBuffer
C:\Users\luoha\AppData\Local\Temp\ccE6HcR9.s:657    .bss.osSys_sensors_read_taskTaskBuffer:00000000 $d
C:\Users\luoha\AppData\Local\Temp\ccE6HcR9.s:661    .bss.osSys_sensors_read_taskTaskBuffer:00000000 osSys_sensors_read_taskTaskBuffer
C:\Users\luoha\AppData\Local\Temp\ccE6HcR9.s:664    .rodata.sensors_read_task_wait:00000000 $d

UNDEFINED SYMBOLS
xQueueGenericCreateStatic
xTaskCreateStatic
__aeabi_f2d
MPU6050Init
HMC5883LInit
MS5611Init
xTaskGetTickCount
MPU6050ReadAccelRaw
MPU6050ReadGyroRaw
HMC5883LReadMagRaw
printf
vTaskDelayUntil
