ARM GAS  C:\Users\luoha\AppData\Local\Temp\cc4tjHUm.s 			page 1


   1              		.cpu cortex-m4
   2              		.eabi_attribute 27, 1
   3              		.eabi_attribute 28, 1
   4              		.eabi_attribute 20, 1
   5              		.eabi_attribute 21, 1
   6              		.eabi_attribute 23, 3
   7              		.eabi_attribute 24, 1
   8              		.eabi_attribute 25, 1
   9              		.eabi_attribute 26, 1
  10              		.eabi_attribute 30, 1
  11              		.eabi_attribute 34, 1
  12              		.eabi_attribute 18, 4
  13              		.file	"sensors.c"
  14              		.text
  15              	.Ltext0:
  16              		.cfi_sections	.debug_frame
  17              		.section	.rodata.SensorsInit.str1.4,"aMS",%progbits,1
  18              		.align	2
  19              	.LC0:
  20 0000 496E6974 		.ascii	"Init Sensors...\015\000"
  20      2053656E 
  20      736F7273 
  20      2E2E2E0D 
  20      00
  21 0011 000000   		.align	2
  22              	.LC1:
  23 0014 4D505536 		.ascii	"MPU6050Init:  %u\015\012\000"
  23      30353049 
  23      6E69743A 
  23      20202575 
  23      0D0A00
  24 0027 00       		.align	2
  25              	.LC2:
  26 0028 484D4335 		.ascii	"HMC5883LInit: %u\015\012\000"
  26      3838334C 
  26      496E6974 
  26      3A202575 
  26      0D0A00
  27 003b 00       		.align	2
  28              	.LC3:
  29 003c 4D533536 		.ascii	"MS5611Init:   %u\015\012\000"
  29      3131496E 
  29      69743A20 
  29      20202575 
  29      0D0A00
  30 004f 00       		.align	2
  31              	.LC4:
  32 0050 53756363 		.ascii	"Success to Init Sensors!\015\012\015\000"
  32      65737320 
  32      746F2049 
  32      6E697420 
  32      53656E73 
  33              		.align	2
  34              	.LC5:
  35 006c 4661696C 		.ascii	"Fail to Init Sensors!\015\012\015\000"
  35      20746F20 
  35      496E6974 
ARM GAS  C:\Users\luoha\AppData\Local\Temp\cc4tjHUm.s 			page 2


  35      2053656E 
  35      736F7273 
  36              		.section	.text.SensorsInit,"ax",%progbits
  37              		.align	1
  38              		.global	SensorsInit
  39              		.arch armv7e-m
  40              		.syntax unified
  41              		.thumb
  42              		.thumb_func
  43              		.fpu fpv4-sp-d16
  45              	SensorsInit:
  46              	.LFB138:
  47              		.file 1 "Modules/src/sensors.c"
   1:Modules/src/sensors.c **** #include "sensors.h"
   2:Modules/src/sensors.c **** 
   3:Modules/src/sensors.c **** xQueueHandle acc_queue;
   4:Modules/src/sensors.c **** STATIC_MEM_QUEUE_ALLOC(acc_queue, 1, sizeof(float) * 3);
   5:Modules/src/sensors.c **** xQueueHandle gyro_queue;
   6:Modules/src/sensors.c **** STATIC_MEM_QUEUE_ALLOC(gyro_queue, 1, sizeof(float) * 3);
   7:Modules/src/sensors.c **** xQueueHandle mag_queue;
   8:Modules/src/sensors.c **** STATIC_MEM_QUEUE_ALLOC(mag_queue, 1, sizeof(float) * 3);
   9:Modules/src/sensors.c **** xQueueHandle alt_queue;
  10:Modules/src/sensors.c **** STATIC_MEM_QUEUE_ALLOC(alt_queue, 1, sizeof(float));
  11:Modules/src/sensors.c **** 
  12:Modules/src/sensors.c **** 
  13:Modules/src/sensors.c **** bool SensorsInit(void) {
  48              		.loc 1 13 24 view -0
  49              		.cfi_startproc
  50              		@ args = 0, pretend = 0, frame = 0
  51              		@ frame_needed = 0, uses_anonymous_args = 0
  52 0000 70B5     		push	{r4, r5, r6, lr}
  53              	.LCFI0:
  54              		.cfi_def_cfa_offset 16
  55              		.cfi_offset 4, -16
  56              		.cfi_offset 5, -12
  57              		.cfi_offset 6, -8
  58              		.cfi_offset 14, -4
  59 0002 82B0     		sub	sp, sp, #8
  60              	.LCFI1:
  61              		.cfi_def_cfa_offset 24
  14:Modules/src/sensors.c ****     printf("Init Sensors...\r\n");
  62              		.loc 1 14 5 view .LVU1
  63 0004 2648     		ldr	r0, .L5
  64 0006 FFF7FEFF 		bl	puts
  65              	.LVL0:
  15:Modules/src/sensors.c **** 
  16:Modules/src/sensors.c ****     bool IS_MPU6050_OK = MPU6050Init();
  66              		.loc 1 16 5 view .LVU2
  67              		.loc 1 16 26 is_stmt 0 view .LVU3
  68 000a FFF7FEFF 		bl	MPU6050Init
  69              	.LVL1:
  70 000e 0546     		mov	r5, r0
  71              	.LVL2:
  17:Modules/src/sensors.c ****     printf("MPU6050Init:  %u\r\n", IS_MPU6050_OK);
  72              		.loc 1 17 5 is_stmt 1 view .LVU4
  73 0010 0146     		mov	r1, r0
  74 0012 2448     		ldr	r0, .L5+4
ARM GAS  C:\Users\luoha\AppData\Local\Temp\cc4tjHUm.s 			page 3


  75              	.LVL3:
  76              		.loc 1 17 5 is_stmt 0 view .LVU5
  77 0014 FFF7FEFF 		bl	printf
  78              	.LVL4:
  18:Modules/src/sensors.c **** 
  19:Modules/src/sensors.c ****     bool IS_HMC5883_OK = HMC5883LInit();
  79              		.loc 1 19 5 is_stmt 1 view .LVU6
  80              		.loc 1 19 26 is_stmt 0 view .LVU7
  81 0018 FFF7FEFF 		bl	HMC5883LInit
  82              	.LVL5:
  83 001c 0646     		mov	r6, r0
  84              	.LVL6:
  20:Modules/src/sensors.c ****     printf("HMC5883LInit: %u\r\n", IS_HMC5883_OK);
  85              		.loc 1 20 5 is_stmt 1 view .LVU8
  86 001e 0146     		mov	r1, r0
  87 0020 2148     		ldr	r0, .L5+8
  88              	.LVL7:
  89              		.loc 1 20 5 is_stmt 0 view .LVU9
  90 0022 FFF7FEFF 		bl	printf
  91              	.LVL8:
  21:Modules/src/sensors.c **** 
  22:Modules/src/sensors.c ****     bool IS_MS5611_OK = MS5611Init();
  92              		.loc 1 22 5 is_stmt 1 view .LVU10
  93              		.loc 1 22 25 is_stmt 0 view .LVU11
  94 0026 FFF7FEFF 		bl	MS5611Init
  95              	.LVL9:
  96 002a 0446     		mov	r4, r0
  97              	.LVL10:
  23:Modules/src/sensors.c ****     printf("MS5611Init:   %u\r\n", IS_MS5611_OK);
  98              		.loc 1 23 5 is_stmt 1 view .LVU12
  99 002c 0146     		mov	r1, r0
 100 002e 1F48     		ldr	r0, .L5+12
 101              	.LVL11:
 102              		.loc 1 23 5 is_stmt 0 view .LVU13
 103 0030 FFF7FEFF 		bl	printf
 104              	.LVL12:
  24:Modules/src/sensors.c **** 
  25:Modules/src/sensors.c ****     // printf("acc_lpf: b0:%f, b1:%f, b2:%f, a1:%f, a2:%f\r\n", acc_lpf[0].b0, acc_lpf[0].b1, acc_l
  26:Modules/src/sensors.c ****     // printf("gyro_lpf: b0:%f, b1:%f, b2:%f, a1:%f, a2:%f\r\n\r\n", gyro_lpf[0].b0, gyro_lpf[0].b1
  27:Modules/src/sensors.c **** 
  28:Modules/src/sensors.c ****     bool IS_SENSORS_OK = IS_MPU6050_OK & IS_HMC5883_OK & IS_MS5611_OK;
 105              		.loc 1 28 5 is_stmt 1 view .LVU14
 106 0034 05EA0600 		and	r0, r5, r6
 107 0038 0440     		ands	r4, r4, r0
 108              	.LVL13:
  29:Modules/src/sensors.c ****     if (IS_SENSORS_OK) {
 109              		.loc 1 29 5 view .LVU15
 110              		.loc 1 29 8 is_stmt 0 view .LVU16
 111 003a 14F0FF04 		ands	r4, r4, #255
 112              	.LVL14:
 113              		.loc 1 29 8 view .LVU17
 114 003e 2AD0     		beq	.L2
  30:Modules/src/sensors.c ****         printf("Success to Init Sensors!\r\n\r\n");
 115              		.loc 1 30 9 is_stmt 1 view .LVU18
 116 0040 1B48     		ldr	r0, .L5+16
 117 0042 FFF7FEFF 		bl	puts
 118              	.LVL15:
ARM GAS  C:\Users\luoha\AppData\Local\Temp\cc4tjHUm.s 			page 4


 119              	.L3:
  31:Modules/src/sensors.c ****     } else {
  32:Modules/src/sensors.c ****         printf("Fail to Init Sensors!\r\n\r\n"); 
  33:Modules/src/sensors.c ****     }
  34:Modules/src/sensors.c **** 
  35:Modules/src/sensors.c ****     acc_queue = STATIC_MEM_QUEUE_CREATE(acc_queue);
 120              		.loc 1 35 5 view .LVU19
 121              		.loc 1 35 17 is_stmt 0 view .LVU20
 122 0046 0025     		movs	r5, #0
 123 0048 0095     		str	r5, [sp]
 124 004a 1A4B     		ldr	r3, .L5+20
 125 004c 1A4A     		ldr	r2, .L5+24
 126 004e 0C21     		movs	r1, #12
 127 0050 0120     		movs	r0, #1
 128 0052 FFF7FEFF 		bl	xQueueGenericCreateStatic
 129              	.LVL16:
 130              		.loc 1 35 15 view .LVU21
 131 0056 194B     		ldr	r3, .L5+28
 132 0058 1860     		str	r0, [r3]
  36:Modules/src/sensors.c ****     gyro_queue = STATIC_MEM_QUEUE_CREATE(gyro_queue);
 133              		.loc 1 36 5 is_stmt 1 view .LVU22
 134              		.loc 1 36 18 is_stmt 0 view .LVU23
 135 005a 0095     		str	r5, [sp]
 136 005c 184B     		ldr	r3, .L5+32
 137 005e 194A     		ldr	r2, .L5+36
 138 0060 0C21     		movs	r1, #12
 139 0062 0120     		movs	r0, #1
 140 0064 FFF7FEFF 		bl	xQueueGenericCreateStatic
 141              	.LVL17:
 142              		.loc 1 36 16 view .LVU24
 143 0068 174B     		ldr	r3, .L5+40
 144 006a 1860     		str	r0, [r3]
  37:Modules/src/sensors.c ****     mag_queue = STATIC_MEM_QUEUE_CREATE(mag_queue);
 145              		.loc 1 37 5 is_stmt 1 view .LVU25
 146              		.loc 1 37 17 is_stmt 0 view .LVU26
 147 006c 0095     		str	r5, [sp]
 148 006e 174B     		ldr	r3, .L5+44
 149 0070 174A     		ldr	r2, .L5+48
 150 0072 0C21     		movs	r1, #12
 151 0074 0120     		movs	r0, #1
 152 0076 FFF7FEFF 		bl	xQueueGenericCreateStatic
 153              	.LVL18:
 154              		.loc 1 37 15 view .LVU27
 155 007a 164B     		ldr	r3, .L5+52
 156 007c 1860     		str	r0, [r3]
  38:Modules/src/sensors.c ****     alt_queue = STATIC_MEM_QUEUE_CREATE(alt_queue);
 157              		.loc 1 38 5 is_stmt 1 view .LVU28
 158              		.loc 1 38 17 is_stmt 0 view .LVU29
 159 007e 0095     		str	r5, [sp]
 160 0080 154B     		ldr	r3, .L5+56
 161 0082 164A     		ldr	r2, .L5+60
 162 0084 0421     		movs	r1, #4
 163 0086 0120     		movs	r0, #1
 164 0088 FFF7FEFF 		bl	xQueueGenericCreateStatic
 165              	.LVL19:
 166              		.loc 1 38 15 view .LVU30
 167 008c 144B     		ldr	r3, .L5+64
ARM GAS  C:\Users\luoha\AppData\Local\Temp\cc4tjHUm.s 			page 5


 168 008e 1860     		str	r0, [r3]
  39:Modules/src/sensors.c **** 
  40:Modules/src/sensors.c ****     return IS_SENSORS_OK;
 169              		.loc 1 40 5 is_stmt 1 view .LVU31
  41:Modules/src/sensors.c **** }
 170              		.loc 1 41 1 is_stmt 0 view .LVU32
 171 0090 2046     		mov	r0, r4
 172 0092 02B0     		add	sp, sp, #8
 173              	.LCFI2:
 174              		.cfi_remember_state
 175              		.cfi_def_cfa_offset 16
 176              		@ sp needed
 177 0094 70BD     		pop	{r4, r5, r6, pc}
 178              	.L2:
 179              	.LCFI3:
 180              		.cfi_restore_state
  32:Modules/src/sensors.c ****     }
 181              		.loc 1 32 9 is_stmt 1 view .LVU33
 182 0096 1348     		ldr	r0, .L5+68
 183 0098 FFF7FEFF 		bl	puts
 184              	.LVL20:
 185 009c D3E7     		b	.L3
 186              	.L6:
 187 009e 00BF     		.align	2
 188              	.L5:
 189 00a0 00000000 		.word	.LC0
 190 00a4 14000000 		.word	.LC1
 191 00a8 28000000 		.word	.LC2
 192 00ac 3C000000 		.word	.LC3
 193 00b0 50000000 		.word	.LC4
 194 00b4 00000000 		.word	.LANCHOR0
 195 00b8 00000000 		.word	.LANCHOR1
 196 00bc 00000000 		.word	acc_queue
 197 00c0 00000000 		.word	.LANCHOR2
 198 00c4 00000000 		.word	.LANCHOR3
 199 00c8 00000000 		.word	gyro_queue
 200 00cc 00000000 		.word	.LANCHOR4
 201 00d0 00000000 		.word	.LANCHOR5
 202 00d4 00000000 		.word	mag_queue
 203 00d8 00000000 		.word	.LANCHOR6
 204 00dc 00000000 		.word	.LANCHOR7
 205 00e0 00000000 		.word	alt_queue
 206 00e4 6C000000 		.word	.LC5
 207              		.cfi_endproc
 208              	.LFE138:
 210              		.section	.text.SensorsReadIMU,"ax",%progbits
 211              		.align	1
 212              		.global	SensorsReadIMU
 213              		.syntax unified
 214              		.thumb
 215              		.thumb_func
 216              		.fpu fpv4-sp-d16
 218              	SensorsReadIMU:
 219              	.LVL21:
 220              	.LFB139:
  42:Modules/src/sensors.c **** 
  43:Modules/src/sensors.c **** void SensorsReadIMU(uint64_t *timestamp, float *acc, float *gyro) {
ARM GAS  C:\Users\luoha\AppData\Local\Temp\cc4tjHUm.s 			page 6


 221              		.loc 1 43 67 view -0
 222              		.cfi_startproc
 223              		@ args = 0, pretend = 0, frame = 0
 224              		@ frame_needed = 0, uses_anonymous_args = 0
 225              		.loc 1 43 67 is_stmt 0 view .LVU35
 226 0000 38B5     		push	{r3, r4, r5, lr}
 227              	.LCFI4:
 228              		.cfi_def_cfa_offset 16
 229              		.cfi_offset 3, -16
 230              		.cfi_offset 4, -12
 231              		.cfi_offset 5, -8
 232              		.cfi_offset 14, -4
 233 0002 0446     		mov	r4, r0
 234 0004 1546     		mov	r5, r2
  44:Modules/src/sensors.c ****     xQueuePeek(acc_queue, acc, portMAX_DELAY);
 235              		.loc 1 44 5 is_stmt 1 view .LVU36
 236 0006 4FF0FF32 		mov	r2, #-1
 237              	.LVL22:
 238              		.loc 1 44 5 is_stmt 0 view .LVU37
 239 000a 084B     		ldr	r3, .L9
 240 000c 1868     		ldr	r0, [r3]
 241              	.LVL23:
 242              		.loc 1 44 5 view .LVU38
 243 000e FFF7FEFF 		bl	xQueuePeek
 244              	.LVL24:
  45:Modules/src/sensors.c ****     xQueuePeek(gyro_queue, gyro, portMAX_DELAY);
 245              		.loc 1 45 5 is_stmt 1 view .LVU39
 246 0012 4FF0FF32 		mov	r2, #-1
 247 0016 2946     		mov	r1, r5
 248 0018 054B     		ldr	r3, .L9+4
 249 001a 1868     		ldr	r0, [r3]
 250 001c FFF7FEFF 		bl	xQueuePeek
 251              	.LVL25:
  46:Modules/src/sensors.c ****     *timestamp = GetSysTimeUs();
 252              		.loc 1 46 5 view .LVU40
 253              		.loc 1 46 18 is_stmt 0 view .LVU41
 254 0020 FFF7FEFF 		bl	GetSysTimeUs
 255              	.LVL26:
 256              		.loc 1 46 16 view .LVU42
 257 0024 C4E90001 		strd	r0, [r4]
  47:Modules/src/sensors.c **** }...
 258              		.loc 1 47 1 view .LVU43
 259 0028 38BD     		pop	{r3, r4, r5, pc}
 260              	.LVL27:
 261              	.L10:
 262              		.loc 1 47 1 view .LVU44
 263 002a 00BF     		.align	2
 264              	.L9:
 265 002c 00000000 		.word	acc_queue
 266 0030 00000000 		.word	gyro_queue
 267              		.cfi_endproc
 268              	.LFE139:
 270              		.comm	alt_queue,4,4
 271              		.comm	mag_queue,4,4
 272              		.comm	gyro_queue,4,4
 273              		.comm	acc_queue,4,4
 274              		.section	.bss.osSys_acc_queueMgm,"aw",%nobits
ARM GAS  C:\Users\luoha\AppData\Local\Temp\cc4tjHUm.s 			page 7


 275              		.align	2
 276              		.set	.LANCHOR0,. + 0
 279              	osSys_acc_queueMgm:
 280 0000 00000000 		.space	72
 280      00000000 
 280      00000000 
 280      00000000 
 280      00000000 
 281              		.section	.bss.osSys_acc_queueStorage,"aw",%nobits
 282              		.align	2
 283              		.set	.LANCHOR1,. + 0
 286              	osSys_acc_queueStorage:
 287 0000 00000000 		.space	12
 287      00000000 
 287      00000000 
 288              		.section	.bss.osSys_alt_queueMgm,"aw",%nobits
 289              		.align	2
 290              		.set	.LANCHOR6,. + 0
 293              	osSys_alt_queueMgm:
 294 0000 00000000 		.space	72
 294      00000000 
 294      00000000 
 294      00000000 
 294      00000000 
 295              		.section	.bss.osSys_alt_queueStorage,"aw",%nobits
 296              		.align	2
 297              		.set	.LANCHOR7,. + 0
 300              	osSys_alt_queueStorage:
 301 0000 00000000 		.space	4
 302              		.section	.bss.osSys_gyro_queueMgm,"aw",%nobits
 303              		.align	2
 304              		.set	.LANCHOR2,. + 0
 307              	osSys_gyro_queueMgm:
 308 0000 00000000 		.space	72
 308      00000000 
 308      00000000 
 308      00000000 
 308      00000000 
 309              		.section	.bss.osSys_gyro_queueStorage,"aw",%nobits
 310              		.align	2
 311              		.set	.LANCHOR3,. + 0
 314              	osSys_gyro_queueStorage:
 315 0000 00000000 		.space	12
 315      00000000 
 315      00000000 
 316              		.section	.bss.osSys_mag_queueMgm,"aw",%nobits
 317              		.align	2
 318              		.set	.LANCHOR4,. + 0
 321              	osSys_mag_queueMgm:
 322 0000 00000000 		.space	72
 322      00000000 
 322      00000000 
 322      00000000 
 322      00000000 
 323              		.section	.bss.osSys_mag_queueStorage,"aw",%nobits
 324              		.align	2
 325              		.set	.LANCHOR5,. + 0
ARM GAS  C:\Users\luoha\AppData\Local\Temp\cc4tjHUm.s 			page 8


 328              	osSys_mag_queueStorage:
 329 0000 00000000 		.space	12
 329      00000000 
 329      00000000 
 330              		.text
 331              	.Letext0:
 332              		.file 2 "c:\\gnu_tools_arm_embedded\\arm-none-eabi\\include\\machine\\_default_types.h"
 333              		.file 3 "c:\\gnu_tools_arm_embedded\\arm-none-eabi\\include\\sys\\_stdint.h"
 334              		.file 4 "Middlewares/Third_Party/FreeRTOS/Source/portable/GCC/ARM_CM4F/portmacro.h"
 335              		.file 5 "Middlewares/Third_Party/FreeRTOS/Source/include/FreeRTOS.h"
 336              		.file 6 "Inc/FreeRTOSConfig.h"
 337              		.file 7 "Drivers/CMSIS/Include/core_cm4.h"
 338              		.file 8 "Drivers/CMSIS/Device/ST/STM32F4xx/Include/system_stm32f4xx.h"
 339              		.file 9 "Drivers/CMSIS/Device/ST/STM32F4xx/Include/stm32f407xx.h"
 340              		.file 10 "Drivers/STM32F4xx_HAL_Driver/Inc/stm32f4xx_hal_def.h"
 341              		.file 11 "Drivers/STM32F4xx_HAL_Driver/Inc/stm32f4xx_hal_dma.h"
 342              		.file 12 "Drivers/STM32F4xx_HAL_Driver/Inc/stm32f4xx_hal_i2c.h"
 343              		.file 13 "Drivers/STM32F4xx_HAL_Driver/Inc/stm32f4xx_hal_uart.h"
 344              		.file 14 "Drivers/STM32F4xx_HAL_Driver/Inc/stm32f4xx_hal.h"
 345              		.file 15 "c:\\gnu_tools_arm_embedded\\arm-none-eabi\\include\\sys\\lock.h"
 346              		.file 16 "c:\\gnu_tools_arm_embedded\\arm-none-eabi\\include\\sys\\_types.h"
 347              		.file 17 "c:\\gnu_tools_arm_embedded\\lib\\gcc\\arm-none-eabi\\9.2.1\\include\\stddef.h"
 348              		.file 18 "c:\\gnu_tools_arm_embedded\\arm-none-eabi\\include\\sys\\reent.h"
 349              		.file 19 "Modules/include/utils/utils.h"
 350              		.file 20 "Inc/i2c.h"
 351              		.file 21 "Middlewares/Third_Party/FreeRTOS/Source/include/queue.h"
 352              		.file 22 "Modules/include/mpu6050.h"
 353              		.file 23 "c:\\gnu_tools_arm_embedded\\arm-none-eabi\\include\\stdio.h"
 354              		.file 24 "Modules/include/hmc5883l.h"
 355              		.file 25 "Modules/include/ms5611.h"
 356              		.file 26 "<built-in>"
ARM GAS  C:\Users\luoha\AppData\Local\Temp\cc4tjHUm.s 			page 9


DEFINED SYMBOLS
                            *ABS*:00000000 sensors.c
C:\Users\luoha\AppData\Local\Temp\cc4tjHUm.s:18     .rodata.SensorsInit.str1.4:00000000 $d
C:\Users\luoha\AppData\Local\Temp\cc4tjHUm.s:37     .text.SensorsInit:00000000 $t
C:\Users\luoha\AppData\Local\Temp\cc4tjHUm.s:45     .text.SensorsInit:00000000 SensorsInit
C:\Users\luoha\AppData\Local\Temp\cc4tjHUm.s:189    .text.SensorsInit:000000a0 $d
                            *COM*:00000004 acc_queue
                            *COM*:00000004 gyro_queue
                            *COM*:00000004 mag_queue
                            *COM*:00000004 alt_queue
C:\Users\luoha\AppData\Local\Temp\cc4tjHUm.s:211    .text.SensorsReadIMU:00000000 $t
C:\Users\luoha\AppData\Local\Temp\cc4tjHUm.s:218    .text.SensorsReadIMU:00000000 SensorsReadIMU
C:\Users\luoha\AppData\Local\Temp\cc4tjHUm.s:265    .text.SensorsReadIMU:0000002c $d
C:\Users\luoha\AppData\Local\Temp\cc4tjHUm.s:275    .bss.osSys_acc_queueMgm:00000000 $d
C:\Users\luoha\AppData\Local\Temp\cc4tjHUm.s:279    .bss.osSys_acc_queueMgm:00000000 osSys_acc_queueMgm
C:\Users\luoha\AppData\Local\Temp\cc4tjHUm.s:282    .bss.osSys_acc_queueStorage:00000000 $d
C:\Users\luoha\AppData\Local\Temp\cc4tjHUm.s:286    .bss.osSys_acc_queueStorage:00000000 osSys_acc_queueStorage
C:\Users\luoha\AppData\Local\Temp\cc4tjHUm.s:289    .bss.osSys_alt_queueMgm:00000000 $d
C:\Users\luoha\AppData\Local\Temp\cc4tjHUm.s:293    .bss.osSys_alt_queueMgm:00000000 osSys_alt_queueMgm
C:\Users\luoha\AppData\Local\Temp\cc4tjHUm.s:296    .bss.osSys_alt_queueStorage:00000000 $d
C:\Users\luoha\AppData\Local\Temp\cc4tjHUm.s:300    .bss.osSys_alt_queueStorage:00000000 osSys_alt_queueStorage
C:\Users\luoha\AppData\Local\Temp\cc4tjHUm.s:303    .bss.osSys_gyro_queueMgm:00000000 $d
C:\Users\luoha\AppData\Local\Temp\cc4tjHUm.s:307    .bss.osSys_gyro_queueMgm:00000000 osSys_gyro_queueMgm
C:\Users\luoha\AppData\Local\Temp\cc4tjHUm.s:310    .bss.osSys_gyro_queueStorage:00000000 $d
C:\Users\luoha\AppData\Local\Temp\cc4tjHUm.s:314    .bss.osSys_gyro_queueStorage:00000000 osSys_gyro_queueStorage
C:\Users\luoha\AppData\Local\Temp\cc4tjHUm.s:317    .bss.osSys_mag_queueMgm:00000000 $d
C:\Users\luoha\AppData\Local\Temp\cc4tjHUm.s:321    .bss.osSys_mag_queueMgm:00000000 osSys_mag_queueMgm
C:\Users\luoha\AppData\Local\Temp\cc4tjHUm.s:324    .bss.osSys_mag_queueStorage:00000000 $d
C:\Users\luoha\AppData\Local\Temp\cc4tjHUm.s:328    .bss.osSys_mag_queueStorage:00000000 osSys_mag_queueStorage

UNDEFINED SYMBOLS
puts
MPU6050Init
printf
HMC5883LInit
MS5611Init
xQueueGenericCreateStatic
xQueuePeek
GetSysTimeUs
