ARM GAS  C:\Users\luoha\AppData\Local\Temp\ccoED4mD.s 			page 1


   1              		.cpu cortex-m4
   2              		.eabi_attribute 27, 1
   3              		.eabi_attribute 28, 1
   4              		.eabi_attribute 20, 1
   5              		.eabi_attribute 21, 1
   6              		.eabi_attribute 23, 3
   7              		.eabi_attribute 24, 1
   8              		.eabi_attribute 25, 1
   9              		.eabi_attribute 26, 1
  10              		.eabi_attribute 30, 1
  11              		.eabi_attribute 34, 1
  12              		.eabi_attribute 18, 4
  13              		.file	"state_estimator_task.c"
  14              		.text
  15              	.Ltext0:
  16              		.cfi_sections	.debug_frame
  17              		.section	.text.StateEstimatorTask,"ax",%progbits
  18              		.align	1
  19              		.global	StateEstimatorTask
  20              		.arch armv7e-m
  21              		.syntax unified
  22              		.thumb
  23              		.thumb_func
  24              		.fpu fpv4-sp-d16
  26              	StateEstimatorTask:
  27              	.LVL0:
  28              	.LFB173:
  29              		.file 1 "Modules/src/state_estimator_task.c"
   1:Modules/src/state_estimator_task.c **** #include "state_estimator_task.h"
   2:Modules/src/state_estimator_task.c **** 
   3:Modules/src/state_estimator_task.c **** extern xQueueHandle acc_queue;
   4:Modules/src/state_estimator_task.c **** extern xQueueHandle gyro_queue;
   5:Modules/src/state_estimator_task.c **** extern xQueueHandle mag_queue;
   6:Modules/src/state_estimator_task.c **** extern xQueueHandle alt_queue;
   7:Modules/src/state_estimator_task.c **** 
   8:Modules/src/state_estimator_task.c **** static TaskHandle_t state_estimator_task_handle;
   9:Modules/src/state_estimator_task.c **** STATIC_MEM_TASK_ALLOC(state_estimator_task, STATE_ESTIMATOR_TASK_STACKSIZE);
  10:Modules/src/state_estimator_task.c **** 
  11:Modules/src/state_estimator_task.c **** void StateEstimatorLaunch(void) {
  12:Modules/src/state_estimator_task.c ****     state_estimator_task_handle = STATIC_MEM_TASK_CREATE(state_estimator_task, StateEstimatorTask, 
  13:Modules/src/state_estimator_task.c **** }
  14:Modules/src/state_estimator_task.c **** 
  15:Modules/src/state_estimator_task.c **** void StateEstimatorTask(void *param) {
  30              		.loc 1 15 38 view -0
  31              		.cfi_startproc
  32              		@ args = 0, pretend = 0, frame = 40
  33              		@ frame_needed = 0, uses_anonymous_args = 0
  34              		.loc 1 15 38 is_stmt 0 view .LVU1
  35 0000 00B5     		push	{lr}
  36              	.LCFI0:
  37              		.cfi_def_cfa_offset 4
  38              		.cfi_offset 14, -4
  39 0002 8BB0     		sub	sp, sp, #44
  40              	.LCFI1:
  41              		.cfi_def_cfa_offset 48
  16:Modules/src/state_estimator_task.c ****     uint64_t timestamp;
  42              		.loc 1 16 5 is_stmt 1 view .LVU2
ARM GAS  C:\Users\luoha\AppData\Local\Temp\ccoED4mD.s 			page 2


  17:Modules/src/state_estimator_task.c ****     float acc[3], gyro[3], mag[3], alt;
  43              		.loc 1 17 5 view .LVU3
  18:Modules/src/state_estimator_task.c **** 
  19:Modules/src/state_estimator_task.c ****     const TickType_t wait_time = pdMS_TO_TICKS(1);
  44              		.loc 1 19 5 view .LVU4
  45              	.LVL1:
  20:Modules/src/state_estimator_task.c ****     portTickType last_wait_time = xTaskGetTickCount();
  46              		.loc 1 20 5 view .LVU5
  47              		.loc 1 20 35 is_stmt 0 view .LVU6
  48 0004 FFF7FEFF 		bl	xTaskGetTickCount
  49              	.LVL2:
  50              		.loc 1 20 18 view .LVU7
  51 0008 0190     		str	r0, [sp, #4]
  52              	.L2:
  21:Modules/src/state_estimator_task.c ****     for (;;) {
  53              		.loc 1 21 5 is_stmt 1 discriminator 1 view .LVU8
  22:Modules/src/state_estimator_task.c ****         SensorsReadIMU(&timestamp, acc, gyro);
  54              		.loc 1 22 9 discriminator 1 view .LVU9
  55 000a 02AA     		add	r2, sp, #8
  56 000c 05A9     		add	r1, sp, #20
  57 000e 08A8     		add	r0, sp, #32
  58 0010 FFF7FEFF 		bl	SensorsReadIMU
  59              	.LVL3:
  23:Modules/src/state_estimator_task.c ****         
  24:Modules/src/state_estimator_task.c ****         EskfPredict(&timestamp, acc, gyro);
  60              		.loc 1 24 9 discriminator 1 view .LVU10
  61 0014 02AA     		add	r2, sp, #8
  62 0016 05A9     		add	r1, sp, #20
  63 0018 08A8     		add	r0, sp, #32
  64 001a FFF7FEFF 		bl	EskfPredict
  65              	.LVL4:
  25:Modules/src/state_estimator_task.c **** 
  26:Modules/src/state_estimator_task.c ****         // xQueuePeek(mag_queue, mag, portMAX_DELAY);
  27:Modules/src/state_estimator_task.c ****         // xQueuePeek(alt_queue, &alt, portMAX_DELAY);
  28:Modules/src/state_estimator_task.c **** 
  29:Modules/src/state_estimator_task.c ****         // printf("%lu,%f,%f,%f,%f,%f,%f,%f,%f,%f,%f\n", (unsigned long)pdTICKS_TO_MS(xTaskGetTickC
  30:Modules/src/state_estimator_task.c ****         
  31:Modules/src/state_estimator_task.c ****     //     // printf("Accel: %d, %d, %d\r\n", acc_raw[0], acc_raw[1], acc_raw[2]);
  32:Modules/src/state_estimator_task.c ****     //     // printf("Gyro: %d, %d, %d\r\n", gyro_raw[0], gyro_raw[1], gyro_raw[2]);
  33:Modules/src/state_estimator_task.c ****     //     // printf("Mag: %d, %d, %d\r\n\r\n", mag_raw[0], mag_raw[1], mag_raw[2]);
  34:Modules/src/state_estimator_task.c ****         // printf("%llu, %f, %f, %f, %f, %f, %f\r\n", timestamp, acc[0], acc[1], acc[2], gyro[0], g
  35:Modules/src/state_estimator_task.c ****         // printf("%llu\r\n", timestamp); 
  36:Modules/src/state_estimator_task.c **** 
  37:Modules/src/state_estimator_task.c ****         vTaskDelayUntil(&last_wait_time, wait_time);
  66              		.loc 1 37 9 discriminator 1 view .LVU11
  67 001e 0121     		movs	r1, #1
  68 0020 01A8     		add	r0, sp, #4
  69 0022 FFF7FEFF 		bl	vTaskDelayUntil
  70              	.LVL5:
  21:Modules/src/state_estimator_task.c ****         SensorsReadIMU(&timestamp, acc, gyro);
  71              		.loc 1 21 11 discriminator 1 view .LVU12
  72 0026 F0E7     		b	.L2
  73              		.cfi_endproc
  74              	.LFE173:
  76              		.section	.rodata.StateEstimatorLaunch.str1.4,"aMS",%progbits,1
  77              		.align	2
  78              	.LC0:
ARM GAS  C:\Users\luoha\AppData\Local\Temp\ccoED4mD.s 			page 3


  79 0000 53746174 		.ascii	"StateEstimatorTask\000"
  79      65457374 
  79      696D6174 
  79      6F725461 
  79      736B00
  80              		.section	.text.StateEstimatorLaunch,"ax",%progbits
  81              		.align	1
  82              		.global	StateEstimatorLaunch
  83              		.syntax unified
  84              		.thumb
  85              		.thumb_func
  86              		.fpu fpv4-sp-d16
  88              	StateEstimatorLaunch:
  89              	.LFB172:
  11:Modules/src/state_estimator_task.c ****     state_estimator_task_handle = STATIC_MEM_TASK_CREATE(state_estimator_task, StateEstimatorTask, 
  90              		.loc 1 11 33 view -0
  91              		.cfi_startproc
  92              		@ args = 0, pretend = 0, frame = 0
  93              		@ frame_needed = 0, uses_anonymous_args = 0
  94 0000 00B5     		push	{lr}
  95              	.LCFI2:
  96              		.cfi_def_cfa_offset 4
  97              		.cfi_offset 14, -4
  98 0002 85B0     		sub	sp, sp, #20
  99              	.LCFI3:
 100              		.cfi_def_cfa_offset 24
  12:Modules/src/state_estimator_task.c **** }
 101              		.loc 1 12 5 view .LVU14
  12:Modules/src/state_estimator_task.c **** }
 102              		.loc 1 12 35 is_stmt 0 view .LVU15
 103 0004 074B     		ldr	r3, .L6
 104 0006 0293     		str	r3, [sp, #8]
 105 0008 074B     		ldr	r3, .L6+4
 106 000a 0193     		str	r3, [sp, #4]
 107 000c 0423     		movs	r3, #4
 108 000e 0093     		str	r3, [sp]
 109 0010 0023     		movs	r3, #0
 110 0012 4FF48072 		mov	r2, #256
 111 0016 0549     		ldr	r1, .L6+8
 112 0018 0548     		ldr	r0, .L6+12
 113 001a FFF7FEFF 		bl	xTaskCreateStatic
 114              	.LVL6:
  13:Modules/src/state_estimator_task.c **** 
 115              		.loc 1 13 1 view .LVU16
 116 001e 05B0     		add	sp, sp, #20
 117              	.LCFI4:
 118              		.cfi_def_cfa_offset 4
 119              		@ sp needed
 120 0020 5DF804FB 		ldr	pc, [sp], #4
 121              	.L7:
 122              		.align	2
 123              	.L6:
 124 0024 00000000 		.word	.LANCHOR0
 125 0028 00000000 		.word	.LANCHOR1
 126 002c 00000000 		.word	.LC0
 127 0030 00000000 		.word	StateEstimatorTask
 128              		.cfi_endproc
ARM GAS  C:\Users\luoha\AppData\Local\Temp\ccoED4mD.s 			page 4


 129              	.LFE172:
 131              		.section	.bss.osSys_state_estimator_taskStackBuffer,"aw",%nobits
 132              		.align	2
 133              		.set	.LANCHOR1,. + 0
 136              	osSys_state_estimator_taskStackBuffer:
 137 0000 00000000 		.space	1024
 137      00000000 
 137      00000000 
 137      00000000 
 137      00000000 
 138              		.section	.bss.osSys_state_estimator_taskTaskBuffer,"aw",%nobits
 139              		.align	2
 140              		.set	.LANCHOR0,. + 0
 143              	osSys_state_estimator_taskTaskBuffer:
 144 0000 00000000 		.space	84
 144      00000000 
 144      00000000 
 144      00000000 
 144      00000000 
 145              		.text
 146              	.Letext0:
 147              		.file 2 "c:\\gnu_tools_arm_embedded\\arm-none-eabi\\include\\machine\\_default_types.h"
 148              		.file 3 "c:\\gnu_tools_arm_embedded\\arm-none-eabi\\include\\sys\\_stdint.h"
 149              		.file 4 "Middlewares/Third_Party/FreeRTOS/Source/portable/GCC/ARM_CM4F/portmacro.h"
 150              		.file 5 "Middlewares/Third_Party/FreeRTOS/Source/include/FreeRTOS.h"
 151              		.file 6 "Middlewares/Third_Party/FreeRTOS/Source/include/task.h"
 152              		.file 7 "Middlewares/Third_Party/FreeRTOS/Source/include/queue.h"
 153              		.file 8 "Inc/FreeRTOSConfig.h"
 154              		.file 9 "Drivers/CMSIS/Include/core_cm4.h"
 155              		.file 10 "Drivers/CMSIS/Device/ST/STM32F4xx/Include/system_stm32f4xx.h"
 156              		.file 11 "Drivers/CMSIS/Device/ST/STM32F4xx/Include/stm32f407xx.h"
 157              		.file 12 "Drivers/STM32F4xx_HAL_Driver/Inc/stm32f4xx_hal_def.h"
 158              		.file 13 "Drivers/STM32F4xx_HAL_Driver/Inc/stm32f4xx_hal_dma.h"
 159              		.file 14 "Drivers/STM32F4xx_HAL_Driver/Inc/stm32f4xx_hal_i2c.h"
 160              		.file 15 "Drivers/STM32F4xx_HAL_Driver/Inc/stm32f4xx_hal_uart.h"
 161              		.file 16 "Drivers/STM32F4xx_HAL_Driver/Inc/stm32f4xx_hal.h"
 162              		.file 17 "c:\\gnu_tools_arm_embedded\\arm-none-eabi\\include\\sys\\lock.h"
 163              		.file 18 "c:\\gnu_tools_arm_embedded\\arm-none-eabi\\include\\sys\\_types.h"
 164              		.file 19 "c:\\gnu_tools_arm_embedded\\lib\\gcc\\arm-none-eabi\\9.2.1\\include\\stddef.h"
 165              		.file 20 "c:\\gnu_tools_arm_embedded\\arm-none-eabi\\include\\sys\\reent.h"
 166              		.file 21 "Modules/include/utils/utils.h"
 167              		.file 22 "Inc/i2c.h"
 168              		.file 23 "c:\\gnu_tools_arm_embedded\\arm-none-eabi\\include\\math.h"
 169              		.file 24 "Modules/include/sensors.h"
 170              		.file 25 "Modules/include/eskf.h"
ARM GAS  C:\Users\luoha\AppData\Local\Temp\ccoED4mD.s 			page 5


DEFINED SYMBOLS
                            *ABS*:00000000 state_estimator_task.c
C:\Users\luoha\AppData\Local\Temp\ccoED4mD.s:18     .text.StateEstimatorTask:00000000 $t
C:\Users\luoha\AppData\Local\Temp\ccoED4mD.s:26     .text.StateEstimatorTask:00000000 StateEstimatorTask
C:\Users\luoha\AppData\Local\Temp\ccoED4mD.s:77     .rodata.StateEstimatorLaunch.str1.4:00000000 $d
C:\Users\luoha\AppData\Local\Temp\ccoED4mD.s:81     .text.StateEstimatorLaunch:00000000 $t
C:\Users\luoha\AppData\Local\Temp\ccoED4mD.s:88     .text.StateEstimatorLaunch:00000000 StateEstimatorLaunch
C:\Users\luoha\AppData\Local\Temp\ccoED4mD.s:124    .text.StateEstimatorLaunch:00000024 $d
C:\Users\luoha\AppData\Local\Temp\ccoED4mD.s:132    .bss.osSys_state_estimator_taskStackBuffer:00000000 $d
C:\Users\luoha\AppData\Local\Temp\ccoED4mD.s:136    .bss.osSys_state_estimator_taskStackBuffer:00000000 osSys_state_estimator_taskStackBuffer
C:\Users\luoha\AppData\Local\Temp\ccoED4mD.s:139    .bss.osSys_state_estimator_taskTaskBuffer:00000000 $d
C:\Users\luoha\AppData\Local\Temp\ccoED4mD.s:143    .bss.osSys_state_estimator_taskTaskBuffer:00000000 osSys_state_estimator_taskTaskBuffer

UNDEFINED SYMBOLS
xTaskGetTickCount
SensorsReadIMU
EskfPredict
vTaskDelayUntil
xTaskCreateStatic
