ARM GAS  C:\Users\luoha\AppData\Local\Temp\cchiG1lS.s 			page 1


   1              		.cpu cortex-m4
   2              		.eabi_attribute 27, 1
   3              		.eabi_attribute 28, 1
   4              		.eabi_attribute 20, 1
   5              		.eabi_attribute 21, 1
   6              		.eabi_attribute 23, 3
   7              		.eabi_attribute 24, 1
   8              		.eabi_attribute 25, 1
   9              		.eabi_attribute 26, 1
  10              		.eabi_attribute 30, 1
  11              		.eabi_attribute 34, 1
  12              		.eabi_attribute 18, 4
  13              		.file	"stm32f4xx_hal_timebase_tim.c"
  14              		.text
  15              	.Ltext0:
  16              		.cfi_sections	.debug_frame
  17              		.section	.text.HAL_InitTick,"ax",%progbits
  18              		.align	1
  19              		.global	HAL_InitTick
  20              		.arch armv7e-m
  21              		.syntax unified
  22              		.thumb
  23              		.thumb_func
  24              		.fpu fpv4-sp-d16
  26              	HAL_InitTick:
  27              	.LVL0:
  28              	.LFB130:
  29              		.file 1 "Src/stm32f4xx_hal_timebase_tim.c"
   1:Src/stm32f4xx_hal_timebase_tim.c **** /* USER CODE BEGIN Header */
   2:Src/stm32f4xx_hal_timebase_tim.c **** /**
   3:Src/stm32f4xx_hal_timebase_tim.c ****   ******************************************************************************
   4:Src/stm32f4xx_hal_timebase_tim.c ****   * @file    stm32f4xx_hal_timebase_TIM.c 
   5:Src/stm32f4xx_hal_timebase_tim.c ****   * @brief   HAL time base based on the hardware TIM.
   6:Src/stm32f4xx_hal_timebase_tim.c ****   ******************************************************************************
   7:Src/stm32f4xx_hal_timebase_tim.c ****   * @attention
   8:Src/stm32f4xx_hal_timebase_tim.c ****   *
   9:Src/stm32f4xx_hal_timebase_tim.c ****   * <h2><center>&copy; Copyright (c) 2020 STMicroelectronics.
  10:Src/stm32f4xx_hal_timebase_tim.c ****   * All rights reserved.</center></h2>
  11:Src/stm32f4xx_hal_timebase_tim.c ****   *
  12:Src/stm32f4xx_hal_timebase_tim.c ****   * This software component is licensed by ST under Ultimate Liberty license
  13:Src/stm32f4xx_hal_timebase_tim.c ****   * SLA0044, the "License"; You may not use this file except in compliance with
  14:Src/stm32f4xx_hal_timebase_tim.c ****   * the License. You may obtain a copy of the License at:
  15:Src/stm32f4xx_hal_timebase_tim.c ****   *                             www.st.com/SLA0044
  16:Src/stm32f4xx_hal_timebase_tim.c ****   *
  17:Src/stm32f4xx_hal_timebase_tim.c ****   ******************************************************************************
  18:Src/stm32f4xx_hal_timebase_tim.c ****   */
  19:Src/stm32f4xx_hal_timebase_tim.c **** /* USER CODE END Header */
  20:Src/stm32f4xx_hal_timebase_tim.c **** 
  21:Src/stm32f4xx_hal_timebase_tim.c **** /* Includes ------------------------------------------------------------------*/
  22:Src/stm32f4xx_hal_timebase_tim.c **** #include "stm32f4xx_hal.h"
  23:Src/stm32f4xx_hal_timebase_tim.c **** #include "stm32f4xx_hal_tim.h"
  24:Src/stm32f4xx_hal_timebase_tim.c **** 
  25:Src/stm32f4xx_hal_timebase_tim.c **** /* Private typedef -----------------------------------------------------------*/
  26:Src/stm32f4xx_hal_timebase_tim.c **** /* Private define ------------------------------------------------------------*/
  27:Src/stm32f4xx_hal_timebase_tim.c **** /* Private macro -------------------------------------------------------------*/
  28:Src/stm32f4xx_hal_timebase_tim.c **** /* Private variables ---------------------------------------------------------*/
  29:Src/stm32f4xx_hal_timebase_tim.c **** TIM_HandleTypeDef        htim7;
ARM GAS  C:\Users\luoha\AppData\Local\Temp\cchiG1lS.s 			page 2


  30:Src/stm32f4xx_hal_timebase_tim.c **** /* Private function prototypes -----------------------------------------------*/
  31:Src/stm32f4xx_hal_timebase_tim.c **** /* Private functions ---------------------------------------------------------*/
  32:Src/stm32f4xx_hal_timebase_tim.c **** 
  33:Src/stm32f4xx_hal_timebase_tim.c **** /**
  34:Src/stm32f4xx_hal_timebase_tim.c ****   * @brief  This function configures the TIM7 as a time base source.
  35:Src/stm32f4xx_hal_timebase_tim.c ****   *         The time source is configured  to have 1ms time base with a dedicated
  36:Src/stm32f4xx_hal_timebase_tim.c ****   *         Tick interrupt priority.
  37:Src/stm32f4xx_hal_timebase_tim.c ****   * @note   This function is called  automatically at the beginning of program after
  38:Src/stm32f4xx_hal_timebase_tim.c ****   *         reset by HAL_Init() or at any time when clock is configured, by HAL_RCC_ClockConfig().
  39:Src/stm32f4xx_hal_timebase_tim.c ****   * @param  TickPriority: Tick interrupt priority.
  40:Src/stm32f4xx_hal_timebase_tim.c ****   * @retval HAL status
  41:Src/stm32f4xx_hal_timebase_tim.c ****   */
  42:Src/stm32f4xx_hal_timebase_tim.c **** HAL_StatusTypeDef HAL_InitTick(uint32_t TickPriority)
  43:Src/stm32f4xx_hal_timebase_tim.c **** {
  30              		.loc 1 43 1 view -0
  31              		.cfi_startproc
  32              		@ args = 0, pretend = 0, frame = 32
  33              		@ frame_needed = 0, uses_anonymous_args = 0
  34              		.loc 1 43 1 is_stmt 0 view .LVU1
  35 0000 10B5     		push	{r4, lr}
  36              	.LCFI0:
  37              		.cfi_def_cfa_offset 8
  38              		.cfi_offset 4, -8
  39              		.cfi_offset 14, -4
  40 0002 88B0     		sub	sp, sp, #32
  41              	.LCFI1:
  42              		.cfi_def_cfa_offset 40
  43 0004 0146     		mov	r1, r0
  44:Src/stm32f4xx_hal_timebase_tim.c ****   RCC_ClkInitTypeDef    clkconfig;
  44              		.loc 1 44 3 is_stmt 1 view .LVU2
  45:Src/stm32f4xx_hal_timebase_tim.c ****   uint32_t              uwTimclock = 0;
  45              		.loc 1 45 3 view .LVU3
  46              	.LVL1:
  46:Src/stm32f4xx_hal_timebase_tim.c ****   uint32_t              uwPrescalerValue = 0;
  47              		.loc 1 46 3 view .LVU4
  47:Src/stm32f4xx_hal_timebase_tim.c ****   uint32_t              pFLatency;
  48              		.loc 1 47 3 view .LVU5
  48:Src/stm32f4xx_hal_timebase_tim.c ****   /*Configure the TIM7 IRQ priority */
  49:Src/stm32f4xx_hal_timebase_tim.c ****   HAL_NVIC_SetPriority(TIM7_IRQn, TickPriority ,0);
  49              		.loc 1 49 3 view .LVU6
  50 0006 0022     		movs	r2, #0
  51 0008 3720     		movs	r0, #55
  52              	.LVL2:
  53              		.loc 1 49 3 is_stmt 0 view .LVU7
  54 000a FFF7FEFF 		bl	HAL_NVIC_SetPriority
  55              	.LVL3:
  50:Src/stm32f4xx_hal_timebase_tim.c **** 
  51:Src/stm32f4xx_hal_timebase_tim.c ****   /* Enable the TIM7 global Interrupt */
  52:Src/stm32f4xx_hal_timebase_tim.c ****   HAL_NVIC_EnableIRQ(TIM7_IRQn);
  56              		.loc 1 52 3 is_stmt 1 view .LVU8
  57 000e 3720     		movs	r0, #55
  58 0010 FFF7FEFF 		bl	HAL_NVIC_EnableIRQ
  59              	.LVL4:
  53:Src/stm32f4xx_hal_timebase_tim.c ****   /* Enable TIM7 clock */
  54:Src/stm32f4xx_hal_timebase_tim.c ****   __HAL_RCC_TIM7_CLK_ENABLE();
  60              		.loc 1 54 3 view .LVU9
  61              	.LBB2:
ARM GAS  C:\Users\luoha\AppData\Local\Temp\cchiG1lS.s 			page 3


  62              		.loc 1 54 3 view .LVU10
  63 0014 0024     		movs	r4, #0
  64 0016 0194     		str	r4, [sp, #4]
  65              		.loc 1 54 3 view .LVU11
  66 0018 144B     		ldr	r3, .L6
  67 001a 1A6C     		ldr	r2, [r3, #64]
  68 001c 42F02002 		orr	r2, r2, #32
  69 0020 1A64     		str	r2, [r3, #64]
  70              		.loc 1 54 3 view .LVU12
  71 0022 1B6C     		ldr	r3, [r3, #64]
  72 0024 03F02003 		and	r3, r3, #32
  73 0028 0193     		str	r3, [sp, #4]
  74              		.loc 1 54 3 view .LVU13
  75 002a 019B     		ldr	r3, [sp, #4]
  76              	.LBE2:
  77              		.loc 1 54 3 view .LVU14
  55:Src/stm32f4xx_hal_timebase_tim.c **** 
  56:Src/stm32f4xx_hal_timebase_tim.c ****   /* Get clock configuration */
  57:Src/stm32f4xx_hal_timebase_tim.c ****   HAL_RCC_GetClockConfig(&clkconfig, &pFLatency);
  78              		.loc 1 57 3 view .LVU15
  79 002c 02A9     		add	r1, sp, #8
  80 002e 03A8     		add	r0, sp, #12
  81 0030 FFF7FEFF 		bl	HAL_RCC_GetClockConfig
  82              	.LVL5:
  58:Src/stm32f4xx_hal_timebase_tim.c **** 
  59:Src/stm32f4xx_hal_timebase_tim.c ****   /* Compute TIM7 clock */
  60:Src/stm32f4xx_hal_timebase_tim.c ****   uwTimclock = 2*HAL_RCC_GetPCLK1Freq();
  83              		.loc 1 60 3 view .LVU16
  84              		.loc 1 60 18 is_stmt 0 view .LVU17
  85 0034 FFF7FEFF 		bl	HAL_RCC_GetPCLK1Freq
  86              	.LVL6:
  87              		.loc 1 60 14 view .LVU18
  88 0038 4300     		lsls	r3, r0, #1
  89              	.LVL7:
  61:Src/stm32f4xx_hal_timebase_tim.c ****   /* Compute the prescaler value to have TIM7 counter clock equal to 1MHz */
  62:Src/stm32f4xx_hal_timebase_tim.c ****   uwPrescalerValue = (uint32_t) ((uwTimclock / 1000000U) - 1U);
  90              		.loc 1 62 3 is_stmt 1 view .LVU19
  91              		.loc 1 62 46 is_stmt 0 view .LVU20
  92 003a 0D48     		ldr	r0, .L6+4
  93 003c A0FB0323 		umull	r2, r3, r0, r3
  94              	.LVL8:
  95              		.loc 1 62 46 view .LVU21
  96 0040 9B0C     		lsrs	r3, r3, #18
  97              		.loc 1 62 20 view .LVU22
  98 0042 013B     		subs	r3, r3, #1
  99              	.LVL9:
  63:Src/stm32f4xx_hal_timebase_tim.c **** 
  64:Src/stm32f4xx_hal_timebase_tim.c ****   /* Initialize TIM7 */
  65:Src/stm32f4xx_hal_timebase_tim.c ****   htim7.Instance = TIM7;
 100              		.loc 1 65 3 is_stmt 1 view .LVU23
 101              		.loc 1 65 18 is_stmt 0 view .LVU24
 102 0044 0B48     		ldr	r0, .L6+8
 103 0046 0C4A     		ldr	r2, .L6+12
 104 0048 0260     		str	r2, [r0]
  66:Src/stm32f4xx_hal_timebase_tim.c **** 
  67:Src/stm32f4xx_hal_timebase_tim.c ****   /* Initialize TIMx peripheral as follow:
  68:Src/stm32f4xx_hal_timebase_tim.c ****   + Period = [(TIM7CLK/1000) - 1]. to have a (1/1000) s time base.
ARM GAS  C:\Users\luoha\AppData\Local\Temp\cchiG1lS.s 			page 4


  69:Src/stm32f4xx_hal_timebase_tim.c ****   + Prescaler = (uwTimclock/1000000 - 1) to have a 1MHz counter clock.
  70:Src/stm32f4xx_hal_timebase_tim.c ****   + ClockDivision = 0
  71:Src/stm32f4xx_hal_timebase_tim.c ****   + Counter direction = Up
  72:Src/stm32f4xx_hal_timebase_tim.c ****   */
  73:Src/stm32f4xx_hal_timebase_tim.c ****   htim7.Init.Period = (1000000U / 1000U) - 1U;
 105              		.loc 1 73 3 is_stmt 1 view .LVU25
 106              		.loc 1 73 21 is_stmt 0 view .LVU26
 107 004a 40F2E732 		movw	r2, #999
 108 004e C260     		str	r2, [r0, #12]
  74:Src/stm32f4xx_hal_timebase_tim.c ****   htim7.Init.Prescaler = uwPrescalerValue;
 109              		.loc 1 74 3 is_stmt 1 view .LVU27
 110              		.loc 1 74 24 is_stmt 0 view .LVU28
 111 0050 4360     		str	r3, [r0, #4]
  75:Src/stm32f4xx_hal_timebase_tim.c ****   htim7.Init.ClockDivision = 0;
 112              		.loc 1 75 3 is_stmt 1 view .LVU29
 113              		.loc 1 75 28 is_stmt 0 view .LVU30
 114 0052 0461     		str	r4, [r0, #16]
  76:Src/stm32f4xx_hal_timebase_tim.c ****   htim7.Init.CounterMode = TIM_COUNTERMODE_UP;
 115              		.loc 1 76 3 is_stmt 1 view .LVU31
 116              		.loc 1 76 26 is_stmt 0 view .LVU32
 117 0054 8460     		str	r4, [r0, #8]
  77:Src/stm32f4xx_hal_timebase_tim.c ****   if(HAL_TIM_Base_Init(&htim7) == HAL_OK)
 118              		.loc 1 77 3 is_stmt 1 view .LVU33
 119              		.loc 1 77 6 is_stmt 0 view .LVU34
 120 0056 FFF7FEFF 		bl	HAL_TIM_Base_Init
 121              	.LVL10:
 122              		.loc 1 77 5 view .LVU35
 123 005a 10B1     		cbz	r0, .L5
  78:Src/stm32f4xx_hal_timebase_tim.c ****   {
  79:Src/stm32f4xx_hal_timebase_tim.c ****     /* Start the TIM time Base generation in interrupt mode */
  80:Src/stm32f4xx_hal_timebase_tim.c ****     return HAL_TIM_Base_Start_IT(&htim7);
  81:Src/stm32f4xx_hal_timebase_tim.c ****   }
  82:Src/stm32f4xx_hal_timebase_tim.c **** 
  83:Src/stm32f4xx_hal_timebase_tim.c ****   /* Return function status */
  84:Src/stm32f4xx_hal_timebase_tim.c ****   return HAL_ERROR;
 124              		.loc 1 84 10 view .LVU36
 125 005c 0120     		movs	r0, #1
 126              	.L2:
  85:Src/stm32f4xx_hal_timebase_tim.c **** }
 127              		.loc 1 85 1 view .LVU37
 128 005e 08B0     		add	sp, sp, #32
 129              	.LCFI2:
 130              		.cfi_remember_state
 131              		.cfi_def_cfa_offset 8
 132              		@ sp needed
 133 0060 10BD     		pop	{r4, pc}
 134              	.L5:
 135              	.LCFI3:
 136              		.cfi_restore_state
  80:Src/stm32f4xx_hal_timebase_tim.c ****   }
 137              		.loc 1 80 5 is_stmt 1 view .LVU38
  80:Src/stm32f4xx_hal_timebase_tim.c ****   }
 138              		.loc 1 80 12 is_stmt 0 view .LVU39
 139 0062 0448     		ldr	r0, .L6+8
 140 0064 FFF7FEFF 		bl	HAL_TIM_Base_Start_IT
 141              	.LVL11:
 142 0068 F9E7     		b	.L2
ARM GAS  C:\Users\luoha\AppData\Local\Temp\cchiG1lS.s 			page 5


 143              	.L7:
 144 006a 00BF     		.align	2
 145              	.L6:
 146 006c 00380240 		.word	1073887232
 147 0070 83DE1B43 		.word	1125899907
 148 0074 00000000 		.word	htim7
 149 0078 00140040 		.word	1073746944
 150              		.cfi_endproc
 151              	.LFE130:
 153              		.section	.text.HAL_SuspendTick,"ax",%progbits
 154              		.align	1
 155              		.global	HAL_SuspendTick
 156              		.syntax unified
 157              		.thumb
 158              		.thumb_func
 159              		.fpu fpv4-sp-d16
 161              	HAL_SuspendTick:
 162              	.LFB131:
  86:Src/stm32f4xx_hal_timebase_tim.c **** 
  87:Src/stm32f4xx_hal_timebase_tim.c **** /**
  88:Src/stm32f4xx_hal_timebase_tim.c ****   * @brief  Suspend Tick increment.
  89:Src/stm32f4xx_hal_timebase_tim.c ****   * @note   Disable the tick increment by disabling TIM7 update interrupt.
  90:Src/stm32f4xx_hal_timebase_tim.c ****   * @param  None
  91:Src/stm32f4xx_hal_timebase_tim.c ****   * @retval None
  92:Src/stm32f4xx_hal_timebase_tim.c ****   */
  93:Src/stm32f4xx_hal_timebase_tim.c **** void HAL_SuspendTick(void)
  94:Src/stm32f4xx_hal_timebase_tim.c **** {
 163              		.loc 1 94 1 is_stmt 1 view -0
 164              		.cfi_startproc
 165              		@ args = 0, pretend = 0, frame = 0
 166              		@ frame_needed = 0, uses_anonymous_args = 0
 167              		@ link register save eliminated.
  95:Src/stm32f4xx_hal_timebase_tim.c ****   /* Disable TIM7 update Interrupt */
  96:Src/stm32f4xx_hal_timebase_tim.c ****   __HAL_TIM_DISABLE_IT(&htim7, TIM_IT_UPDATE);
 168              		.loc 1 96 3 view .LVU41
 169 0000 034B     		ldr	r3, .L9
 170 0002 1A68     		ldr	r2, [r3]
 171 0004 D368     		ldr	r3, [r2, #12]
 172 0006 23F00103 		bic	r3, r3, #1
 173 000a D360     		str	r3, [r2, #12]
  97:Src/stm32f4xx_hal_timebase_tim.c **** }
 174              		.loc 1 97 1 is_stmt 0 view .LVU42
 175 000c 7047     		bx	lr
 176              	.L10:
 177 000e 00BF     		.align	2
 178              	.L9:
 179 0010 00000000 		.word	htim7
 180              		.cfi_endproc
 181              	.LFE131:
 183              		.section	.text.HAL_ResumeTick,"ax",%progbits
 184              		.align	1
 185              		.global	HAL_ResumeTick
 186              		.syntax unified
 187              		.thumb
 188              		.thumb_func
 189              		.fpu fpv4-sp-d16
 191              	HAL_ResumeTick:
ARM GAS  C:\Users\luoha\AppData\Local\Temp\cchiG1lS.s 			page 6


 192              	.LFB132:
  98:Src/stm32f4xx_hal_timebase_tim.c **** 
  99:Src/stm32f4xx_hal_timebase_tim.c **** /**
 100:Src/stm32f4xx_hal_timebase_tim.c ****   * @brief  Resume Tick increment.
 101:Src/stm32f4xx_hal_timebase_tim.c ****   * @note   Enable the tick increment by Enabling TIM7 update interrupt.
 102:Src/stm32f4xx_hal_timebase_tim.c ****   * @param  None
 103:Src/stm32f4xx_hal_timebase_tim.c ****   * @retval None
 104:Src/stm32f4xx_hal_timebase_tim.c ****   */
 105:Src/stm32f4xx_hal_timebase_tim.c **** void HAL_ResumeTick(void)
 106:Src/stm32f4xx_hal_timebase_tim.c **** {
 193              		.loc 1 106 1 is_stmt 1 view -0
 194              		.cfi_startproc
 195              		@ args = 0, pretend = 0, frame = 0
 196              		@ frame_needed = 0, uses_anonymous_args = 0
 197              		@ link register save eliminated.
 107:Src/stm32f4xx_hal_timebase_tim.c ****   /* Enable TIM7 Update interrupt */
 108:Src/stm32f4xx_hal_timebase_tim.c ****   __HAL_TIM_ENABLE_IT(&htim7, TIM_IT_UPDATE);
 198              		.loc 1 108 3 view .LVU44
 199 0000 034B     		ldr	r3, .L12
 200 0002 1A68     		ldr	r2, [r3]
 201 0004 D368     		ldr	r3, [r2, #12]
 202 0006 43F00103 		orr	r3, r3, #1
 203 000a D360     		str	r3, [r2, #12]
 109:Src/stm32f4xx_hal_timebase_tim.c **** }
 204              		.loc 1 109 1 is_stmt 0 view .LVU45
 205 000c 7047     		bx	lr
 206              	.L13:
 207 000e 00BF     		.align	2
 208              	.L12:
 209 0010 00000000 		.word	htim7
 210              		.cfi_endproc
 211              	.LFE132:
 213              		.comm	htim7,72,4
 214              		.text
 215              	.Letext0:
 216              		.file 2 "e:\\gnu tools arm embedded\\9 2019-q4-major\\arm-none-eabi\\include\\machine\\_default_ty
 217              		.file 3 "e:\\gnu tools arm embedded\\9 2019-q4-major\\arm-none-eabi\\include\\sys\\_stdint.h"
 218              		.file 4 "Drivers/CMSIS/Include/core_cm4.h"
 219              		.file 5 "Drivers/CMSIS/Device/ST/STM32F4xx/Include/system_stm32f4xx.h"
 220              		.file 6 "Drivers/CMSIS/Device/ST/STM32F4xx/Include/stm32f407xx.h"
 221              		.file 7 "Drivers/STM32F4xx_HAL_Driver/Inc/stm32f4xx_hal_def.h"
 222              		.file 8 "Drivers/STM32F4xx_HAL_Driver/Inc/stm32f4xx_hal_rcc.h"
 223              		.file 9 "Drivers/STM32F4xx_HAL_Driver/Inc/stm32f4xx_hal_dma.h"
 224              		.file 10 "Drivers/STM32F4xx_HAL_Driver/Inc/stm32f4xx_hal_tim.h"
 225              		.file 11 "Drivers/STM32F4xx_HAL_Driver/Inc/stm32f4xx_hal.h"
 226              		.file 12 "Drivers/STM32F4xx_HAL_Driver/Inc/stm32f4xx_hal_cortex.h"
ARM GAS  C:\Users\luoha\AppData\Local\Temp\cchiG1lS.s 			page 7

