ARM GAS  C:\Users\luoha\AppData\Local\Temp\ccjHGCHb.s 			page 1


   1              		.cpu cortex-m4
   2              		.eabi_attribute 27, 1
   3              		.eabi_attribute 28, 1
   4              		.eabi_attribute 20, 1
   5              		.eabi_attribute 21, 1
   6              		.eabi_attribute 23, 3
   7              		.eabi_attribute 24, 1
   8              		.eabi_attribute 25, 1
   9              		.eabi_attribute 26, 1
  10              		.eabi_attribute 30, 1
  11              		.eabi_attribute 34, 1
  12              		.eabi_attribute 18, 4
  13              		.file	"stm32f4xx_it.c"
  14              		.text
  15              	.Ltext0:
  16              		.cfi_sections	.debug_frame
  17              		.section	.text.NMI_Handler,"ax",%progbits
  18              		.align	1
  19              		.global	NMI_Handler
  20              		.arch armv7e-m
  21              		.syntax unified
  22              		.thumb
  23              		.thumb_func
  24              		.fpu fpv4-sp-d16
  26              	NMI_Handler:
  27              	.LFB133:
  28              		.file 1 "Src/stm32f4xx_it.c"
   1:Src/stm32f4xx_it.c **** /* USER CODE BEGIN Header */
   2:Src/stm32f4xx_it.c **** /**
   3:Src/stm32f4xx_it.c ****   ******************************************************************************
   4:Src/stm32f4xx_it.c ****   * @file    stm32f4xx_it.c
   5:Src/stm32f4xx_it.c ****   * @brief   Interrupt Service Routines.
   6:Src/stm32f4xx_it.c ****   ******************************************************************************
   7:Src/stm32f4xx_it.c ****   * @attention
   8:Src/stm32f4xx_it.c ****   *
   9:Src/stm32f4xx_it.c ****   * <h2><center>&copy; Copyright (c) 2020 STMicroelectronics.
  10:Src/stm32f4xx_it.c ****   * All rights reserved.</center></h2>
  11:Src/stm32f4xx_it.c ****   *
  12:Src/stm32f4xx_it.c ****   * This software component is licensed by ST under Ultimate Liberty license
  13:Src/stm32f4xx_it.c ****   * SLA0044, the "License"; You may not use this file except in compliance with
  14:Src/stm32f4xx_it.c ****   * the License. You may obtain a copy of the License at:
  15:Src/stm32f4xx_it.c ****   *                             www.st.com/SLA0044
  16:Src/stm32f4xx_it.c ****   *
  17:Src/stm32f4xx_it.c ****   ******************************************************************************
  18:Src/stm32f4xx_it.c ****   */
  19:Src/stm32f4xx_it.c **** /* USER CODE END Header */
  20:Src/stm32f4xx_it.c **** 
  21:Src/stm32f4xx_it.c **** /* Includes ------------------------------------------------------------------*/
  22:Src/stm32f4xx_it.c **** #include "main.h"
  23:Src/stm32f4xx_it.c **** #include "stm32f4xx_it.h"
  24:Src/stm32f4xx_it.c **** /* Private includes ----------------------------------------------------------*/
  25:Src/stm32f4xx_it.c **** /* USER CODE BEGIN Includes */
  26:Src/stm32f4xx_it.c **** /* USER CODE END Includes */
  27:Src/stm32f4xx_it.c **** 
  28:Src/stm32f4xx_it.c **** /* Private typedef -----------------------------------------------------------*/
  29:Src/stm32f4xx_it.c **** /* USER CODE BEGIN TD */
  30:Src/stm32f4xx_it.c **** 
ARM GAS  C:\Users\luoha\AppData\Local\Temp\ccjHGCHb.s 			page 2


  31:Src/stm32f4xx_it.c **** /* USER CODE END TD */
  32:Src/stm32f4xx_it.c **** 
  33:Src/stm32f4xx_it.c **** /* Private define ------------------------------------------------------------*/
  34:Src/stm32f4xx_it.c **** /* USER CODE BEGIN PD */
  35:Src/stm32f4xx_it.c ****  
  36:Src/stm32f4xx_it.c **** /* USER CODE END PD */
  37:Src/stm32f4xx_it.c **** 
  38:Src/stm32f4xx_it.c **** /* Private macro -------------------------------------------------------------*/
  39:Src/stm32f4xx_it.c **** /* USER CODE BEGIN PM */
  40:Src/stm32f4xx_it.c **** 
  41:Src/stm32f4xx_it.c **** /* USER CODE END PM */
  42:Src/stm32f4xx_it.c **** 
  43:Src/stm32f4xx_it.c **** /* Private variables ---------------------------------------------------------*/
  44:Src/stm32f4xx_it.c **** /* USER CODE BEGIN PV */
  45:Src/stm32f4xx_it.c **** 
  46:Src/stm32f4xx_it.c **** /* USER CODE END PV */
  47:Src/stm32f4xx_it.c **** 
  48:Src/stm32f4xx_it.c **** /* Private function prototypes -----------------------------------------------*/
  49:Src/stm32f4xx_it.c **** /* USER CODE BEGIN PFP */
  50:Src/stm32f4xx_it.c **** 
  51:Src/stm32f4xx_it.c **** /* USER CODE END PFP */
  52:Src/stm32f4xx_it.c **** 
  53:Src/stm32f4xx_it.c **** /* Private user code ---------------------------------------------------------*/
  54:Src/stm32f4xx_it.c **** /* USER CODE BEGIN 0 */
  55:Src/stm32f4xx_it.c **** 
  56:Src/stm32f4xx_it.c **** /* USER CODE END 0 */
  57:Src/stm32f4xx_it.c **** 
  58:Src/stm32f4xx_it.c **** /* External variables --------------------------------------------------------*/
  59:Src/stm32f4xx_it.c **** extern DMA_HandleTypeDef hdma_i2c1_rx;
  60:Src/stm32f4xx_it.c **** extern DMA_HandleTypeDef hdma_i2c1_tx;
  61:Src/stm32f4xx_it.c **** extern I2C_HandleTypeDef hi2c1;
  62:Src/stm32f4xx_it.c **** extern DMA_HandleTypeDef hdma_usart1_rx;
  63:Src/stm32f4xx_it.c **** extern DMA_HandleTypeDef hdma_usart1_tx;
  64:Src/stm32f4xx_it.c **** extern UART_HandleTypeDef huart1;
  65:Src/stm32f4xx_it.c **** extern TIM_HandleTypeDef htim7;
  66:Src/stm32f4xx_it.c **** 
  67:Src/stm32f4xx_it.c **** /* USER CODE BEGIN EV */
  68:Src/stm32f4xx_it.c **** 
  69:Src/stm32f4xx_it.c **** /* USER CODE END EV */
  70:Src/stm32f4xx_it.c **** 
  71:Src/stm32f4xx_it.c **** /******************************************************************************/
  72:Src/stm32f4xx_it.c **** /*           Cortex-M4 Processor Interruption and Exception Handlers          */
  73:Src/stm32f4xx_it.c **** /******************************************************************************/
  74:Src/stm32f4xx_it.c **** /**
  75:Src/stm32f4xx_it.c ****   * @brief This function handles Non maskable interrupt.
  76:Src/stm32f4xx_it.c ****   */
  77:Src/stm32f4xx_it.c **** void NMI_Handler(void)
  78:Src/stm32f4xx_it.c **** {
  29              		.loc 1 78 1 view -0
  30              		.cfi_startproc
  31              		@ args = 0, pretend = 0, frame = 0
  32              		@ frame_needed = 0, uses_anonymous_args = 0
  33              		@ link register save eliminated.
  79:Src/stm32f4xx_it.c ****   /* USER CODE BEGIN NonMaskableInt_IRQn 0 */
  80:Src/stm32f4xx_it.c **** 
  81:Src/stm32f4xx_it.c ****   /* USER CODE END NonMaskableInt_IRQn 0 */
  82:Src/stm32f4xx_it.c ****   /* USER CODE BEGIN NonMaskableInt_IRQn 1 */
ARM GAS  C:\Users\luoha\AppData\Local\Temp\ccjHGCHb.s 			page 3


  83:Src/stm32f4xx_it.c **** 
  84:Src/stm32f4xx_it.c ****   /* USER CODE END NonMaskableInt_IRQn 1 */
  85:Src/stm32f4xx_it.c **** }
  34              		.loc 1 85 1 view .LVU1
  35 0000 7047     		bx	lr
  36              		.cfi_endproc
  37              	.LFE133:
  39              		.section	.text.HardFault_Handler,"ax",%progbits
  40              		.align	1
  41              		.global	HardFault_Handler
  42              		.syntax unified
  43              		.thumb
  44              		.thumb_func
  45              		.fpu fpv4-sp-d16
  47              	HardFault_Handler:
  48              	.LFB134:
  86:Src/stm32f4xx_it.c **** 
  87:Src/stm32f4xx_it.c **** /**
  88:Src/stm32f4xx_it.c ****   * @brief This function handles Hard fault interrupt.
  89:Src/stm32f4xx_it.c ****   */
  90:Src/stm32f4xx_it.c **** void HardFault_Handler(void)
  91:Src/stm32f4xx_it.c **** {
  49              		.loc 1 91 1 view -0
  50              		.cfi_startproc
  51              		@ Volatile: function does not return.
  52              		@ args = 0, pretend = 0, frame = 0
  53              		@ frame_needed = 0, uses_anonymous_args = 0
  54              		@ link register save eliminated.
  55              	.L3:
  92:Src/stm32f4xx_it.c ****   /* USER CODE BEGIN HardFault_IRQn 0 */
  93:Src/stm32f4xx_it.c **** 
  94:Src/stm32f4xx_it.c ****   /* USER CODE END HardFault_IRQn 0 */
  95:Src/stm32f4xx_it.c ****   while (1)
  56              		.loc 1 95 3 discriminator 1 view .LVU3
  96:Src/stm32f4xx_it.c ****   {
  97:Src/stm32f4xx_it.c ****     /* USER CODE BEGIN W1_HardFault_IRQn 0 */
  98:Src/stm32f4xx_it.c ****     /* USER CODE END W1_HardFault_IRQn 0 */
  99:Src/stm32f4xx_it.c ****   }
  57              		.loc 1 99 3 discriminator 1 view .LVU4
  95:Src/stm32f4xx_it.c ****   {
  58              		.loc 1 95 9 discriminator 1 view .LVU5
  59 0000 FEE7     		b	.L3
  60              		.cfi_endproc
  61              	.LFE134:
  63              		.section	.text.MemManage_Handler,"ax",%progbits
  64              		.align	1
  65              		.global	MemManage_Handler
  66              		.syntax unified
  67              		.thumb
  68              		.thumb_func
  69              		.fpu fpv4-sp-d16
  71              	MemManage_Handler:
  72              	.LFB135:
 100:Src/stm32f4xx_it.c **** }
 101:Src/stm32f4xx_it.c **** 
 102:Src/stm32f4xx_it.c **** /**
 103:Src/stm32f4xx_it.c ****   * @brief This function handles Memory management fault.
ARM GAS  C:\Users\luoha\AppData\Local\Temp\ccjHGCHb.s 			page 4


 104:Src/stm32f4xx_it.c ****   */
 105:Src/stm32f4xx_it.c **** void MemManage_Handler(void)
 106:Src/stm32f4xx_it.c **** {
  73              		.loc 1 106 1 view -0
  74              		.cfi_startproc
  75              		@ Volatile: function does not return.
  76              		@ args = 0, pretend = 0, frame = 0
  77              		@ frame_needed = 0, uses_anonymous_args = 0
  78              		@ link register save eliminated.
  79              	.L5:
 107:Src/stm32f4xx_it.c ****   /* USER CODE BEGIN MemoryManagement_IRQn 0 */
 108:Src/stm32f4xx_it.c **** 
 109:Src/stm32f4xx_it.c ****   /* USER CODE END MemoryManagement_IRQn 0 */
 110:Src/stm32f4xx_it.c ****   while (1)
  80              		.loc 1 110 3 discriminator 1 view .LVU7
 111:Src/stm32f4xx_it.c ****   {
 112:Src/stm32f4xx_it.c ****     /* USER CODE BEGIN W1_MemoryManagement_IRQn 0 */
 113:Src/stm32f4xx_it.c ****     /* USER CODE END W1_MemoryManagement_IRQn 0 */
 114:Src/stm32f4xx_it.c ****   }
  81              		.loc 1 114 3 discriminator 1 view .LVU8
 110:Src/stm32f4xx_it.c ****   {
  82              		.loc 1 110 9 discriminator 1 view .LVU9
  83 0000 FEE7     		b	.L5
  84              		.cfi_endproc
  85              	.LFE135:
  87              		.section	.text.BusFault_Handler,"ax",%progbits
  88              		.align	1
  89              		.global	BusFault_Handler
  90              		.syntax unified
  91              		.thumb
  92              		.thumb_func
  93              		.fpu fpv4-sp-d16
  95              	BusFault_Handler:
  96              	.LFB136:
 115:Src/stm32f4xx_it.c **** }
 116:Src/stm32f4xx_it.c **** 
 117:Src/stm32f4xx_it.c **** /**
 118:Src/stm32f4xx_it.c ****   * @brief This function handles Pre-fetch fault, memory access fault.
 119:Src/stm32f4xx_it.c ****   */
 120:Src/stm32f4xx_it.c **** void BusFault_Handler(void)
 121:Src/stm32f4xx_it.c **** {
  97              		.loc 1 121 1 view -0
  98              		.cfi_startproc
  99              		@ Volatile: function does not return.
 100              		@ args = 0, pretend = 0, frame = 0
 101              		@ frame_needed = 0, uses_anonymous_args = 0
 102              		@ link register save eliminated.
 103              	.L7:
 122:Src/stm32f4xx_it.c ****   /* USER CODE BEGIN BusFault_IRQn 0 */
 123:Src/stm32f4xx_it.c **** 
 124:Src/stm32f4xx_it.c ****   /* USER CODE END BusFault_IRQn 0 */
 125:Src/stm32f4xx_it.c ****   while (1)
 104              		.loc 1 125 3 discriminator 1 view .LVU11
 126:Src/stm32f4xx_it.c ****   {
 127:Src/stm32f4xx_it.c ****     /* USER CODE BEGIN W1_BusFault_IRQn 0 */
 128:Src/stm32f4xx_it.c ****     /* USER CODE END W1_BusFault_IRQn 0 */
 129:Src/stm32f4xx_it.c ****   }
ARM GAS  C:\Users\luoha\AppData\Local\Temp\ccjHGCHb.s 			page 5


 105              		.loc 1 129 3 discriminator 1 view .LVU12
 125:Src/stm32f4xx_it.c ****   {
 106              		.loc 1 125 9 discriminator 1 view .LVU13
 107 0000 FEE7     		b	.L7
 108              		.cfi_endproc
 109              	.LFE136:
 111              		.section	.text.UsageFault_Handler,"ax",%progbits
 112              		.align	1
 113              		.global	UsageFault_Handler
 114              		.syntax unified
 115              		.thumb
 116              		.thumb_func
 117              		.fpu fpv4-sp-d16
 119              	UsageFault_Handler:
 120              	.LFB137:
 130:Src/stm32f4xx_it.c **** }
 131:Src/stm32f4xx_it.c **** 
 132:Src/stm32f4xx_it.c **** /**
 133:Src/stm32f4xx_it.c ****   * @brief This function handles Undefined instruction or illegal state.
 134:Src/stm32f4xx_it.c ****   */
 135:Src/stm32f4xx_it.c **** void UsageFault_Handler(void)
 136:Src/stm32f4xx_it.c **** {
 121              		.loc 1 136 1 view -0
 122              		.cfi_startproc
 123              		@ Volatile: function does not return.
 124              		@ args = 0, pretend = 0, frame = 0
 125              		@ frame_needed = 0, uses_anonymous_args = 0
 126              		@ link register save eliminated.
 127              	.L9:
 137:Src/stm32f4xx_it.c ****   /* USER CODE BEGIN UsageFault_IRQn 0 */
 138:Src/stm32f4xx_it.c **** 
 139:Src/stm32f4xx_it.c ****   /* USER CODE END UsageFault_IRQn 0 */
 140:Src/stm32f4xx_it.c ****   while (1)
 128              		.loc 1 140 3 discriminator 1 view .LVU15
 141:Src/stm32f4xx_it.c ****   {
 142:Src/stm32f4xx_it.c ****     /* USER CODE BEGIN W1_UsageFault_IRQn 0 */
 143:Src/stm32f4xx_it.c ****     /* USER CODE END W1_UsageFault_IRQn 0 */
 144:Src/stm32f4xx_it.c ****   }
 129              		.loc 1 144 3 discriminator 1 view .LVU16
 140:Src/stm32f4xx_it.c ****   {
 130              		.loc 1 140 9 discriminator 1 view .LVU17
 131 0000 FEE7     		b	.L9
 132              		.cfi_endproc
 133              	.LFE137:
 135              		.section	.text.DebugMon_Handler,"ax",%progbits
 136              		.align	1
 137              		.global	DebugMon_Handler
 138              		.syntax unified
 139              		.thumb
 140              		.thumb_func
 141              		.fpu fpv4-sp-d16
 143              	DebugMon_Handler:
 144              	.LFB138:
 145:Src/stm32f4xx_it.c **** }
 146:Src/stm32f4xx_it.c **** 
 147:Src/stm32f4xx_it.c **** /**
 148:Src/stm32f4xx_it.c ****   * @brief This function handles Debug monitor.
ARM GAS  C:\Users\luoha\AppData\Local\Temp\ccjHGCHb.s 			page 6


 149:Src/stm32f4xx_it.c ****   */
 150:Src/stm32f4xx_it.c **** void DebugMon_Handler(void)
 151:Src/stm32f4xx_it.c **** {
 145              		.loc 1 151 1 view -0
 146              		.cfi_startproc
 147              		@ args = 0, pretend = 0, frame = 0
 148              		@ frame_needed = 0, uses_anonymous_args = 0
 149              		@ link register save eliminated.
 152:Src/stm32f4xx_it.c ****   /* USER CODE BEGIN DebugMonitor_IRQn 0 */
 153:Src/stm32f4xx_it.c **** 
 154:Src/stm32f4xx_it.c ****   /* USER CODE END DebugMonitor_IRQn 0 */
 155:Src/stm32f4xx_it.c ****   /* USER CODE BEGIN DebugMonitor_IRQn 1 */
 156:Src/stm32f4xx_it.c **** 
 157:Src/stm32f4xx_it.c ****   /* USER CODE END DebugMonitor_IRQn 1 */
 158:Src/stm32f4xx_it.c **** }
 150              		.loc 1 158 1 view .LVU19
 151 0000 7047     		bx	lr
 152              		.cfi_endproc
 153              	.LFE138:
 155              		.section	.text.DMA1_Stream0_IRQHandler,"ax",%progbits
 156              		.align	1
 157              		.global	DMA1_Stream0_IRQHandler
 158              		.syntax unified
 159              		.thumb
 160              		.thumb_func
 161              		.fpu fpv4-sp-d16
 163              	DMA1_Stream0_IRQHandler:
 164              	.LFB139:
 159:Src/stm32f4xx_it.c **** 
 160:Src/stm32f4xx_it.c **** /******************************************************************************/
 161:Src/stm32f4xx_it.c **** /* STM32F4xx Peripheral Interrupt Handlers                                    */
 162:Src/stm32f4xx_it.c **** /* Add here the Interrupt Handlers for the used peripherals.                  */
 163:Src/stm32f4xx_it.c **** /* For the available peripheral interrupt handler names,                      */
 164:Src/stm32f4xx_it.c **** /* please refer to the startup file (startup_stm32f4xx.s).                    */
 165:Src/stm32f4xx_it.c **** /******************************************************************************/
 166:Src/stm32f4xx_it.c **** 
 167:Src/stm32f4xx_it.c **** /**
 168:Src/stm32f4xx_it.c ****   * @brief This function handles DMA1 stream0 global interrupt.
 169:Src/stm32f4xx_it.c ****   */
 170:Src/stm32f4xx_it.c **** void DMA1_Stream0_IRQHandler(void)
 171:Src/stm32f4xx_it.c **** {
 165              		.loc 1 171 1 view -0
 166              		.cfi_startproc
 167              		@ args = 0, pretend = 0, frame = 0
 168              		@ frame_needed = 0, uses_anonymous_args = 0
 169 0000 08B5     		push	{r3, lr}
 170              	.LCFI0:
 171              		.cfi_def_cfa_offset 8
 172              		.cfi_offset 3, -8
 173              		.cfi_offset 14, -4
 172:Src/stm32f4xx_it.c ****   /* USER CODE BEGIN DMA1_Stream0_IRQn 0 */
 173:Src/stm32f4xx_it.c **** 
 174:Src/stm32f4xx_it.c ****   /* USER CODE END DMA1_Stream0_IRQn 0 */
 175:Src/stm32f4xx_it.c ****   HAL_DMA_IRQHandler(&hdma_i2c1_rx);
 174              		.loc 1 175 3 view .LVU21
 175 0002 0248     		ldr	r0, .L13
 176 0004 FFF7FEFF 		bl	HAL_DMA_IRQHandler
ARM GAS  C:\Users\luoha\AppData\Local\Temp\ccjHGCHb.s 			page 7


 177              	.LVL0:
 176:Src/stm32f4xx_it.c ****   /* USER CODE BEGIN DMA1_Stream0_IRQn 1 */
 177:Src/stm32f4xx_it.c **** 
 178:Src/stm32f4xx_it.c ****   /* USER CODE END DMA1_Stream0_IRQn 1 */
 179:Src/stm32f4xx_it.c **** }
 178              		.loc 1 179 1 is_stmt 0 view .LVU22
 179 0008 08BD     		pop	{r3, pc}
 180              	.L14:
 181 000a 00BF     		.align	2
 182              	.L13:
 183 000c 00000000 		.word	hdma_i2c1_rx
 184              		.cfi_endproc
 185              	.LFE139:
 187              		.section	.text.I2C1_EV_IRQHandler,"ax",%progbits
 188              		.align	1
 189              		.global	I2C1_EV_IRQHandler
 190              		.syntax unified
 191              		.thumb
 192              		.thumb_func
 193              		.fpu fpv4-sp-d16
 195              	I2C1_EV_IRQHandler:
 196              	.LFB140:
 180:Src/stm32f4xx_it.c **** 
 181:Src/stm32f4xx_it.c **** /**
 182:Src/stm32f4xx_it.c ****   * @brief This function handles I2C1 event interrupt.
 183:Src/stm32f4xx_it.c ****   */
 184:Src/stm32f4xx_it.c **** void I2C1_EV_IRQHandler(void)
 185:Src/stm32f4xx_it.c **** {
 197              		.loc 1 185 1 is_stmt 1 view -0
 198              		.cfi_startproc
 199              		@ args = 0, pretend = 0, frame = 0
 200              		@ frame_needed = 0, uses_anonymous_args = 0
 201 0000 08B5     		push	{r3, lr}
 202              	.LCFI1:
 203              		.cfi_def_cfa_offset 8
 204              		.cfi_offset 3, -8
 205              		.cfi_offset 14, -4
 186:Src/stm32f4xx_it.c ****   /* USER CODE BEGIN I2C1_EV_IRQn 0 */
 187:Src/stm32f4xx_it.c **** 
 188:Src/stm32f4xx_it.c ****   /* USER CODE END I2C1_EV_IRQn 0 */
 189:Src/stm32f4xx_it.c ****   HAL_I2C_EV_IRQHandler(&hi2c1);
 206              		.loc 1 189 3 view .LVU24
 207 0002 0248     		ldr	r0, .L17
 208 0004 FFF7FEFF 		bl	HAL_I2C_EV_IRQHandler
 209              	.LVL1:
 190:Src/stm32f4xx_it.c ****   /* USER CODE BEGIN I2C1_EV_IRQn 1 */
 191:Src/stm32f4xx_it.c **** 
 192:Src/stm32f4xx_it.c ****   /* USER CODE END I2C1_EV_IRQn 1 */
 193:Src/stm32f4xx_it.c **** }
 210              		.loc 1 193 1 is_stmt 0 view .LVU25
 211 0008 08BD     		pop	{r3, pc}
 212              	.L18:
 213 000a 00BF     		.align	2
 214              	.L17:
 215 000c 00000000 		.word	hi2c1
 216              		.cfi_endproc
 217              	.LFE140:
ARM GAS  C:\Users\luoha\AppData\Local\Temp\ccjHGCHb.s 			page 8


 219              		.section	.text.I2C1_ER_IRQHandler,"ax",%progbits
 220              		.align	1
 221              		.global	I2C1_ER_IRQHandler
 222              		.syntax unified
 223              		.thumb
 224              		.thumb_func
 225              		.fpu fpv4-sp-d16
 227              	I2C1_ER_IRQHandler:
 228              	.LFB141:
 194:Src/stm32f4xx_it.c **** 
 195:Src/stm32f4xx_it.c **** /**
 196:Src/stm32f4xx_it.c ****   * @brief This function handles I2C1 error interrupt.
 197:Src/stm32f4xx_it.c ****   */
 198:Src/stm32f4xx_it.c **** void I2C1_ER_IRQHandler(void)
 199:Src/stm32f4xx_it.c **** {
 229              		.loc 1 199 1 is_stmt 1 view -0
 230              		.cfi_startproc
 231              		@ args = 0, pretend = 0, frame = 0
 232              		@ frame_needed = 0, uses_anonymous_args = 0
 233 0000 08B5     		push	{r3, lr}
 234              	.LCFI2:
 235              		.cfi_def_cfa_offset 8
 236              		.cfi_offset 3, -8
 237              		.cfi_offset 14, -4
 200:Src/stm32f4xx_it.c ****   /* USER CODE BEGIN I2C1_ER_IRQn 0 */
 201:Src/stm32f4xx_it.c ****   /* USER CODE END I2C1_ER_IRQn 0 */
 202:Src/stm32f4xx_it.c ****   HAL_I2C_ER_IRQHandler(&hi2c1);
 238              		.loc 1 202 3 view .LVU27
 239 0002 0248     		ldr	r0, .L21
 240 0004 FFF7FEFF 		bl	HAL_I2C_ER_IRQHandler
 241              	.LVL2:
 203:Src/stm32f4xx_it.c ****   /* USER CODE BEGIN I2C1_ER_IRQn 1 */
 204:Src/stm32f4xx_it.c **** 
 205:Src/stm32f4xx_it.c ****   /* USER CODE END I2C1_ER_IRQn 1 */
 206:Src/stm32f4xx_it.c **** }
 242              		.loc 1 206 1 is_stmt 0 view .LVU28
 243 0008 08BD     		pop	{r3, pc}
 244              	.L22:
 245 000a 00BF     		.align	2
 246              	.L21:
 247 000c 00000000 		.word	hi2c1
 248              		.cfi_endproc
 249              	.LFE141:
 251              		.section	.text.USART1_IRQHandler,"ax",%progbits
 252              		.align	1
 253              		.global	USART1_IRQHandler
 254              		.syntax unified
 255              		.thumb
 256              		.thumb_func
 257              		.fpu fpv4-sp-d16
 259              	USART1_IRQHandler:
 260              	.LFB142:
 207:Src/stm32f4xx_it.c **** 
 208:Src/stm32f4xx_it.c **** /**
 209:Src/stm32f4xx_it.c ****   * @brief This function handles USART1 global interrupt.
 210:Src/stm32f4xx_it.c ****   */
 211:Src/stm32f4xx_it.c **** void USART1_IRQHandler(void)
ARM GAS  C:\Users\luoha\AppData\Local\Temp\ccjHGCHb.s 			page 9


 212:Src/stm32f4xx_it.c **** {
 261              		.loc 1 212 1 is_stmt 1 view -0
 262              		.cfi_startproc
 263              		@ args = 0, pretend = 0, frame = 0
 264              		@ frame_needed = 0, uses_anonymous_args = 0
 265 0000 08B5     		push	{r3, lr}
 266              	.LCFI3:
 267              		.cfi_def_cfa_offset 8
 268              		.cfi_offset 3, -8
 269              		.cfi_offset 14, -4
 213:Src/stm32f4xx_it.c ****   /* USER CODE BEGIN USART1_IRQn 0 */
 214:Src/stm32f4xx_it.c **** 
 215:Src/stm32f4xx_it.c ****   /* USER CODE END USART1_IRQn 0 */
 216:Src/stm32f4xx_it.c ****   HAL_UART_IRQHandler(&huart1);
 270              		.loc 1 216 3 view .LVU30
 271 0002 0248     		ldr	r0, .L25
 272 0004 FFF7FEFF 		bl	HAL_UART_IRQHandler
 273              	.LVL3:
 217:Src/stm32f4xx_it.c ****   /* USER CODE BEGIN USART1_IRQn 1 */
 218:Src/stm32f4xx_it.c **** 
 219:Src/stm32f4xx_it.c ****   /* USER CODE END USART1_IRQn 1 */
 220:Src/stm32f4xx_it.c **** }
 274              		.loc 1 220 1 is_stmt 0 view .LVU31
 275 0008 08BD     		pop	{r3, pc}
 276              	.L26:
 277 000a 00BF     		.align	2
 278              	.L25:
 279 000c 00000000 		.word	huart1
 280              		.cfi_endproc
 281              	.LFE142:
 283              		.section	.text.DMA1_Stream7_IRQHandler,"ax",%progbits
 284              		.align	1
 285              		.global	DMA1_Stream7_IRQHandler
 286              		.syntax unified
 287              		.thumb
 288              		.thumb_func
 289              		.fpu fpv4-sp-d16
 291              	DMA1_Stream7_IRQHandler:
 292              	.LFB143:
 221:Src/stm32f4xx_it.c **** 
 222:Src/stm32f4xx_it.c **** /**
 223:Src/stm32f4xx_it.c ****   * @brief This function handles DMA1 stream7 global interrupt.
 224:Src/stm32f4xx_it.c ****   */
 225:Src/stm32f4xx_it.c **** void DMA1_Stream7_IRQHandler(void)
 226:Src/stm32f4xx_it.c **** {
 293              		.loc 1 226 1 is_stmt 1 view -0
 294              		.cfi_startproc
 295              		@ args = 0, pretend = 0, frame = 0
 296              		@ frame_needed = 0, uses_anonymous_args = 0
 297 0000 08B5     		push	{r3, lr}
 298              	.LCFI4:
 299              		.cfi_def_cfa_offset 8
 300              		.cfi_offset 3, -8
 301              		.cfi_offset 14, -4
 227:Src/stm32f4xx_it.c ****   /* USER CODE BEGIN DMA1_Stream7_IRQn 0 */
 228:Src/stm32f4xx_it.c **** 
 229:Src/stm32f4xx_it.c ****   /* USER CODE END DMA1_Stream7_IRQn 0 */
ARM GAS  C:\Users\luoha\AppData\Local\Temp\ccjHGCHb.s 			page 10


 230:Src/stm32f4xx_it.c ****   HAL_DMA_IRQHandler(&hdma_i2c1_tx);
 302              		.loc 1 230 3 view .LVU33
 303 0002 0248     		ldr	r0, .L29
 304 0004 FFF7FEFF 		bl	HAL_DMA_IRQHandler
 305              	.LVL4:
 231:Src/stm32f4xx_it.c ****   /* USER CODE BEGIN DMA1_Stream7_IRQn 1 */
 232:Src/stm32f4xx_it.c **** 
 233:Src/stm32f4xx_it.c ****   /* USER CODE END DMA1_Stream7_IRQn 1 */
 234:Src/stm32f4xx_it.c **** }
 306              		.loc 1 234 1 is_stmt 0 view .LVU34
 307 0008 08BD     		pop	{r3, pc}
 308              	.L30:
 309 000a 00BF     		.align	2
 310              	.L29:
 311 000c 00000000 		.word	hdma_i2c1_tx
 312              		.cfi_endproc
 313              	.LFE143:
 315              		.section	.text.TIM7_IRQHandler,"ax",%progbits
 316              		.align	1
 317              		.global	TIM7_IRQHandler
 318              		.syntax unified
 319              		.thumb
 320              		.thumb_func
 321              		.fpu fpv4-sp-d16
 323              	TIM7_IRQHandler:
 324              	.LFB144:
 235:Src/stm32f4xx_it.c **** 
 236:Src/stm32f4xx_it.c **** /**
 237:Src/stm32f4xx_it.c ****   * @brief This function handles TIM7 global interrupt.
 238:Src/stm32f4xx_it.c ****   */
 239:Src/stm32f4xx_it.c **** void TIM7_IRQHandler(void)
 240:Src/stm32f4xx_it.c **** {
 325              		.loc 1 240 1 is_stmt 1 view -0
 326              		.cfi_startproc
 327              		@ args = 0, pretend = 0, frame = 0
 328              		@ frame_needed = 0, uses_anonymous_args = 0
 329 0000 08B5     		push	{r3, lr}
 330              	.LCFI5:
 331              		.cfi_def_cfa_offset 8
 332              		.cfi_offset 3, -8
 333              		.cfi_offset 14, -4
 241:Src/stm32f4xx_it.c ****   /* USER CODE BEGIN TIM7_IRQn 0 */
 242:Src/stm32f4xx_it.c **** 
 243:Src/stm32f4xx_it.c ****   /* USER CODE END TIM7_IRQn 0 */
 244:Src/stm32f4xx_it.c ****   HAL_TIM_IRQHandler(&htim7);
 334              		.loc 1 244 3 view .LVU36
 335 0002 0248     		ldr	r0, .L33
 336 0004 FFF7FEFF 		bl	HAL_TIM_IRQHandler
 337              	.LVL5:
 245:Src/stm32f4xx_it.c ****   /* USER CODE BEGIN TIM7_IRQn 1 */
 246:Src/stm32f4xx_it.c **** 
 247:Src/stm32f4xx_it.c ****   /* USER CODE END TIM7_IRQn 1 */
 248:Src/stm32f4xx_it.c **** }
 338              		.loc 1 248 1 is_stmt 0 view .LVU37
 339 0008 08BD     		pop	{r3, pc}
 340              	.L34:
 341 000a 00BF     		.align	2
ARM GAS  C:\Users\luoha\AppData\Local\Temp\ccjHGCHb.s 			page 11


 342              	.L33:
 343 000c 00000000 		.word	htim7
 344              		.cfi_endproc
 345              	.LFE144:
 347              		.section	.text.DMA2_Stream2_IRQHandler,"ax",%progbits
 348              		.align	1
 349              		.global	DMA2_Stream2_IRQHandler
 350              		.syntax unified
 351              		.thumb
 352              		.thumb_func
 353              		.fpu fpv4-sp-d16
 355              	DMA2_Stream2_IRQHandler:
 356              	.LFB145:
 249:Src/stm32f4xx_it.c **** 
 250:Src/stm32f4xx_it.c **** /**
 251:Src/stm32f4xx_it.c ****   * @brief This function handles DMA2 stream2 global interrupt.
 252:Src/stm32f4xx_it.c ****   */
 253:Src/stm32f4xx_it.c **** void DMA2_Stream2_IRQHandler(void)
 254:Src/stm32f4xx_it.c **** {
 357              		.loc 1 254 1 is_stmt 1 view -0
 358              		.cfi_startproc
 359              		@ args = 0, pretend = 0, frame = 0
 360              		@ frame_needed = 0, uses_anonymous_args = 0
 361 0000 08B5     		push	{r3, lr}
 362              	.LCFI6:
 363              		.cfi_def_cfa_offset 8
 364              		.cfi_offset 3, -8
 365              		.cfi_offset 14, -4
 255:Src/stm32f4xx_it.c ****   /* USER CODE BEGIN DMA2_Stream2_IRQn 0 */
 256:Src/stm32f4xx_it.c **** 
 257:Src/stm32f4xx_it.c ****   /* USER CODE END DMA2_Stream2_IRQn 0 */
 258:Src/stm32f4xx_it.c ****   HAL_DMA_IRQHandler(&hdma_usart1_rx);
 366              		.loc 1 258 3 view .LVU39
 367 0002 0248     		ldr	r0, .L37
 368 0004 FFF7FEFF 		bl	HAL_DMA_IRQHandler
 369              	.LVL6:
 259:Src/stm32f4xx_it.c ****   /* USER CODE BEGIN DMA2_Stream2_IRQn 1 */
 260:Src/stm32f4xx_it.c **** 
 261:Src/stm32f4xx_it.c ****   /* USER CODE END DMA2_Stream2_IRQn 1 */
 262:Src/stm32f4xx_it.c **** }
 370              		.loc 1 262 1 is_stmt 0 view .LVU40
 371 0008 08BD     		pop	{r3, pc}
 372              	.L38:
 373 000a 00BF     		.align	2
 374              	.L37:
 375 000c 00000000 		.word	hdma_usart1_rx
 376              		.cfi_endproc
 377              	.LFE145:
 379              		.section	.text.DMA2_Stream7_IRQHandler,"ax",%progbits
 380              		.align	1
 381              		.global	DMA2_Stream7_IRQHandler
 382              		.syntax unified
 383              		.thumb
 384              		.thumb_func
 385              		.fpu fpv4-sp-d16
 387              	DMA2_Stream7_IRQHandler:
 388              	.LFB146:
ARM GAS  C:\Users\luoha\AppData\Local\Temp\ccjHGCHb.s 			page 12


 263:Src/stm32f4xx_it.c **** 
 264:Src/stm32f4xx_it.c **** /**
 265:Src/stm32f4xx_it.c ****   * @brief This function handles DMA2 stream7 global interrupt.
 266:Src/stm32f4xx_it.c ****   */
 267:Src/stm32f4xx_it.c **** void DMA2_Stream7_IRQHandler(void)
 268:Src/stm32f4xx_it.c **** {
 389              		.loc 1 268 1 is_stmt 1 view -0
 390              		.cfi_startproc
 391              		@ args = 0, pretend = 0, frame = 0
 392              		@ frame_needed = 0, uses_anonymous_args = 0
 393 0000 08B5     		push	{r3, lr}
 394              	.LCFI7:
 395              		.cfi_def_cfa_offset 8
 396              		.cfi_offset 3, -8
 397              		.cfi_offset 14, -4
 269:Src/stm32f4xx_it.c ****   /* USER CODE BEGIN DMA2_Stream7_IRQn 0 */
 270:Src/stm32f4xx_it.c **** 
 271:Src/stm32f4xx_it.c ****   /* USER CODE END DMA2_Stream7_IRQn 0 */
 272:Src/stm32f4xx_it.c ****   HAL_DMA_IRQHandler(&hdma_usart1_tx);
 398              		.loc 1 272 3 view .LVU42
 399 0002 0248     		ldr	r0, .L41
 400 0004 FFF7FEFF 		bl	HAL_DMA_IRQHandler
 401              	.LVL7:
 273:Src/stm32f4xx_it.c ****   /* USER CODE BEGIN DMA2_Stream7_IRQn 1 */
 274:Src/stm32f4xx_it.c **** 
 275:Src/stm32f4xx_it.c ****   /* USER CODE END DMA2_Stream7_IRQn 1 */
 276:Src/stm32f4xx_it.c **** }
 402              		.loc 1 276 1 is_stmt 0 view .LVU43
 403 0008 08BD     		pop	{r3, pc}
 404              	.L42:
 405 000a 00BF     		.align	2
 406              	.L41:
 407 000c 00000000 		.word	hdma_usart1_tx
 408              		.cfi_endproc
 409              	.LFE146:
 411              		.text
 412              	.Letext0:
 413              		.file 2 "e:\\gnu tools arm embedded\\9 2019-q4-major\\arm-none-eabi\\include\\machine\\_default_ty
 414              		.file 3 "e:\\gnu tools arm embedded\\9 2019-q4-major\\arm-none-eabi\\include\\sys\\_stdint.h"
 415              		.file 4 "Drivers/CMSIS/Include/core_cm4.h"
 416              		.file 5 "Drivers/CMSIS/Device/ST/STM32F4xx/Include/system_stm32f4xx.h"
 417              		.file 6 "Drivers/CMSIS/Device/ST/STM32F4xx/Include/stm32f407xx.h"
 418              		.file 7 "Drivers/STM32F4xx_HAL_Driver/Inc/stm32f4xx_hal_def.h"
 419              		.file 8 "Drivers/STM32F4xx_HAL_Driver/Inc/stm32f4xx_hal_dma.h"
 420              		.file 9 "Drivers/STM32F4xx_HAL_Driver/Inc/stm32f4xx_hal_i2c.h"
 421              		.file 10 "Drivers/STM32F4xx_HAL_Driver/Inc/stm32f4xx_hal_tim.h"
 422              		.file 11 "Drivers/STM32F4xx_HAL_Driver/Inc/stm32f4xx_hal_uart.h"
 423              		.file 12 "Drivers/STM32F4xx_HAL_Driver/Inc/stm32f4xx_hal.h"
 424              		.file 13 "e:\\gnu tools arm embedded\\9 2019-q4-major\\arm-none-eabi\\include\\sys\\lock.h"
 425              		.file 14 "e:\\gnu tools arm embedded\\9 2019-q4-major\\arm-none-eabi\\include\\sys\\_types.h"
 426              		.file 15 "e:\\gnu tools arm embedded\\9 2019-q4-major\\lib\\gcc\\arm-none-eabi\\9.2.1\\include\\st
 427              		.file 16 "e:\\gnu tools arm embedded\\9 2019-q4-major\\arm-none-eabi\\include\\sys\\reent.h"
 428              		.file 17 "Modules/include/utils.h"
ARM GAS  C:\Users\luoha\AppData\Local\Temp\ccjHGCHb.s 			page 13

