ARM GAS  C:\Users\luoha\AppData\Local\Temp\cctfed2n.s 			page 1


   1              		.cpu cortex-m4
   2              		.eabi_attribute 27, 1
   3              		.eabi_attribute 28, 1
   4              		.eabi_attribute 20, 1
   5              		.eabi_attribute 21, 1
   6              		.eabi_attribute 23, 3
   7              		.eabi_attribute 24, 1
   8              		.eabi_attribute 25, 1
   9              		.eabi_attribute 26, 1
  10              		.eabi_attribute 30, 1
  11              		.eabi_attribute 34, 1
  12              		.eabi_attribute 18, 4
  13              		.file	"uart4.c"
  14              		.text
  15              	.Ltext0:
  16              		.cfi_sections	.debug_frame
  17              		.section	.text.Uart4Init,"ax",%progbits
  18              		.align	1
  19              		.global	Uart4Init
  20              		.arch armv7e-m
  21              		.syntax unified
  22              		.thumb
  23              		.thumb_func
  24              		.fpu fpv4-sp-d16
  26              	Uart4Init:
  27              	.LFB2730:
  28              		.file 1 "Modules/src/uart4.c"
   1:Modules/src/uart4.c **** #include "uart4.h"
   2:Modules/src/uart4.c **** 
   3:Modules/src/uart4.c **** void Uart4Init(void) {
  29              		.loc 1 3 22 view -0
  30              		.cfi_startproc
  31              		@ args = 0, pretend = 0, frame = 0
  32              		@ frame_needed = 0, uses_anonymous_args = 0
  33 0000 08B5     		push	{r3, lr}
  34              	.LCFI0:
  35              		.cfi_def_cfa_offset 8
  36              		.cfi_offset 3, -8
  37              		.cfi_offset 14, -4
   4:Modules/src/uart4.c ****     //使能IDLE中断
   5:Modules/src/uart4.c ****     __HAL_UART_ENABLE_IT(&huart4, UART_IT_IDLE);
  38              		.loc 1 5 5 view .LVU1
  39 0002 0548     		ldr	r0, .L3
  40 0004 0268     		ldr	r2, [r0]
  41 0006 D368     		ldr	r3, [r2, #12]
  42 0008 43F01003 		orr	r3, r3, #16
  43 000c D360     		str	r3, [r2, #12]
   6:Modules/src/uart4.c ****     //使能接收中断
   7:Modules/src/uart4.c ****     HAL_UART_Receive_DMA(&huart4, rx_buffer, RX_BUFFER_SIZE);
  44              		.loc 1 7 5 view .LVU2
  45 000e 8022     		movs	r2, #128
  46 0010 0249     		ldr	r1, .L3+4
  47 0012 FFF7FEFF 		bl	HAL_UART_Receive_DMA
  48              	.LVL0:
   8:Modules/src/uart4.c **** }
  49              		.loc 1 8 1 is_stmt 0 view .LVU3
  50 0016 08BD     		pop	{r3, pc}
ARM GAS  C:\Users\luoha\AppData\Local\Temp\cctfed2n.s 			page 2


  51              	.L4:
  52              		.align	2
  53              	.L3:
  54 0018 00000000 		.word	huart4
  55 001c 00000000 		.word	.LANCHOR0
  56              		.cfi_endproc
  57              	.LFE2730:
  59              		.section	.text.DMA1_Stream2_IRQHandler,"ax",%progbits
  60              		.align	1
  61              		.global	DMA1_Stream2_IRQHandler
  62              		.syntax unified
  63              		.thumb
  64              		.thumb_func
  65              		.fpu fpv4-sp-d16
  67              	DMA1_Stream2_IRQHandler:
  68              	.LFB2732:
   9:Modules/src/uart4.c **** 
  10:Modules/src/uart4.c **** void UART4_IRQHandler(void) {
  11:Modules/src/uart4.c ****     if (__HAL_UART_GET_FLAG(&huart4, UART_FLAG_IDLE) != RESET) {
  12:Modules/src/uart4.c ****         __HAL_UART_CLEAR_IDLEFLAG(&huart4);
  13:Modules/src/uart4.c ****         UartRxCheck();
  14:Modules/src/uart4.c ****     // }
  15:Modules/src/uart4.c ****     } else {
  16:Modules/src/uart4.c ****         HAL_UART_IRQHandler(&huart4);
  17:Modules/src/uart4.c ****         // printf("UART4_IRQHandler");
  18:Modules/src/uart4.c ****         // __HAL_UART_CLEAR_IDLEFLAG(&huart4);
  19:Modules/src/uart4.c ****         // __HAL_UART_DISABLE_IT(&huart4, UART_IT_TC);
  20:Modules/src/uart4.c ****         //  huart4.gState = HAL_UART_STATE_READY;
  21:Modules/src/uart4.c ****     }
  22:Modules/src/uart4.c **** }
  23:Modules/src/uart4.c **** 
  24:Modules/src/uart4.c **** void DMA1_Stream2_IRQHandler(void) {
  69              		.loc 1 24 36 is_stmt 1 view -0
  70              		.cfi_startproc
  71              		@ args = 0, pretend = 0, frame = 0
  72              		@ frame_needed = 0, uses_anonymous_args = 0
  73 0000 08B5     		push	{r3, lr}
  74              	.LCFI1:
  75              		.cfi_def_cfa_offset 8
  76              		.cfi_offset 3, -8
  77              		.cfi_offset 14, -4
  25:Modules/src/uart4.c ****     HAL_DMA_IRQHandler(huart4.hdmarx);
  78              		.loc 1 25 5 view .LVU5
  79 0002 024B     		ldr	r3, .L7
  80 0004 586B     		ldr	r0, [r3, #52]
  81 0006 FFF7FEFF 		bl	HAL_DMA_IRQHandler
  82              	.LVL1:
  26:Modules/src/uart4.c ****     // HAL_DMA_IRQHandler(&hdma_uart4_rx);
  27:Modules/src/uart4.c ****     // // char buffer[] = "DMA1_Stream2_IRQHandler\n";
  28:Modules/src/uart4.c ****     // // HAL_UART_Transmit(&huart1, (uint8_t*)buffer, sizeof(buffer), 1000);
  29:Modules/src/uart4.c **** 
  30:Modules/src/uart4.c ****     // if(__HAL_DMA_GET_FLAG(huart4.hdmarx, __HAL_DMA_GET_HT_FLAG_INDEX(huart4.hdmarx))!= RESET) {
  31:Modules/src/uart4.c ****     //     __HAL_DMA_CLEAR_FLAG(huart4.hdmarx, __HAL_DMA_GET_HT_FLAG_INDEX(huart4.hdmarx));
  32:Modules/src/uart4.c **** 
  33:Modules/src/uart4.c ****     //     char buffer[] = "HT\n";
  34:Modules/src/uart4.c ****     //     HAL_UART_Transmit(&huart1, (uint8_t*)buffer, sizeof(buffer), 1000);
  35:Modules/src/uart4.c ****     // } else {
ARM GAS  C:\Users\luoha\AppData\Local\Temp\cctfed2n.s 			page 3


  36:Modules/src/uart4.c ****     //     HAL_DMA_IRQHandler(huart4.hdmarx);
  37:Modules/src/uart4.c ****     // }
  38:Modules/src/uart4.c **** }
  83              		.loc 1 38 1 is_stmt 0 view .LVU6
  84 000a 08BD     		pop	{r3, pc}
  85              	.L8:
  86              		.align	2
  87              	.L7:
  88 000c 00000000 		.word	huart4
  89              		.cfi_endproc
  90              	.LFE2732:
  92              		.section	.text.DMA1_Stream4_IRQHandler,"ax",%progbits
  93              		.align	1
  94              		.global	DMA1_Stream4_IRQHandler
  95              		.syntax unified
  96              		.thumb
  97              		.thumb_func
  98              		.fpu fpv4-sp-d16
 100              	DMA1_Stream4_IRQHandler:
 101              	.LFB2733:
  39:Modules/src/uart4.c **** 
  40:Modules/src/uart4.c **** void DMA1_Stream4_IRQHandler(void) {
 102              		.loc 1 40 36 is_stmt 1 view -0
 103              		.cfi_startproc
 104              		@ args = 0, pretend = 0, frame = 0
 105              		@ frame_needed = 0, uses_anonymous_args = 0
 106 0000 08B5     		push	{r3, lr}
 107              	.LCFI2:
 108              		.cfi_def_cfa_offset 8
 109              		.cfi_offset 3, -8
 110              		.cfi_offset 14, -4
  41:Modules/src/uart4.c ****      HAL_DMA_IRQHandler(huart4.hdmatx);
 111              		.loc 1 41 6 view .LVU8
 112 0002 024B     		ldr	r3, .L11
 113 0004 186B     		ldr	r0, [r3, #48]
 114 0006 FFF7FEFF 		bl	HAL_DMA_IRQHandler
 115              	.LVL2:
  42:Modules/src/uart4.c ****     // HAL_DMA_IRQHandler(&hdma_uart4_tx);
  43:Modules/src/uart4.c **** }
 116              		.loc 1 43 1 is_stmt 0 view .LVU9
 117 000a 08BD     		pop	{r3, pc}
 118              	.L12:
 119              		.align	2
 120              	.L11:
 121 000c 00000000 		.word	huart4
 122              		.cfi_endproc
 123              	.LFE2733:
 125              		.section	.rodata.MavlinkParse.str1.4,"aMS",%progbits,1
 126              		.align	2
 127              	.LC0:
 128 0000 3D3D3D3D 		.ascii	"===============\015\000"
 128      3D3D3D3D 
 128      3D3D3D3D 
 128      3D3D3D0D 
 128      00
 129 0011 000000   		.align	2
 130              	.LC1:
ARM GAS  C:\Users\luoha\AppData\Local\Temp\cctfed2n.s 			page 4


 131 0014 25750D0A 		.ascii	"%u\015\012\000"
 131      00
 132              		.section	.text.MavlinkParse,"ax",%progbits
 133              		.align	1
 134              		.global	MavlinkParse
 135              		.syntax unified
 136              		.thumb
 137              		.thumb_func
 138              		.fpu fpv4-sp-d16
 140              	MavlinkParse:
 141              	.LVL3:
 142              	.LFB2737:
  44:Modules/src/uart4.c **** 
  45:Modules/src/uart4.c **** void HAL_UART_RxCpltCallback(UART_HandleTypeDef *huart) {
  46:Modules/src/uart4.c ****     if (huart->Instance == UART4) {
  47:Modules/src/uart4.c ****         UartRxCheck();
  48:Modules/src/uart4.c ****     }
  49:Modules/src/uart4.c **** }
  50:Modules/src/uart4.c **** 
  51:Modules/src/uart4.c **** void HAL_UART_RxHalfCpltCallback(UART_HandleTypeDef *huart) {
  52:Modules/src/uart4.c ****     if (huart->Instance == UART4) {
  53:Modules/src/uart4.c ****         UartRxCheck();
  54:Modules/src/uart4.c ****     }
  55:Modules/src/uart4.c **** }
  56:Modules/src/uart4.c **** 
  57:Modules/src/uart4.c **** void UartRxCheck(void) {
  58:Modules/src/uart4.c ****     static size_t old_pos;
  59:Modules/src/uart4.c ****     size_t pos;
  60:Modules/src/uart4.c **** 
  61:Modules/src/uart4.c ****     /* Calculate current position in buffer */
  62:Modules/src/uart4.c ****     pos = RX_BUFFER_SIZE - __HAL_DMA_GET_COUNTER(huart4.hdmarx);
  63:Modules/src/uart4.c **** 
  64:Modules/src/uart4.c ****     // char buffer[10];
  65:Modules/src/uart4.c ****     // itoa(old_pos, buffer, 10);
  66:Modules/src/uart4.c ****     // HAL_UART_Transmit(&huart1, (uint8_t *)buffer, sizeof(buffer), 1000);
  67:Modules/src/uart4.c **** 
  68:Modules/src/uart4.c ****     if (pos != old_pos) {    /* Check change in received data */
  69:Modules/src/uart4.c ****         if (pos > old_pos) { /* Current position is over previous one */
  70:Modules/src/uart4.c ****             /* We are in "linear" mode */
  71:Modules/src/uart4.c ****             /* Process data directly by subtracting "pointers" */
  72:Modules/src/uart4.c ****             MavlinkParse(&rx_buffer[old_pos], pos - old_pos);
  73:Modules/src/uart4.c ****         } else {
  74:Modules/src/uart4.c ****             /* We are in "overflow" mode */
  75:Modules/src/uart4.c ****             /* First process data to the end of buffer */
  76:Modules/src/uart4.c ****             MavlinkParse(&rx_buffer[old_pos], RX_BUFFER_SIZE - old_pos);
  77:Modules/src/uart4.c ****             /* Check and continue with beginning of buffer */
  78:Modules/src/uart4.c ****             if (pos > 0) {
  79:Modules/src/uart4.c ****                 MavlinkParse(&rx_buffer[0], pos);
  80:Modules/src/uart4.c ****             }
  81:Modules/src/uart4.c ****         }
  82:Modules/src/uart4.c ****     }
  83:Modules/src/uart4.c ****     old_pos = pos; /* Save current position as old */
  84:Modules/src/uart4.c **** 
  85:Modules/src/uart4.c ****     /* Check and manually update if we reached end of buffer */
  86:Modules/src/uart4.c ****     if (old_pos == RX_BUFFER_SIZE) {
  87:Modules/src/uart4.c ****         old_pos = 0;
  88:Modules/src/uart4.c ****     }
ARM GAS  C:\Users\luoha\AppData\Local\Temp\cctfed2n.s 			page 5


  89:Modules/src/uart4.c **** }
  90:Modules/src/uart4.c **** 
  91:Modules/src/uart4.c **** void MavlinkParse(uint8_t *buffer, size_t len) {
 143              		.loc 1 91 48 is_stmt 1 view -0
 144              		.cfi_startproc
 145              		@ args = 0, pretend = 0, frame = 568
 146              		@ frame_needed = 0, uses_anonymous_args = 0
 147              		.loc 1 91 48 is_stmt 0 view .LVU11
 148 0000 2DE9F04F 		push	{r4, r5, r6, r7, r8, r9, r10, fp, lr}
 149              	.LCFI3:
 150              		.cfi_def_cfa_offset 36
 151              		.cfi_offset 4, -36
 152              		.cfi_offset 5, -32
 153              		.cfi_offset 6, -28
 154              		.cfi_offset 7, -24
 155              		.cfi_offset 8, -20
 156              		.cfi_offset 9, -16
 157              		.cfi_offset 10, -12
 158              		.cfi_offset 11, -8
 159              		.cfi_offset 14, -4
 160 0004 ADF50F7D 		sub	sp, sp, #572
 161              	.LCFI4:
 162              		.cfi_def_cfa_offset 608
 163 0008 0290     		str	r0, [sp, #8]
 164 000a 0191     		str	r1, [sp, #4]
  92:Modules/src/uart4.c ****     for (size_t i = 0; i < len; i++) {
 165              		.loc 1 92 5 is_stmt 1 view .LVU12
 166              	.LBB205:
 167              		.loc 1 92 10 view .LVU13
 168              	.LVL4:
 169              		.loc 1 92 17 is_stmt 0 view .LVU14
 170 000c 0026     		movs	r6, #0
 171 000e B246     		mov	r10, r6
 172              		.loc 1 92 5 view .LVU15
 173 0010 ADE0     		b	.L14
 174              	.LVL5:
 175              	.L30:
 176              	.LBB206:
 177              	.LBB207:
 178              	.LBB208:
 179              	.LBB209:
 180              	.LBB210:
 181              		.file 2 "Modules/include/MAVLink/common/../mavlink_helpers.h"
   1:Modules/include/MAVLink/common/../mavlink_helpers.h **** #pragma once
   2:Modules/include/MAVLink/common/../mavlink_helpers.h **** 
   3:Modules/include/MAVLink/common/../mavlink_helpers.h **** #include "string.h"
   4:Modules/include/MAVLink/common/../mavlink_helpers.h **** #include "checksum.h"
   5:Modules/include/MAVLink/common/../mavlink_helpers.h **** #include "mavlink_types.h"
   6:Modules/include/MAVLink/common/../mavlink_helpers.h **** #include "mavlink_conversions.h"
   7:Modules/include/MAVLink/common/../mavlink_helpers.h **** #include <stdio.h>
   8:Modules/include/MAVLink/common/../mavlink_helpers.h **** 
   9:Modules/include/MAVLink/common/../mavlink_helpers.h **** #ifndef MAVLINK_HELPER
  10:Modules/include/MAVLink/common/../mavlink_helpers.h **** #define MAVLINK_HELPER
  11:Modules/include/MAVLink/common/../mavlink_helpers.h **** #endif
  12:Modules/include/MAVLink/common/../mavlink_helpers.h **** 
  13:Modules/include/MAVLink/common/../mavlink_helpers.h **** #include "mavlink_sha256.h"
  14:Modules/include/MAVLink/common/../mavlink_helpers.h **** 
ARM GAS  C:\Users\luoha\AppData\Local\Temp\cctfed2n.s 			page 6


  15:Modules/include/MAVLink/common/../mavlink_helpers.h **** #ifdef MAVLINK_USE_CXX_NAMESPACE
  16:Modules/include/MAVLink/common/../mavlink_helpers.h **** namespace mavlink {
  17:Modules/include/MAVLink/common/../mavlink_helpers.h **** #endif
  18:Modules/include/MAVLink/common/../mavlink_helpers.h **** 
  19:Modules/include/MAVLink/common/../mavlink_helpers.h **** /*
  20:Modules/include/MAVLink/common/../mavlink_helpers.h ****  * Internal function to give access to the channel status for each channel
  21:Modules/include/MAVLink/common/../mavlink_helpers.h ****  */
  22:Modules/include/MAVLink/common/../mavlink_helpers.h **** #ifndef MAVLINK_GET_CHANNEL_STATUS
  23:Modules/include/MAVLink/common/../mavlink_helpers.h **** MAVLINK_HELPER mavlink_status_t* mavlink_get_channel_status(uint8_t chan)
  24:Modules/include/MAVLink/common/../mavlink_helpers.h **** {
  25:Modules/include/MAVLink/common/../mavlink_helpers.h **** #ifdef MAVLINK_EXTERNAL_RX_STATUS
  26:Modules/include/MAVLink/common/../mavlink_helpers.h **** 	// No m_mavlink_status array defined in function,
  27:Modules/include/MAVLink/common/../mavlink_helpers.h **** 	// has to be defined externally
  28:Modules/include/MAVLink/common/../mavlink_helpers.h **** #else
  29:Modules/include/MAVLink/common/../mavlink_helpers.h **** 	static mavlink_status_t m_mavlink_status[MAVLINK_COMM_NUM_BUFFERS];
  30:Modules/include/MAVLink/common/../mavlink_helpers.h **** #endif
  31:Modules/include/MAVLink/common/../mavlink_helpers.h **** 	return &m_mavlink_status[chan];
  32:Modules/include/MAVLink/common/../mavlink_helpers.h **** }
  33:Modules/include/MAVLink/common/../mavlink_helpers.h **** #endif
  34:Modules/include/MAVLink/common/../mavlink_helpers.h **** 
  35:Modules/include/MAVLink/common/../mavlink_helpers.h **** /*
  36:Modules/include/MAVLink/common/../mavlink_helpers.h ****  * Internal function to give access to the channel buffer for each channel
  37:Modules/include/MAVLink/common/../mavlink_helpers.h ****  */
  38:Modules/include/MAVLink/common/../mavlink_helpers.h **** #ifndef MAVLINK_GET_CHANNEL_BUFFER
  39:Modules/include/MAVLink/common/../mavlink_helpers.h **** MAVLINK_HELPER mavlink_message_t* mavlink_get_channel_buffer(uint8_t chan)
  40:Modules/include/MAVLink/common/../mavlink_helpers.h **** {
  41:Modules/include/MAVLink/common/../mavlink_helpers.h **** 	
  42:Modules/include/MAVLink/common/../mavlink_helpers.h **** #ifdef MAVLINK_EXTERNAL_RX_BUFFER
  43:Modules/include/MAVLink/common/../mavlink_helpers.h **** 	// No m_mavlink_buffer array defined in function,
  44:Modules/include/MAVLink/common/../mavlink_helpers.h **** 	// has to be defined externally
  45:Modules/include/MAVLink/common/../mavlink_helpers.h **** #else
  46:Modules/include/MAVLink/common/../mavlink_helpers.h **** 	static mavlink_message_t m_mavlink_buffer[MAVLINK_COMM_NUM_BUFFERS];
  47:Modules/include/MAVLink/common/../mavlink_helpers.h **** #endif
  48:Modules/include/MAVLink/common/../mavlink_helpers.h **** 	return &m_mavlink_buffer[chan];
  49:Modules/include/MAVLink/common/../mavlink_helpers.h **** }
  50:Modules/include/MAVLink/common/../mavlink_helpers.h **** #endif // MAVLINK_GET_CHANNEL_BUFFER
  51:Modules/include/MAVLink/common/../mavlink_helpers.h **** 
  52:Modules/include/MAVLink/common/../mavlink_helpers.h **** /* Enable this option to check the length of each message.
  53:Modules/include/MAVLink/common/../mavlink_helpers.h ****     This allows invalid messages to be caught much sooner. Use if the transmission
  54:Modules/include/MAVLink/common/../mavlink_helpers.h ****     medium is prone to missing (or extra) characters (e.g. a radio that fades in
  55:Modules/include/MAVLink/common/../mavlink_helpers.h ****     and out). Only use if the channel will only contain messages types listed in
  56:Modules/include/MAVLink/common/../mavlink_helpers.h ****     the headers.
  57:Modules/include/MAVLink/common/../mavlink_helpers.h **** */
  58:Modules/include/MAVLink/common/../mavlink_helpers.h **** //#define MAVLINK_CHECK_MESSAGE_LENGTH
  59:Modules/include/MAVLink/common/../mavlink_helpers.h **** 
  60:Modules/include/MAVLink/common/../mavlink_helpers.h **** /**
  61:Modules/include/MAVLink/common/../mavlink_helpers.h ****  * @brief Reset the status of a channel.
  62:Modules/include/MAVLink/common/../mavlink_helpers.h ****  */
  63:Modules/include/MAVLink/common/../mavlink_helpers.h **** MAVLINK_HELPER void mavlink_reset_channel_status(uint8_t chan)
  64:Modules/include/MAVLink/common/../mavlink_helpers.h **** {
  65:Modules/include/MAVLink/common/../mavlink_helpers.h **** 	mavlink_status_t *status = mavlink_get_channel_status(chan);
  66:Modules/include/MAVLink/common/../mavlink_helpers.h **** 	status->parse_state = MAVLINK_PARSE_STATE_IDLE;
  67:Modules/include/MAVLink/common/../mavlink_helpers.h **** }
  68:Modules/include/MAVLink/common/../mavlink_helpers.h **** 
  69:Modules/include/MAVLink/common/../mavlink_helpers.h **** /**
  70:Modules/include/MAVLink/common/../mavlink_helpers.h ****  * @brief create a signature block for a packet
  71:Modules/include/MAVLink/common/../mavlink_helpers.h ****  */
ARM GAS  C:\Users\luoha\AppData\Local\Temp\cctfed2n.s 			page 7


  72:Modules/include/MAVLink/common/../mavlink_helpers.h **** MAVLINK_HELPER uint8_t mavlink_sign_packet(mavlink_signing_t *signing,
  73:Modules/include/MAVLink/common/../mavlink_helpers.h **** 					   uint8_t signature[MAVLINK_SIGNATURE_BLOCK_LEN],
  74:Modules/include/MAVLink/common/../mavlink_helpers.h **** 					   const uint8_t *header, uint8_t header_len,
  75:Modules/include/MAVLink/common/../mavlink_helpers.h **** 					   const uint8_t *packet, uint8_t packet_len,
  76:Modules/include/MAVLink/common/../mavlink_helpers.h **** 					   const uint8_t crc[2])
  77:Modules/include/MAVLink/common/../mavlink_helpers.h **** {
  78:Modules/include/MAVLink/common/../mavlink_helpers.h **** 	mavlink_sha256_ctx ctx;
  79:Modules/include/MAVLink/common/../mavlink_helpers.h **** 	union {
  80:Modules/include/MAVLink/common/../mavlink_helpers.h **** 	    uint64_t t64;
  81:Modules/include/MAVLink/common/../mavlink_helpers.h **** 	    uint8_t t8[8];
  82:Modules/include/MAVLink/common/../mavlink_helpers.h **** 	} tstamp;
  83:Modules/include/MAVLink/common/../mavlink_helpers.h **** 	if (signing == NULL || !(signing->flags & MAVLINK_SIGNING_FLAG_SIGN_OUTGOING)) {
  84:Modules/include/MAVLink/common/../mavlink_helpers.h **** 	    return 0;
  85:Modules/include/MAVLink/common/../mavlink_helpers.h **** 	}
  86:Modules/include/MAVLink/common/../mavlink_helpers.h **** 	signature[0] = signing->link_id;
  87:Modules/include/MAVLink/common/../mavlink_helpers.h **** 	tstamp.t64 = signing->timestamp;
  88:Modules/include/MAVLink/common/../mavlink_helpers.h **** 	memcpy(&signature[1], tstamp.t8, 6);
  89:Modules/include/MAVLink/common/../mavlink_helpers.h **** 	signing->timestamp++;
  90:Modules/include/MAVLink/common/../mavlink_helpers.h **** 	
  91:Modules/include/MAVLink/common/../mavlink_helpers.h **** 	mavlink_sha256_init(&ctx);
  92:Modules/include/MAVLink/common/../mavlink_helpers.h **** 	mavlink_sha256_update(&ctx, signing->secret_key, sizeof(signing->secret_key));
  93:Modules/include/MAVLink/common/../mavlink_helpers.h **** 	mavlink_sha256_update(&ctx, header, header_len);
  94:Modules/include/MAVLink/common/../mavlink_helpers.h **** 	mavlink_sha256_update(&ctx, packet, packet_len);
  95:Modules/include/MAVLink/common/../mavlink_helpers.h **** 	mavlink_sha256_update(&ctx, crc, 2);
  96:Modules/include/MAVLink/common/../mavlink_helpers.h **** 	mavlink_sha256_update(&ctx, signature, 7);
  97:Modules/include/MAVLink/common/../mavlink_helpers.h **** 	mavlink_sha256_final_48(&ctx, &signature[7]);
  98:Modules/include/MAVLink/common/../mavlink_helpers.h **** 	
  99:Modules/include/MAVLink/common/../mavlink_helpers.h **** 	return MAVLINK_SIGNATURE_BLOCK_LEN;
 100:Modules/include/MAVLink/common/../mavlink_helpers.h **** }
 101:Modules/include/MAVLink/common/../mavlink_helpers.h **** 
 102:Modules/include/MAVLink/common/../mavlink_helpers.h **** /**
 103:Modules/include/MAVLink/common/../mavlink_helpers.h ****  * @brief Trim payload of any trailing zero-populated bytes (MAVLink 2 only).
 104:Modules/include/MAVLink/common/../mavlink_helpers.h ****  *
 105:Modules/include/MAVLink/common/../mavlink_helpers.h ****  * @param payload Serialised payload buffer.
 106:Modules/include/MAVLink/common/../mavlink_helpers.h ****  * @param length Length of full-width payload buffer.
 107:Modules/include/MAVLink/common/../mavlink_helpers.h ****  * @return Length of payload after zero-filled bytes are trimmed.
 108:Modules/include/MAVLink/common/../mavlink_helpers.h ****  */
 109:Modules/include/MAVLink/common/../mavlink_helpers.h **** MAVLINK_HELPER uint8_t _mav_trim_payload(const char *payload, uint8_t length)
 110:Modules/include/MAVLink/common/../mavlink_helpers.h **** {
 111:Modules/include/MAVLink/common/../mavlink_helpers.h **** 	while (length > 1 && payload[length-1] == 0) {
 112:Modules/include/MAVLink/common/../mavlink_helpers.h **** 		length--;
 113:Modules/include/MAVLink/common/../mavlink_helpers.h **** 	}
 114:Modules/include/MAVLink/common/../mavlink_helpers.h **** 	return length;
 115:Modules/include/MAVLink/common/../mavlink_helpers.h **** }
 116:Modules/include/MAVLink/common/../mavlink_helpers.h **** 
 117:Modules/include/MAVLink/common/../mavlink_helpers.h **** /**
 118:Modules/include/MAVLink/common/../mavlink_helpers.h ****  * @brief check a signature block for a packet
 119:Modules/include/MAVLink/common/../mavlink_helpers.h ****  */
 120:Modules/include/MAVLink/common/../mavlink_helpers.h **** MAVLINK_HELPER bool mavlink_signature_check(mavlink_signing_t *signing,
 121:Modules/include/MAVLink/common/../mavlink_helpers.h **** 					    mavlink_signing_streams_t *signing_streams,
 122:Modules/include/MAVLink/common/../mavlink_helpers.h **** 					    const mavlink_message_t *msg)
 123:Modules/include/MAVLink/common/../mavlink_helpers.h **** {
 124:Modules/include/MAVLink/common/../mavlink_helpers.h **** 	if (signing == NULL) {
 125:Modules/include/MAVLink/common/../mavlink_helpers.h **** 		return true;
 126:Modules/include/MAVLink/common/../mavlink_helpers.h **** 	}
 127:Modules/include/MAVLink/common/../mavlink_helpers.h ****         const uint8_t *p = (const uint8_t *)&msg->magic;
 128:Modules/include/MAVLink/common/../mavlink_helpers.h **** 	const uint8_t *psig = msg->signature;
ARM GAS  C:\Users\luoha\AppData\Local\Temp\cctfed2n.s 			page 8


 129:Modules/include/MAVLink/common/../mavlink_helpers.h ****         const uint8_t *incoming_signature = psig+7;
 130:Modules/include/MAVLink/common/../mavlink_helpers.h **** 	mavlink_sha256_ctx ctx;
 131:Modules/include/MAVLink/common/../mavlink_helpers.h **** 	uint8_t signature[6];
 132:Modules/include/MAVLink/common/../mavlink_helpers.h **** 	uint16_t i;
 133:Modules/include/MAVLink/common/../mavlink_helpers.h ****         
 134:Modules/include/MAVLink/common/../mavlink_helpers.h **** 	mavlink_sha256_init(&ctx);
 135:Modules/include/MAVLink/common/../mavlink_helpers.h **** 	mavlink_sha256_update(&ctx, signing->secret_key, sizeof(signing->secret_key));
 136:Modules/include/MAVLink/common/../mavlink_helpers.h **** 	mavlink_sha256_update(&ctx, p, MAVLINK_CORE_HEADER_LEN+1+msg->len);
 137:Modules/include/MAVLink/common/../mavlink_helpers.h **** 	mavlink_sha256_update(&ctx, msg->ck, 2);
 138:Modules/include/MAVLink/common/../mavlink_helpers.h **** 	mavlink_sha256_update(&ctx, psig, 1+6);
 139:Modules/include/MAVLink/common/../mavlink_helpers.h **** 	mavlink_sha256_final_48(&ctx, signature);
 140:Modules/include/MAVLink/common/../mavlink_helpers.h **** 	if (memcmp(signature, incoming_signature, 6) != 0) {
 141:Modules/include/MAVLink/common/../mavlink_helpers.h **** 		return false;
 142:Modules/include/MAVLink/common/../mavlink_helpers.h **** 	}
 143:Modules/include/MAVLink/common/../mavlink_helpers.h **** 
 144:Modules/include/MAVLink/common/../mavlink_helpers.h **** 	// now check timestamp
 145:Modules/include/MAVLink/common/../mavlink_helpers.h **** 	union tstamp {
 146:Modules/include/MAVLink/common/../mavlink_helpers.h **** 	    uint64_t t64;
 147:Modules/include/MAVLink/common/../mavlink_helpers.h **** 	    uint8_t t8[8];
 148:Modules/include/MAVLink/common/../mavlink_helpers.h **** 	} tstamp;
 149:Modules/include/MAVLink/common/../mavlink_helpers.h **** 	uint8_t link_id = psig[0];
 150:Modules/include/MAVLink/common/../mavlink_helpers.h **** 	tstamp.t64 = 0;
 151:Modules/include/MAVLink/common/../mavlink_helpers.h **** 	memcpy(tstamp.t8, psig+1, 6);
 152:Modules/include/MAVLink/common/../mavlink_helpers.h **** 
 153:Modules/include/MAVLink/common/../mavlink_helpers.h **** 	if (signing_streams == NULL) {
 154:Modules/include/MAVLink/common/../mavlink_helpers.h **** 		return false;
 155:Modules/include/MAVLink/common/../mavlink_helpers.h **** 	}
 156:Modules/include/MAVLink/common/../mavlink_helpers.h **** 	
 157:Modules/include/MAVLink/common/../mavlink_helpers.h **** 	// find stream
 158:Modules/include/MAVLink/common/../mavlink_helpers.h **** 	for (i=0; i<signing_streams->num_signing_streams; i++) {
 159:Modules/include/MAVLink/common/../mavlink_helpers.h **** 		if (msg->sysid == signing_streams->stream[i].sysid &&
 160:Modules/include/MAVLink/common/../mavlink_helpers.h **** 		    msg->compid == signing_streams->stream[i].compid &&
 161:Modules/include/MAVLink/common/../mavlink_helpers.h **** 		    link_id == signing_streams->stream[i].link_id) {
 162:Modules/include/MAVLink/common/../mavlink_helpers.h **** 			break;
 163:Modules/include/MAVLink/common/../mavlink_helpers.h **** 		}
 164:Modules/include/MAVLink/common/../mavlink_helpers.h **** 	}
 165:Modules/include/MAVLink/common/../mavlink_helpers.h **** 	if (i == signing_streams->num_signing_streams) {
 166:Modules/include/MAVLink/common/../mavlink_helpers.h **** 		if (signing_streams->num_signing_streams >= MAVLINK_MAX_SIGNING_STREAMS) {
 167:Modules/include/MAVLink/common/../mavlink_helpers.h **** 			// over max number of streams
 168:Modules/include/MAVLink/common/../mavlink_helpers.h **** 			return false;
 169:Modules/include/MAVLink/common/../mavlink_helpers.h **** 		}
 170:Modules/include/MAVLink/common/../mavlink_helpers.h **** 		// new stream. Only accept if timestamp is not more than 1 minute old
 171:Modules/include/MAVLink/common/../mavlink_helpers.h **** 		if (tstamp.t64 + 6000*1000UL < signing->timestamp) {
 172:Modules/include/MAVLink/common/../mavlink_helpers.h **** 			return false;
 173:Modules/include/MAVLink/common/../mavlink_helpers.h **** 		}
 174:Modules/include/MAVLink/common/../mavlink_helpers.h **** 		// add new stream
 175:Modules/include/MAVLink/common/../mavlink_helpers.h **** 		signing_streams->stream[i].sysid = msg->sysid;
 176:Modules/include/MAVLink/common/../mavlink_helpers.h **** 		signing_streams->stream[i].compid = msg->compid;
 177:Modules/include/MAVLink/common/../mavlink_helpers.h **** 		signing_streams->stream[i].link_id = link_id;
 178:Modules/include/MAVLink/common/../mavlink_helpers.h **** 		signing_streams->num_signing_streams++;
 179:Modules/include/MAVLink/common/../mavlink_helpers.h **** 	} else {
 180:Modules/include/MAVLink/common/../mavlink_helpers.h **** 		union tstamp last_tstamp;
 181:Modules/include/MAVLink/common/../mavlink_helpers.h **** 		last_tstamp.t64 = 0;
 182:Modules/include/MAVLink/common/../mavlink_helpers.h **** 		memcpy(last_tstamp.t8, signing_streams->stream[i].timestamp_bytes, 6);
 183:Modules/include/MAVLink/common/../mavlink_helpers.h **** 		if (tstamp.t64 <= last_tstamp.t64) {
 184:Modules/include/MAVLink/common/../mavlink_helpers.h **** 			// repeating old timestamp
 185:Modules/include/MAVLink/common/../mavlink_helpers.h **** 			return false;
ARM GAS  C:\Users\luoha\AppData\Local\Temp\cctfed2n.s 			page 9


 186:Modules/include/MAVLink/common/../mavlink_helpers.h **** 		}
 187:Modules/include/MAVLink/common/../mavlink_helpers.h **** 	}
 188:Modules/include/MAVLink/common/../mavlink_helpers.h **** 
 189:Modules/include/MAVLink/common/../mavlink_helpers.h **** 	// remember last timestamp
 190:Modules/include/MAVLink/common/../mavlink_helpers.h **** 	memcpy(signing_streams->stream[i].timestamp_bytes, psig+1, 6);
 191:Modules/include/MAVLink/common/../mavlink_helpers.h **** 
 192:Modules/include/MAVLink/common/../mavlink_helpers.h **** 	// our next timestamp must be at least this timestamp
 193:Modules/include/MAVLink/common/../mavlink_helpers.h **** 	if (tstamp.t64 > signing->timestamp) {
 194:Modules/include/MAVLink/common/../mavlink_helpers.h **** 		signing->timestamp = tstamp.t64;
 195:Modules/include/MAVLink/common/../mavlink_helpers.h **** 	}
 196:Modules/include/MAVLink/common/../mavlink_helpers.h **** 	return true;
 197:Modules/include/MAVLink/common/../mavlink_helpers.h **** }
 198:Modules/include/MAVLink/common/../mavlink_helpers.h **** 
 199:Modules/include/MAVLink/common/../mavlink_helpers.h **** 
 200:Modules/include/MAVLink/common/../mavlink_helpers.h **** /**
 201:Modules/include/MAVLink/common/../mavlink_helpers.h ****  * @brief Finalize a MAVLink message with channel assignment
 202:Modules/include/MAVLink/common/../mavlink_helpers.h ****  *
 203:Modules/include/MAVLink/common/../mavlink_helpers.h ****  * This function calculates the checksum and sets length and aircraft id correctly.
 204:Modules/include/MAVLink/common/../mavlink_helpers.h ****  * It assumes that the message id and the payload are already correctly set. This function
 205:Modules/include/MAVLink/common/../mavlink_helpers.h ****  * can also be used if the message header has already been written before (as in mavlink_msg_xxx_pa
 206:Modules/include/MAVLink/common/../mavlink_helpers.h ****  * instead of mavlink_msg_xxx_pack_headerless), it just introduces little extra overhead.
 207:Modules/include/MAVLink/common/../mavlink_helpers.h ****  *
 208:Modules/include/MAVLink/common/../mavlink_helpers.h ****  * @param msg Message to finalize
 209:Modules/include/MAVLink/common/../mavlink_helpers.h ****  * @param system_id Id of the sending (this) system, 1-127
 210:Modules/include/MAVLink/common/../mavlink_helpers.h ****  * @param length Message length
 211:Modules/include/MAVLink/common/../mavlink_helpers.h ****  */
 212:Modules/include/MAVLink/common/../mavlink_helpers.h **** MAVLINK_HELPER uint16_t mavlink_finalize_message_buffer(mavlink_message_t* msg, uint8_t system_id, 
 213:Modules/include/MAVLink/common/../mavlink_helpers.h **** 						      mavlink_status_t* status, uint8_t min_length, uint8_t length, uint8_t crc_extra)
 214:Modules/include/MAVLink/common/../mavlink_helpers.h **** {
 215:Modules/include/MAVLink/common/../mavlink_helpers.h **** 	bool mavlink1 = (status->flags & MAVLINK_STATUS_FLAG_OUT_MAVLINK1) != 0;
 216:Modules/include/MAVLink/common/../mavlink_helpers.h **** 	bool signing = 	(!mavlink1) && status->signing && (status->signing->flags & MAVLINK_SIGNING_FLAG_S
 217:Modules/include/MAVLink/common/../mavlink_helpers.h **** 	uint8_t signature_len = signing? MAVLINK_SIGNATURE_BLOCK_LEN : 0;
 218:Modules/include/MAVLink/common/../mavlink_helpers.h ****         uint8_t header_len = MAVLINK_CORE_HEADER_LEN+1;
 219:Modules/include/MAVLink/common/../mavlink_helpers.h **** 	uint8_t buf[MAVLINK_CORE_HEADER_LEN+1];
 220:Modules/include/MAVLink/common/../mavlink_helpers.h **** 	if (mavlink1) {
 221:Modules/include/MAVLink/common/../mavlink_helpers.h **** 		msg->magic = MAVLINK_STX_MAVLINK1;
 222:Modules/include/MAVLink/common/../mavlink_helpers.h **** 		header_len = MAVLINK_CORE_HEADER_MAVLINK1_LEN+1;
 223:Modules/include/MAVLink/common/../mavlink_helpers.h **** 	} else {
 224:Modules/include/MAVLink/common/../mavlink_helpers.h **** 		msg->magic = MAVLINK_STX;
 225:Modules/include/MAVLink/common/../mavlink_helpers.h **** 	}
 226:Modules/include/MAVLink/common/../mavlink_helpers.h **** 	msg->len = mavlink1?min_length:_mav_trim_payload(_MAV_PAYLOAD(msg), length);
 227:Modules/include/MAVLink/common/../mavlink_helpers.h **** 	msg->sysid = system_id;
 228:Modules/include/MAVLink/common/../mavlink_helpers.h **** 	msg->compid = component_id;
 229:Modules/include/MAVLink/common/../mavlink_helpers.h **** 	msg->incompat_flags = 0;
 230:Modules/include/MAVLink/common/../mavlink_helpers.h **** 	if (signing) {
 231:Modules/include/MAVLink/common/../mavlink_helpers.h **** 		msg->incompat_flags |= MAVLINK_IFLAG_SIGNED;
 232:Modules/include/MAVLink/common/../mavlink_helpers.h **** 	}
 233:Modules/include/MAVLink/common/../mavlink_helpers.h **** 	msg->compat_flags = 0;
 234:Modules/include/MAVLink/common/../mavlink_helpers.h **** 	msg->seq = status->current_tx_seq;
 235:Modules/include/MAVLink/common/../mavlink_helpers.h **** 	status->current_tx_seq = status->current_tx_seq + 1;
 236:Modules/include/MAVLink/common/../mavlink_helpers.h **** 
 237:Modules/include/MAVLink/common/../mavlink_helpers.h **** 	// form the header as a byte array for the crc
 238:Modules/include/MAVLink/common/../mavlink_helpers.h **** 	buf[0] = msg->magic;
 239:Modules/include/MAVLink/common/../mavlink_helpers.h **** 	buf[1] = msg->len;
 240:Modules/include/MAVLink/common/../mavlink_helpers.h **** 	if (mavlink1) {
 241:Modules/include/MAVLink/common/../mavlink_helpers.h **** 		buf[2] = msg->seq;
 242:Modules/include/MAVLink/common/../mavlink_helpers.h **** 		buf[3] = msg->sysid;
ARM GAS  C:\Users\luoha\AppData\Local\Temp\cctfed2n.s 			page 10


 243:Modules/include/MAVLink/common/../mavlink_helpers.h **** 		buf[4] = msg->compid;
 244:Modules/include/MAVLink/common/../mavlink_helpers.h **** 		buf[5] = msg->msgid & 0xFF;
 245:Modules/include/MAVLink/common/../mavlink_helpers.h **** 	} else {
 246:Modules/include/MAVLink/common/../mavlink_helpers.h **** 		buf[2] = msg->incompat_flags;
 247:Modules/include/MAVLink/common/../mavlink_helpers.h **** 		buf[3] = msg->compat_flags;
 248:Modules/include/MAVLink/common/../mavlink_helpers.h **** 		buf[4] = msg->seq;
 249:Modules/include/MAVLink/common/../mavlink_helpers.h **** 		buf[5] = msg->sysid;
 250:Modules/include/MAVLink/common/../mavlink_helpers.h **** 		buf[6] = msg->compid;
 251:Modules/include/MAVLink/common/../mavlink_helpers.h **** 		buf[7] = msg->msgid & 0xFF;
 252:Modules/include/MAVLink/common/../mavlink_helpers.h **** 		buf[8] = (msg->msgid >> 8) & 0xFF;
 253:Modules/include/MAVLink/common/../mavlink_helpers.h **** 		buf[9] = (msg->msgid >> 16) & 0xFF;
 254:Modules/include/MAVLink/common/../mavlink_helpers.h **** 	}
 255:Modules/include/MAVLink/common/../mavlink_helpers.h **** 	
 256:Modules/include/MAVLink/common/../mavlink_helpers.h **** 	uint16_t checksum = crc_calculate(&buf[1], header_len-1);
 257:Modules/include/MAVLink/common/../mavlink_helpers.h **** 	crc_accumulate_buffer(&checksum, _MAV_PAYLOAD(msg), msg->len);
 258:Modules/include/MAVLink/common/../mavlink_helpers.h **** 	crc_accumulate(crc_extra, &checksum);
 259:Modules/include/MAVLink/common/../mavlink_helpers.h **** 	mavlink_ck_a(msg) = (uint8_t)(checksum & 0xFF);
 260:Modules/include/MAVLink/common/../mavlink_helpers.h **** 	mavlink_ck_b(msg) = (uint8_t)(checksum >> 8);
 261:Modules/include/MAVLink/common/../mavlink_helpers.h **** 
 262:Modules/include/MAVLink/common/../mavlink_helpers.h **** 	msg->checksum = checksum;
 263:Modules/include/MAVLink/common/../mavlink_helpers.h **** 
 264:Modules/include/MAVLink/common/../mavlink_helpers.h **** 	if (signing) {
 265:Modules/include/MAVLink/common/../mavlink_helpers.h **** 		mavlink_sign_packet(status->signing,
 266:Modules/include/MAVLink/common/../mavlink_helpers.h **** 				    msg->signature,
 267:Modules/include/MAVLink/common/../mavlink_helpers.h **** 				    (const uint8_t *)buf, header_len,
 268:Modules/include/MAVLink/common/../mavlink_helpers.h **** 				    (const uint8_t *)_MAV_PAYLOAD(msg), msg->len,
 269:Modules/include/MAVLink/common/../mavlink_helpers.h **** 				    (const uint8_t *)_MAV_PAYLOAD(msg)+(uint16_t)msg->len);
 270:Modules/include/MAVLink/common/../mavlink_helpers.h **** 	}
 271:Modules/include/MAVLink/common/../mavlink_helpers.h **** 	
 272:Modules/include/MAVLink/common/../mavlink_helpers.h **** 	return msg->len + header_len + 2 + signature_len;
 273:Modules/include/MAVLink/common/../mavlink_helpers.h **** }
 274:Modules/include/MAVLink/common/../mavlink_helpers.h **** 
 275:Modules/include/MAVLink/common/../mavlink_helpers.h **** MAVLINK_HELPER uint16_t mavlink_finalize_message_chan(mavlink_message_t* msg, uint8_t system_id, ui
 276:Modules/include/MAVLink/common/../mavlink_helpers.h **** 						      uint8_t chan, uint8_t min_length, uint8_t length, uint8_t crc_extra)
 277:Modules/include/MAVLink/common/../mavlink_helpers.h **** {
 278:Modules/include/MAVLink/common/../mavlink_helpers.h **** 	mavlink_status_t *status = mavlink_get_channel_status(chan);
 279:Modules/include/MAVLink/common/../mavlink_helpers.h **** 	return mavlink_finalize_message_buffer(msg, system_id, component_id, status, min_length, length, c
 280:Modules/include/MAVLink/common/../mavlink_helpers.h **** }
 281:Modules/include/MAVLink/common/../mavlink_helpers.h **** 
 282:Modules/include/MAVLink/common/../mavlink_helpers.h **** /**
 283:Modules/include/MAVLink/common/../mavlink_helpers.h ****  * @brief Finalize a MAVLink message with MAVLINK_COMM_0 as default channel
 284:Modules/include/MAVLink/common/../mavlink_helpers.h ****  */
 285:Modules/include/MAVLink/common/../mavlink_helpers.h **** MAVLINK_HELPER uint16_t mavlink_finalize_message(mavlink_message_t* msg, uint8_t system_id, uint8_t
 286:Modules/include/MAVLink/common/../mavlink_helpers.h **** 						 uint8_t min_length, uint8_t length, uint8_t crc_extra)
 287:Modules/include/MAVLink/common/../mavlink_helpers.h **** {
 288:Modules/include/MAVLink/common/../mavlink_helpers.h ****     return mavlink_finalize_message_chan(msg, system_id, component_id, MAVLINK_COMM_0, min_length, 
 289:Modules/include/MAVLink/common/../mavlink_helpers.h **** }
 290:Modules/include/MAVLink/common/../mavlink_helpers.h **** 
 291:Modules/include/MAVLink/common/../mavlink_helpers.h **** static inline void _mav_parse_error(mavlink_status_t *status)
 292:Modules/include/MAVLink/common/../mavlink_helpers.h **** {
 293:Modules/include/MAVLink/common/../mavlink_helpers.h ****     status->parse_error++;
 294:Modules/include/MAVLink/common/../mavlink_helpers.h **** }
 295:Modules/include/MAVLink/common/../mavlink_helpers.h **** 
 296:Modules/include/MAVLink/common/../mavlink_helpers.h **** #ifdef MAVLINK_USE_CONVENIENCE_FUNCTIONS
 297:Modules/include/MAVLink/common/../mavlink_helpers.h **** MAVLINK_HELPER void _mavlink_send_uart(mavlink_channel_t chan, const char *buf, uint16_t len);
 298:Modules/include/MAVLink/common/../mavlink_helpers.h **** 
 299:Modules/include/MAVLink/common/../mavlink_helpers.h **** /**
ARM GAS  C:\Users\luoha\AppData\Local\Temp\cctfed2n.s 			page 11


 300:Modules/include/MAVLink/common/../mavlink_helpers.h ****  * @brief Finalize a MAVLink message with channel assignment and send
 301:Modules/include/MAVLink/common/../mavlink_helpers.h ****  */
 302:Modules/include/MAVLink/common/../mavlink_helpers.h **** MAVLINK_HELPER void _mav_finalize_message_chan_send(mavlink_channel_t chan, uint32_t msgid,
 303:Modules/include/MAVLink/common/../mavlink_helpers.h ****                                                     const char *packet, 
 304:Modules/include/MAVLink/common/../mavlink_helpers.h **** 						    uint8_t min_length, uint8_t length, uint8_t crc_extra)
 305:Modules/include/MAVLink/common/../mavlink_helpers.h **** {
 306:Modules/include/MAVLink/common/../mavlink_helpers.h **** 	uint16_t checksum;
 307:Modules/include/MAVLink/common/../mavlink_helpers.h **** 	uint8_t buf[MAVLINK_NUM_HEADER_BYTES];
 308:Modules/include/MAVLink/common/../mavlink_helpers.h **** 	uint8_t ck[2];
 309:Modules/include/MAVLink/common/../mavlink_helpers.h **** 	mavlink_status_t *status = mavlink_get_channel_status(chan);
 310:Modules/include/MAVLink/common/../mavlink_helpers.h ****         uint8_t header_len = MAVLINK_CORE_HEADER_LEN;
 311:Modules/include/MAVLink/common/../mavlink_helpers.h **** 	uint8_t signature_len = 0;
 312:Modules/include/MAVLink/common/../mavlink_helpers.h **** 	uint8_t signature[MAVLINK_SIGNATURE_BLOCK_LEN];
 313:Modules/include/MAVLink/common/../mavlink_helpers.h **** 	bool mavlink1 = (status->flags & MAVLINK_STATUS_FLAG_OUT_MAVLINK1) != 0;
 314:Modules/include/MAVLink/common/../mavlink_helpers.h **** 	bool signing = 	(!mavlink1) && status->signing && (status->signing->flags & MAVLINK_SIGNING_FLAG_S
 315:Modules/include/MAVLink/common/../mavlink_helpers.h **** 
 316:Modules/include/MAVLink/common/../mavlink_helpers.h ****         if (mavlink1) {
 317:Modules/include/MAVLink/common/../mavlink_helpers.h ****             length = min_length;
 318:Modules/include/MAVLink/common/../mavlink_helpers.h ****             if (msgid > 255) {
 319:Modules/include/MAVLink/common/../mavlink_helpers.h ****                 // can't send 16 bit messages
 320:Modules/include/MAVLink/common/../mavlink_helpers.h ****                 _mav_parse_error(status);
 321:Modules/include/MAVLink/common/../mavlink_helpers.h ****                 return;
 322:Modules/include/MAVLink/common/../mavlink_helpers.h ****             }
 323:Modules/include/MAVLink/common/../mavlink_helpers.h ****             header_len = MAVLINK_CORE_HEADER_MAVLINK1_LEN;
 324:Modules/include/MAVLink/common/../mavlink_helpers.h ****             buf[0] = MAVLINK_STX_MAVLINK1;
 325:Modules/include/MAVLink/common/../mavlink_helpers.h ****             buf[1] = length;
 326:Modules/include/MAVLink/common/../mavlink_helpers.h ****             buf[2] = status->current_tx_seq;
 327:Modules/include/MAVLink/common/../mavlink_helpers.h ****             buf[3] = mavlink_system.sysid;
 328:Modules/include/MAVLink/common/../mavlink_helpers.h ****             buf[4] = mavlink_system.compid;
 329:Modules/include/MAVLink/common/../mavlink_helpers.h ****             buf[5] = msgid & 0xFF;
 330:Modules/include/MAVLink/common/../mavlink_helpers.h ****         } else {
 331:Modules/include/MAVLink/common/../mavlink_helpers.h **** 	    uint8_t incompat_flags = 0;
 332:Modules/include/MAVLink/common/../mavlink_helpers.h **** 	    if (signing) {
 333:Modules/include/MAVLink/common/../mavlink_helpers.h **** 		incompat_flags |= MAVLINK_IFLAG_SIGNED;
 334:Modules/include/MAVLink/common/../mavlink_helpers.h **** 	    }
 335:Modules/include/MAVLink/common/../mavlink_helpers.h ****             length = _mav_trim_payload(packet, length);
 336:Modules/include/MAVLink/common/../mavlink_helpers.h ****             buf[0] = MAVLINK_STX;
 337:Modules/include/MAVLink/common/../mavlink_helpers.h ****             buf[1] = length;
 338:Modules/include/MAVLink/common/../mavlink_helpers.h ****             buf[2] = incompat_flags;
 339:Modules/include/MAVLink/common/../mavlink_helpers.h ****             buf[3] = 0; // compat_flags
 340:Modules/include/MAVLink/common/../mavlink_helpers.h ****             buf[4] = status->current_tx_seq;
 341:Modules/include/MAVLink/common/../mavlink_helpers.h ****             buf[5] = mavlink_system.sysid;
 342:Modules/include/MAVLink/common/../mavlink_helpers.h ****             buf[6] = mavlink_system.compid;
 343:Modules/include/MAVLink/common/../mavlink_helpers.h ****             buf[7] = msgid & 0xFF;
 344:Modules/include/MAVLink/common/../mavlink_helpers.h ****             buf[8] = (msgid >> 8) & 0xFF;
 345:Modules/include/MAVLink/common/../mavlink_helpers.h ****             buf[9] = (msgid >> 16) & 0xFF;
 346:Modules/include/MAVLink/common/../mavlink_helpers.h ****         }
 347:Modules/include/MAVLink/common/../mavlink_helpers.h **** 	status->current_tx_seq++;
 348:Modules/include/MAVLink/common/../mavlink_helpers.h **** 	checksum = crc_calculate((const uint8_t*)&buf[1], header_len);
 349:Modules/include/MAVLink/common/../mavlink_helpers.h **** 	crc_accumulate_buffer(&checksum, packet, length);
 350:Modules/include/MAVLink/common/../mavlink_helpers.h **** 	crc_accumulate(crc_extra, &checksum);
 351:Modules/include/MAVLink/common/../mavlink_helpers.h **** 	ck[0] = (uint8_t)(checksum & 0xFF);
 352:Modules/include/MAVLink/common/../mavlink_helpers.h **** 	ck[1] = (uint8_t)(checksum >> 8);
 353:Modules/include/MAVLink/common/../mavlink_helpers.h **** 
 354:Modules/include/MAVLink/common/../mavlink_helpers.h **** 	if (signing) {
 355:Modules/include/MAVLink/common/../mavlink_helpers.h **** 		// possibly add a signature
 356:Modules/include/MAVLink/common/../mavlink_helpers.h **** 		signature_len = mavlink_sign_packet(status->signing, signature, buf, header_len+1,
ARM GAS  C:\Users\luoha\AppData\Local\Temp\cctfed2n.s 			page 12


 357:Modules/include/MAVLink/common/../mavlink_helpers.h **** 						    (const uint8_t *)packet, length, ck);
 358:Modules/include/MAVLink/common/../mavlink_helpers.h **** 	}
 359:Modules/include/MAVLink/common/../mavlink_helpers.h **** 	
 360:Modules/include/MAVLink/common/../mavlink_helpers.h **** 	MAVLINK_START_UART_SEND(chan, header_len + 3 + (uint16_t)length + (uint16_t)signature_len);
 361:Modules/include/MAVLink/common/../mavlink_helpers.h **** 	_mavlink_send_uart(chan, (const char *)buf, header_len+1);
 362:Modules/include/MAVLink/common/../mavlink_helpers.h **** 	_mavlink_send_uart(chan, packet, length);
 363:Modules/include/MAVLink/common/../mavlink_helpers.h **** 	_mavlink_send_uart(chan, (const char *)ck, 2);
 364:Modules/include/MAVLink/common/../mavlink_helpers.h **** 	if (signature_len != 0) {
 365:Modules/include/MAVLink/common/../mavlink_helpers.h **** 		_mavlink_send_uart(chan, (const char *)signature, signature_len);
 366:Modules/include/MAVLink/common/../mavlink_helpers.h **** 	}
 367:Modules/include/MAVLink/common/../mavlink_helpers.h **** 	MAVLINK_END_UART_SEND(chan, header_len + 3 + (uint16_t)length + (uint16_t)signature_len);
 368:Modules/include/MAVLink/common/../mavlink_helpers.h **** }
 369:Modules/include/MAVLink/common/../mavlink_helpers.h **** 
 370:Modules/include/MAVLink/common/../mavlink_helpers.h **** /**
 371:Modules/include/MAVLink/common/../mavlink_helpers.h ****  * @brief re-send a message over a uart channel
 372:Modules/include/MAVLink/common/../mavlink_helpers.h ****  * this is more stack efficient than re-marshalling the message
 373:Modules/include/MAVLink/common/../mavlink_helpers.h ****  * If the message is signed then the original signature is also sent
 374:Modules/include/MAVLink/common/../mavlink_helpers.h ****  */
 375:Modules/include/MAVLink/common/../mavlink_helpers.h **** MAVLINK_HELPER void _mavlink_resend_uart(mavlink_channel_t chan, const mavlink_message_t *msg)
 376:Modules/include/MAVLink/common/../mavlink_helpers.h **** {
 377:Modules/include/MAVLink/common/../mavlink_helpers.h **** 	uint8_t ck[2];
 378:Modules/include/MAVLink/common/../mavlink_helpers.h **** 
 379:Modules/include/MAVLink/common/../mavlink_helpers.h **** 	ck[0] = (uint8_t)(msg->checksum & 0xFF);
 380:Modules/include/MAVLink/common/../mavlink_helpers.h **** 	ck[1] = (uint8_t)(msg->checksum >> 8);
 381:Modules/include/MAVLink/common/../mavlink_helpers.h **** 	// XXX use the right sequence here
 382:Modules/include/MAVLink/common/../mavlink_helpers.h **** 
 383:Modules/include/MAVLink/common/../mavlink_helpers.h ****         uint8_t header_len;
 384:Modules/include/MAVLink/common/../mavlink_helpers.h ****         uint8_t signature_len;
 385:Modules/include/MAVLink/common/../mavlink_helpers.h ****         
 386:Modules/include/MAVLink/common/../mavlink_helpers.h ****         if (msg->magic == MAVLINK_STX_MAVLINK1) {
 387:Modules/include/MAVLink/common/../mavlink_helpers.h ****             header_len = MAVLINK_CORE_HEADER_MAVLINK1_LEN + 1;
 388:Modules/include/MAVLink/common/../mavlink_helpers.h ****             signature_len = 0;
 389:Modules/include/MAVLink/common/../mavlink_helpers.h ****             MAVLINK_START_UART_SEND(chan, header_len + msg->len + 2 + signature_len);
 390:Modules/include/MAVLink/common/../mavlink_helpers.h ****             // we can't send the structure directly as it has extra mavlink2 elements in it
 391:Modules/include/MAVLink/common/../mavlink_helpers.h ****             uint8_t buf[MAVLINK_CORE_HEADER_MAVLINK1_LEN + 1];
 392:Modules/include/MAVLink/common/../mavlink_helpers.h ****             buf[0] = msg->magic;
 393:Modules/include/MAVLink/common/../mavlink_helpers.h ****             buf[1] = msg->len;
 394:Modules/include/MAVLink/common/../mavlink_helpers.h ****             buf[2] = msg->seq;
 395:Modules/include/MAVLink/common/../mavlink_helpers.h ****             buf[3] = msg->sysid;
 396:Modules/include/MAVLink/common/../mavlink_helpers.h ****             buf[4] = msg->compid;
 397:Modules/include/MAVLink/common/../mavlink_helpers.h ****             buf[5] = msg->msgid & 0xFF;
 398:Modules/include/MAVLink/common/../mavlink_helpers.h ****             _mavlink_send_uart(chan, (const char*)buf, header_len);
 399:Modules/include/MAVLink/common/../mavlink_helpers.h ****         } else {
 400:Modules/include/MAVLink/common/../mavlink_helpers.h ****             header_len = MAVLINK_CORE_HEADER_LEN + 1;
 401:Modules/include/MAVLink/common/../mavlink_helpers.h ****             signature_len = (msg->incompat_flags & MAVLINK_IFLAG_SIGNED)?MAVLINK_SIGNATURE_BLOCK_LE
 402:Modules/include/MAVLink/common/../mavlink_helpers.h ****             MAVLINK_START_UART_SEND(chan, header_len + msg->len + 2 + signature_len);
 403:Modules/include/MAVLink/common/../mavlink_helpers.h ****             uint8_t buf[MAVLINK_CORE_HEADER_LEN + 1];
 404:Modules/include/MAVLink/common/../mavlink_helpers.h ****             buf[0] = msg->magic;
 405:Modules/include/MAVLink/common/../mavlink_helpers.h ****             buf[1] = msg->len;
 406:Modules/include/MAVLink/common/../mavlink_helpers.h ****             buf[2] = msg->incompat_flags;
 407:Modules/include/MAVLink/common/../mavlink_helpers.h ****             buf[3] = msg->compat_flags;
 408:Modules/include/MAVLink/common/../mavlink_helpers.h ****             buf[4] = msg->seq;
 409:Modules/include/MAVLink/common/../mavlink_helpers.h ****             buf[5] = msg->sysid;
 410:Modules/include/MAVLink/common/../mavlink_helpers.h ****             buf[6] = msg->compid;
 411:Modules/include/MAVLink/common/../mavlink_helpers.h ****             buf[7] = msg->msgid & 0xFF;
 412:Modules/include/MAVLink/common/../mavlink_helpers.h ****             buf[8] = (msg->msgid >> 8) & 0xFF;
 413:Modules/include/MAVLink/common/../mavlink_helpers.h ****             buf[9] = (msg->msgid >> 16) & 0xFF;
ARM GAS  C:\Users\luoha\AppData\Local\Temp\cctfed2n.s 			page 13


 414:Modules/include/MAVLink/common/../mavlink_helpers.h ****             _mavlink_send_uart(chan, (const char *)buf, header_len);
 415:Modules/include/MAVLink/common/../mavlink_helpers.h ****         }
 416:Modules/include/MAVLink/common/../mavlink_helpers.h **** 	_mavlink_send_uart(chan, _MAV_PAYLOAD(msg), msg->len);
 417:Modules/include/MAVLink/common/../mavlink_helpers.h **** 	_mavlink_send_uart(chan, (const char *)ck, 2);
 418:Modules/include/MAVLink/common/../mavlink_helpers.h ****         if (signature_len != 0) {
 419:Modules/include/MAVLink/common/../mavlink_helpers.h **** 	    _mavlink_send_uart(chan, (const char *)msg->signature, MAVLINK_SIGNATURE_BLOCK_LEN);
 420:Modules/include/MAVLink/common/../mavlink_helpers.h ****         }
 421:Modules/include/MAVLink/common/../mavlink_helpers.h ****         MAVLINK_END_UART_SEND(chan, header_len + msg->len + 2 + signature_len);
 422:Modules/include/MAVLink/common/../mavlink_helpers.h **** }
 423:Modules/include/MAVLink/common/../mavlink_helpers.h **** #endif // MAVLINK_USE_CONVENIENCE_FUNCTIONS
 424:Modules/include/MAVLink/common/../mavlink_helpers.h **** 
 425:Modules/include/MAVLink/common/../mavlink_helpers.h **** /**
 426:Modules/include/MAVLink/common/../mavlink_helpers.h ****  * @brief Pack a message to send it over a serial byte stream
 427:Modules/include/MAVLink/common/../mavlink_helpers.h ****  */
 428:Modules/include/MAVLink/common/../mavlink_helpers.h **** MAVLINK_HELPER uint16_t mavlink_msg_to_send_buffer(uint8_t *buf, const mavlink_message_t *msg)
 429:Modules/include/MAVLink/common/../mavlink_helpers.h **** {
 430:Modules/include/MAVLink/common/../mavlink_helpers.h **** 	uint8_t signature_len, header_len;
 431:Modules/include/MAVLink/common/../mavlink_helpers.h **** 	uint8_t *ck;
 432:Modules/include/MAVLink/common/../mavlink_helpers.h ****         uint8_t length = msg->len;
 433:Modules/include/MAVLink/common/../mavlink_helpers.h ****         
 434:Modules/include/MAVLink/common/../mavlink_helpers.h **** 	if (msg->magic == MAVLINK_STX_MAVLINK1) {
 435:Modules/include/MAVLink/common/../mavlink_helpers.h **** 		signature_len = 0;
 436:Modules/include/MAVLink/common/../mavlink_helpers.h **** 		header_len = MAVLINK_CORE_HEADER_MAVLINK1_LEN;
 437:Modules/include/MAVLink/common/../mavlink_helpers.h **** 		buf[0] = msg->magic;
 438:Modules/include/MAVLink/common/../mavlink_helpers.h **** 		buf[1] = length;
 439:Modules/include/MAVLink/common/../mavlink_helpers.h **** 		buf[2] = msg->seq;
 440:Modules/include/MAVLink/common/../mavlink_helpers.h **** 		buf[3] = msg->sysid;
 441:Modules/include/MAVLink/common/../mavlink_helpers.h **** 		buf[4] = msg->compid;
 442:Modules/include/MAVLink/common/../mavlink_helpers.h **** 		buf[5] = msg->msgid & 0xFF;
 443:Modules/include/MAVLink/common/../mavlink_helpers.h **** 		memcpy(&buf[6], _MAV_PAYLOAD(msg), msg->len);
 444:Modules/include/MAVLink/common/../mavlink_helpers.h **** 		ck = buf + header_len + 1 + (uint16_t)msg->len;
 445:Modules/include/MAVLink/common/../mavlink_helpers.h **** 	} else {
 446:Modules/include/MAVLink/common/../mavlink_helpers.h **** 		length = _mav_trim_payload(_MAV_PAYLOAD(msg), length);
 447:Modules/include/MAVLink/common/../mavlink_helpers.h **** 		header_len = MAVLINK_CORE_HEADER_LEN;
 448:Modules/include/MAVLink/common/../mavlink_helpers.h **** 		buf[0] = msg->magic;
 449:Modules/include/MAVLink/common/../mavlink_helpers.h **** 		buf[1] = length;
 450:Modules/include/MAVLink/common/../mavlink_helpers.h **** 		buf[2] = msg->incompat_flags;
 451:Modules/include/MAVLink/common/../mavlink_helpers.h **** 		buf[3] = msg->compat_flags;
 452:Modules/include/MAVLink/common/../mavlink_helpers.h **** 		buf[4] = msg->seq;
 453:Modules/include/MAVLink/common/../mavlink_helpers.h **** 		buf[5] = msg->sysid;
 454:Modules/include/MAVLink/common/../mavlink_helpers.h **** 		buf[6] = msg->compid;
 455:Modules/include/MAVLink/common/../mavlink_helpers.h **** 		buf[7] = msg->msgid & 0xFF;
 456:Modules/include/MAVLink/common/../mavlink_helpers.h **** 		buf[8] = (msg->msgid >> 8) & 0xFF;
 457:Modules/include/MAVLink/common/../mavlink_helpers.h **** 		buf[9] = (msg->msgid >> 16) & 0xFF;
 458:Modules/include/MAVLink/common/../mavlink_helpers.h **** 		memcpy(&buf[10], _MAV_PAYLOAD(msg), length);
 459:Modules/include/MAVLink/common/../mavlink_helpers.h **** 		ck = buf + header_len + 1 + (uint16_t)length;
 460:Modules/include/MAVLink/common/../mavlink_helpers.h **** 		signature_len = (msg->incompat_flags & MAVLINK_IFLAG_SIGNED)?MAVLINK_SIGNATURE_BLOCK_LEN:0;
 461:Modules/include/MAVLink/common/../mavlink_helpers.h **** 	}
 462:Modules/include/MAVLink/common/../mavlink_helpers.h **** 	ck[0] = (uint8_t)(msg->checksum & 0xFF);
 463:Modules/include/MAVLink/common/../mavlink_helpers.h **** 	ck[1] = (uint8_t)(msg->checksum >> 8);
 464:Modules/include/MAVLink/common/../mavlink_helpers.h **** 	if (signature_len > 0) {
 465:Modules/include/MAVLink/common/../mavlink_helpers.h **** 		memcpy(&ck[2], msg->signature, signature_len);
 466:Modules/include/MAVLink/common/../mavlink_helpers.h **** 	}
 467:Modules/include/MAVLink/common/../mavlink_helpers.h **** 
 468:Modules/include/MAVLink/common/../mavlink_helpers.h **** 	return header_len + 1 + 2 + (uint16_t)length + (uint16_t)signature_len;
 469:Modules/include/MAVLink/common/../mavlink_helpers.h **** }
 470:Modules/include/MAVLink/common/../mavlink_helpers.h **** 
ARM GAS  C:\Users\luoha\AppData\Local\Temp\cctfed2n.s 			page 14


 471:Modules/include/MAVLink/common/../mavlink_helpers.h **** union __mavlink_bitfield {
 472:Modules/include/MAVLink/common/../mavlink_helpers.h **** 	uint8_t uint8;
 473:Modules/include/MAVLink/common/../mavlink_helpers.h **** 	int8_t int8;
 474:Modules/include/MAVLink/common/../mavlink_helpers.h **** 	uint16_t uint16;
 475:Modules/include/MAVLink/common/../mavlink_helpers.h **** 	int16_t int16;
 476:Modules/include/MAVLink/common/../mavlink_helpers.h **** 	uint32_t uint32;
 477:Modules/include/MAVLink/common/../mavlink_helpers.h **** 	int32_t int32;
 478:Modules/include/MAVLink/common/../mavlink_helpers.h **** };
 479:Modules/include/MAVLink/common/../mavlink_helpers.h **** 
 480:Modules/include/MAVLink/common/../mavlink_helpers.h **** 
 481:Modules/include/MAVLink/common/../mavlink_helpers.h **** MAVLINK_HELPER void mavlink_start_checksum(mavlink_message_t* msg)
 482:Modules/include/MAVLink/common/../mavlink_helpers.h **** {
 483:Modules/include/MAVLink/common/../mavlink_helpers.h **** 	uint16_t crcTmp = 0;
 484:Modules/include/MAVLink/common/../mavlink_helpers.h **** 	crc_init(&crcTmp);
 485:Modules/include/MAVLink/common/../mavlink_helpers.h **** 	msg->checksum = crcTmp;
 486:Modules/include/MAVLink/common/../mavlink_helpers.h **** }
 487:Modules/include/MAVLink/common/../mavlink_helpers.h **** 
 488:Modules/include/MAVLink/common/../mavlink_helpers.h **** MAVLINK_HELPER void mavlink_update_checksum(mavlink_message_t* msg, uint8_t c)
 489:Modules/include/MAVLink/common/../mavlink_helpers.h **** {
 490:Modules/include/MAVLink/common/../mavlink_helpers.h **** 	uint16_t checksum = msg->checksum;
 491:Modules/include/MAVLink/common/../mavlink_helpers.h **** 	crc_accumulate(c, &checksum);
 492:Modules/include/MAVLink/common/../mavlink_helpers.h **** 	msg->checksum = checksum;
 493:Modules/include/MAVLink/common/../mavlink_helpers.h **** }
 494:Modules/include/MAVLink/common/../mavlink_helpers.h **** 
 495:Modules/include/MAVLink/common/../mavlink_helpers.h **** /*
 496:Modules/include/MAVLink/common/../mavlink_helpers.h ****   return the crc_entry value for a msgid
 497:Modules/include/MAVLink/common/../mavlink_helpers.h **** */
 498:Modules/include/MAVLink/common/../mavlink_helpers.h **** #ifndef MAVLINK_GET_MSG_ENTRY
 499:Modules/include/MAVLink/common/../mavlink_helpers.h **** MAVLINK_HELPER const mavlink_msg_entry_t *mavlink_get_msg_entry(uint32_t msgid)
 500:Modules/include/MAVLink/common/../mavlink_helpers.h **** {
 501:Modules/include/MAVLink/common/../mavlink_helpers.h **** 	static const mavlink_msg_entry_t mavlink_message_crcs[] = MAVLINK_MESSAGE_CRCS;
 502:Modules/include/MAVLink/common/../mavlink_helpers.h ****         /*
 503:Modules/include/MAVLink/common/../mavlink_helpers.h **** 	  use a bisection search to find the right entry. A perfect hash may be better
 504:Modules/include/MAVLink/common/../mavlink_helpers.h **** 	  Note that this assumes the table is sorted by msgid
 505:Modules/include/MAVLink/common/../mavlink_helpers.h **** 	*/
 506:Modules/include/MAVLink/common/../mavlink_helpers.h ****         uint32_t low=0, high=sizeof(mavlink_message_crcs)/sizeof(mavlink_message_crcs[0]) - 1;
 507:Modules/include/MAVLink/common/../mavlink_helpers.h ****         while (low < high) {
 508:Modules/include/MAVLink/common/../mavlink_helpers.h ****             uint32_t mid = (low+1+high)/2;
 509:Modules/include/MAVLink/common/../mavlink_helpers.h ****             if (msgid < mavlink_message_crcs[mid].msgid) {
 510:Modules/include/MAVLink/common/../mavlink_helpers.h ****                 high = mid-1;
 511:Modules/include/MAVLink/common/../mavlink_helpers.h ****                 continue;
 512:Modules/include/MAVLink/common/../mavlink_helpers.h ****             }
 513:Modules/include/MAVLink/common/../mavlink_helpers.h ****             if (msgid > mavlink_message_crcs[mid].msgid) {
 514:Modules/include/MAVLink/common/../mavlink_helpers.h ****                 low = mid;
 515:Modules/include/MAVLink/common/../mavlink_helpers.h ****                 continue;
 516:Modules/include/MAVLink/common/../mavlink_helpers.h ****             }
 517:Modules/include/MAVLink/common/../mavlink_helpers.h ****             low = mid;
 518:Modules/include/MAVLink/common/../mavlink_helpers.h ****             break;
 519:Modules/include/MAVLink/common/../mavlink_helpers.h ****         }
 520:Modules/include/MAVLink/common/../mavlink_helpers.h ****         if (mavlink_message_crcs[low].msgid != msgid) {
 521:Modules/include/MAVLink/common/../mavlink_helpers.h ****             // msgid is not in the table
 522:Modules/include/MAVLink/common/../mavlink_helpers.h ****             return NULL;
 523:Modules/include/MAVLink/common/../mavlink_helpers.h ****         }
 524:Modules/include/MAVLink/common/../mavlink_helpers.h ****         return &mavlink_message_crcs[low];
 525:Modules/include/MAVLink/common/../mavlink_helpers.h **** }
 526:Modules/include/MAVLink/common/../mavlink_helpers.h **** #endif // MAVLINK_GET_MSG_ENTRY
 527:Modules/include/MAVLink/common/../mavlink_helpers.h **** 
ARM GAS  C:\Users\luoha\AppData\Local\Temp\cctfed2n.s 			page 15


 528:Modules/include/MAVLink/common/../mavlink_helpers.h **** /*
 529:Modules/include/MAVLink/common/../mavlink_helpers.h ****   return the crc_extra value for a message
 530:Modules/include/MAVLink/common/../mavlink_helpers.h **** */
 531:Modules/include/MAVLink/common/../mavlink_helpers.h **** MAVLINK_HELPER uint8_t mavlink_get_crc_extra(const mavlink_message_t *msg)
 532:Modules/include/MAVLink/common/../mavlink_helpers.h **** {
 533:Modules/include/MAVLink/common/../mavlink_helpers.h **** 	const mavlink_msg_entry_t *e = mavlink_get_msg_entry(msg->msgid);
 534:Modules/include/MAVLink/common/../mavlink_helpers.h **** 	return e?e->crc_extra:0;
 535:Modules/include/MAVLink/common/../mavlink_helpers.h **** }
 536:Modules/include/MAVLink/common/../mavlink_helpers.h **** 
 537:Modules/include/MAVLink/common/../mavlink_helpers.h **** /*
 538:Modules/include/MAVLink/common/../mavlink_helpers.h ****   return the min message length
 539:Modules/include/MAVLink/common/../mavlink_helpers.h **** */
 540:Modules/include/MAVLink/common/../mavlink_helpers.h **** #define MAVLINK_HAVE_MIN_MESSAGE_LENGTH
 541:Modules/include/MAVLink/common/../mavlink_helpers.h **** MAVLINK_HELPER uint8_t mavlink_min_message_length(const mavlink_message_t *msg)
 542:Modules/include/MAVLink/common/../mavlink_helpers.h **** {
 543:Modules/include/MAVLink/common/../mavlink_helpers.h **** 	const mavlink_msg_entry_t *e = mavlink_get_msg_entry(msg->msgid);
 544:Modules/include/MAVLink/common/../mavlink_helpers.h ****         return e?e->min_msg_len:0;
 545:Modules/include/MAVLink/common/../mavlink_helpers.h **** }
 546:Modules/include/MAVLink/common/../mavlink_helpers.h **** 
 547:Modules/include/MAVLink/common/../mavlink_helpers.h **** /*
 548:Modules/include/MAVLink/common/../mavlink_helpers.h ****   return the max message length (including extensions)
 549:Modules/include/MAVLink/common/../mavlink_helpers.h **** */
 550:Modules/include/MAVLink/common/../mavlink_helpers.h **** #define MAVLINK_HAVE_MAX_MESSAGE_LENGTH
 551:Modules/include/MAVLink/common/../mavlink_helpers.h **** MAVLINK_HELPER uint8_t mavlink_max_message_length(const mavlink_message_t *msg)
 552:Modules/include/MAVLink/common/../mavlink_helpers.h **** {
 553:Modules/include/MAVLink/common/../mavlink_helpers.h **** 	const mavlink_msg_entry_t *e = mavlink_get_msg_entry(msg->msgid);
 554:Modules/include/MAVLink/common/../mavlink_helpers.h ****         return e?e->max_msg_len:0;
 555:Modules/include/MAVLink/common/../mavlink_helpers.h **** }
 556:Modules/include/MAVLink/common/../mavlink_helpers.h **** 
 557:Modules/include/MAVLink/common/../mavlink_helpers.h **** /**
 558:Modules/include/MAVLink/common/../mavlink_helpers.h ****  * This is a variant of mavlink_frame_char() but with caller supplied
 559:Modules/include/MAVLink/common/../mavlink_helpers.h ****  * parsing buffers. It is useful when you want to create a MAVLink
 560:Modules/include/MAVLink/common/../mavlink_helpers.h ****  * parser in a library that doesn't use any global variables
 561:Modules/include/MAVLink/common/../mavlink_helpers.h ****  *
 562:Modules/include/MAVLink/common/../mavlink_helpers.h ****  * @param rxmsg    parsing message buffer
 563:Modules/include/MAVLink/common/../mavlink_helpers.h ****  * @param status   parsing status buffer
 564:Modules/include/MAVLink/common/../mavlink_helpers.h ****  * @param c        The char to parse
 565:Modules/include/MAVLink/common/../mavlink_helpers.h ****  *
 566:Modules/include/MAVLink/common/../mavlink_helpers.h ****  * @param r_message NULL if no message could be decoded, otherwise the message data
 567:Modules/include/MAVLink/common/../mavlink_helpers.h ****  * @param r_mavlink_status if a message was decoded, this is filled with the channel's stats
 568:Modules/include/MAVLink/common/../mavlink_helpers.h ****  * @return 0 if no message could be decoded, 1 on good message and CRC, 2 on bad CRC
 569:Modules/include/MAVLink/common/../mavlink_helpers.h ****  *
 570:Modules/include/MAVLink/common/../mavlink_helpers.h ****  */
 571:Modules/include/MAVLink/common/../mavlink_helpers.h **** MAVLINK_HELPER uint8_t mavlink_frame_char_buffer(mavlink_message_t* rxmsg, 
 572:Modules/include/MAVLink/common/../mavlink_helpers.h ****                                                  mavlink_status_t* status,
 573:Modules/include/MAVLink/common/../mavlink_helpers.h ****                                                  uint8_t c, 
 574:Modules/include/MAVLink/common/../mavlink_helpers.h ****                                                  mavlink_message_t* r_message, 
 575:Modules/include/MAVLink/common/../mavlink_helpers.h ****                                                  mavlink_status_t* r_mavlink_status)
 576:Modules/include/MAVLink/common/../mavlink_helpers.h **** {
 577:Modules/include/MAVLink/common/../mavlink_helpers.h **** 	int bufferIndex = 0;
 578:Modules/include/MAVLink/common/../mavlink_helpers.h **** 
 579:Modules/include/MAVLink/common/../mavlink_helpers.h **** 	status->msg_received = MAVLINK_FRAMING_INCOMPLETE;
 580:Modules/include/MAVLink/common/../mavlink_helpers.h **** 
 581:Modules/include/MAVLink/common/../mavlink_helpers.h **** 	switch (status->parse_state)
 582:Modules/include/MAVLink/common/../mavlink_helpers.h **** 	{
 583:Modules/include/MAVLink/common/../mavlink_helpers.h **** 	case MAVLINK_PARSE_STATE_UNINIT:
 584:Modules/include/MAVLink/common/../mavlink_helpers.h **** 	case MAVLINK_PARSE_STATE_IDLE:
ARM GAS  C:\Users\luoha\AppData\Local\Temp\cctfed2n.s 			page 16


 585:Modules/include/MAVLink/common/../mavlink_helpers.h **** 		if (c == MAVLINK_STX)
 182              		.loc 2 585 3 is_stmt 1 view .LVU16
 183              		.loc 2 585 6 is_stmt 0 view .LVU17
 184 0012 BBF1FD0F 		cmp	fp, #253
 185 0016 12D0     		beq	.L155
 586:Modules/include/MAVLink/common/../mavlink_helpers.h **** 		{
 587:Modules/include/MAVLink/common/../mavlink_helpers.h **** 			status->parse_state = MAVLINK_PARSE_STATE_GOT_STX;
 588:Modules/include/MAVLink/common/../mavlink_helpers.h **** 			rxmsg->len = 0;
 589:Modules/include/MAVLink/common/../mavlink_helpers.h **** 			rxmsg->magic = c;
 590:Modules/include/MAVLink/common/../mavlink_helpers.h ****                         status->flags &= ~MAVLINK_STATUS_FLAG_IN_MAVLINK1;
 591:Modules/include/MAVLink/common/../mavlink_helpers.h **** 			mavlink_start_checksum(rxmsg);
 592:Modules/include/MAVLink/common/../mavlink_helpers.h **** 		} else if (c == MAVLINK_STX_MAVLINK1)
 186              		.loc 2 592 10 is_stmt 1 view .LVU18
 187              		.loc 2 592 13 is_stmt 0 view .LVU19
 188 0018 BBF1FE0F 		cmp	fp, #254
 189 001c 7DD1     		bne	.L15
 593:Modules/include/MAVLink/common/../mavlink_helpers.h **** 		{
 594:Modules/include/MAVLink/common/../mavlink_helpers.h **** 			status->parse_state = MAVLINK_PARSE_STATE_GOT_STX;
 190              		.loc 2 594 4 is_stmt 1 view .LVU20
 191              		.loc 2 594 24 is_stmt 0 view .LVU21
 192 001e B34A     		ldr	r2, .L188
 193 0020 0223     		movs	r3, #2
 194 0022 D370     		strb	r3, [r2, #3]
 595:Modules/include/MAVLink/common/../mavlink_helpers.h **** 			rxmsg->len = 0;
 195              		.loc 2 595 4 is_stmt 1 view .LVU22
 196              		.loc 2 595 15 is_stmt 0 view .LVU23
 197 0024 B24B     		ldr	r3, .L188+4
 198 0026 0021     		movs	r1, #0
 199 0028 D970     		strb	r1, [r3, #3]
 596:Modules/include/MAVLink/common/../mavlink_helpers.h **** 			rxmsg->magic = c;
 200              		.loc 2 596 4 is_stmt 1 view .LVU24
 201              		.loc 2 596 17 is_stmt 0 view .LVU25
 202 002a 83F802B0 		strb	fp, [r3, #2]
 597:Modules/include/MAVLink/common/../mavlink_helpers.h ****                         status->flags |= MAVLINK_STATUS_FLAG_IN_MAVLINK1;
 203              		.loc 2 597 25 is_stmt 1 view .LVU26
 204              		.loc 2 597 39 is_stmt 0 view .LVU27
 205 002e 117B     		ldrb	r1, [r2, #12]	@ zero_extendqisi2
 206 0030 41F00101 		orr	r1, r1, #1
 207 0034 1173     		strb	r1, [r2, #12]
 598:Modules/include/MAVLink/common/../mavlink_helpers.h **** 			mavlink_start_checksum(rxmsg);
 208              		.loc 2 598 4 is_stmt 1 view .LVU28
 209              	.LVL6:
 210              	.LBB211:
 211              	.LBI211:
 481:Modules/include/MAVLink/common/../mavlink_helpers.h **** {
 212              		.loc 2 481 21 view .LVU29
 213              	.LBB212:
 483:Modules/include/MAVLink/common/../mavlink_helpers.h **** 	crc_init(&crcTmp);
 214              		.loc 2 483 2 view .LVU30
 484:Modules/include/MAVLink/common/../mavlink_helpers.h **** 	msg->checksum = crcTmp;
 215              		.loc 2 484 2 view .LVU31
 484:Modules/include/MAVLink/common/../mavlink_helpers.h **** 	msg->checksum = crcTmp;
 216              		.loc 2 484 2 is_stmt 0 view .LVU32
 217              	.LBE212:
 218              	.LBE211:
 219              	.LBE210:
 220              	.LBE209:
ARM GAS  C:\Users\luoha\AppData\Local\Temp\cctfed2n.s 			page 17


 221              	.LBE208:
 222              	.LBE207:
 223              	.LBE206:
 224              	.LBE205:
 225              		.file 3 "Modules/include/MAVLink/common/../checksum.h"
   1:Modules/include/MAVLink/common/../checksum.h **** #pragma once
   2:Modules/include/MAVLink/common/../checksum.h **** 
   3:Modules/include/MAVLink/common/../checksum.h **** #if defined(MAVLINK_USE_CXX_NAMESPACE)
   4:Modules/include/MAVLink/common/../checksum.h **** namespace mavlink {
   5:Modules/include/MAVLink/common/../checksum.h **** #elif defined(__cplusplus)
   6:Modules/include/MAVLink/common/../checksum.h **** extern "C" {
   7:Modules/include/MAVLink/common/../checksum.h **** #endif
   8:Modules/include/MAVLink/common/../checksum.h **** 
   9:Modules/include/MAVLink/common/../checksum.h **** // Visual Studio versions before 2010 don't have stdint.h, so we just error out.
  10:Modules/include/MAVLink/common/../checksum.h **** #if (defined _MSC_VER) && (_MSC_VER < 1600)
  11:Modules/include/MAVLink/common/../checksum.h **** #error "The C-MAVLink implementation requires Visual Studio 2010 or greater"
  12:Modules/include/MAVLink/common/../checksum.h **** #endif
  13:Modules/include/MAVLink/common/../checksum.h **** 
  14:Modules/include/MAVLink/common/../checksum.h **** #include <stdint.h>
  15:Modules/include/MAVLink/common/../checksum.h **** 
  16:Modules/include/MAVLink/common/../checksum.h **** /**
  17:Modules/include/MAVLink/common/../checksum.h ****  *
  18:Modules/include/MAVLink/common/../checksum.h ****  *  CALCULATE THE CHECKSUM
  19:Modules/include/MAVLink/common/../checksum.h ****  *
  20:Modules/include/MAVLink/common/../checksum.h ****  */
  21:Modules/include/MAVLink/common/../checksum.h **** 
  22:Modules/include/MAVLink/common/../checksum.h **** #define X25_INIT_CRC 0xffff
  23:Modules/include/MAVLink/common/../checksum.h **** #define X25_VALIDATE_CRC 0xf0b8
  24:Modules/include/MAVLink/common/../checksum.h **** 
  25:Modules/include/MAVLink/common/../checksum.h **** #ifndef HAVE_CRC_ACCUMULATE
  26:Modules/include/MAVLink/common/../checksum.h **** /**
  27:Modules/include/MAVLink/common/../checksum.h ****  * @brief Accumulate the X.25 CRC by adding one char at a time.
  28:Modules/include/MAVLink/common/../checksum.h ****  *
  29:Modules/include/MAVLink/common/../checksum.h ****  * The checksum function adds the hash of one char at a time to the
  30:Modules/include/MAVLink/common/../checksum.h ****  * 16 bit checksum (uint16_t).
  31:Modules/include/MAVLink/common/../checksum.h ****  *
  32:Modules/include/MAVLink/common/../checksum.h ****  * @param data new char to hash
  33:Modules/include/MAVLink/common/../checksum.h ****  * @param crcAccum the already accumulated checksum
  34:Modules/include/MAVLink/common/../checksum.h ****  **/
  35:Modules/include/MAVLink/common/../checksum.h **** static inline void crc_accumulate(uint8_t data, uint16_t *crcAccum)
  36:Modules/include/MAVLink/common/../checksum.h **** {
  37:Modules/include/MAVLink/common/../checksum.h ****         /*Accumulate one byte of data into the CRC*/
  38:Modules/include/MAVLink/common/../checksum.h ****         uint8_t tmp;
  39:Modules/include/MAVLink/common/../checksum.h **** 
  40:Modules/include/MAVLink/common/../checksum.h ****         tmp = data ^ (uint8_t)(*crcAccum &0xff);
  41:Modules/include/MAVLink/common/../checksum.h ****         tmp ^= (tmp<<4);
  42:Modules/include/MAVLink/common/../checksum.h ****         *crcAccum = (*crcAccum>>8) ^ (tmp<<8) ^ (tmp <<3) ^ (tmp>>4);
  43:Modules/include/MAVLink/common/../checksum.h **** }
  44:Modules/include/MAVLink/common/../checksum.h **** #endif
  45:Modules/include/MAVLink/common/../checksum.h **** 
  46:Modules/include/MAVLink/common/../checksum.h **** 
  47:Modules/include/MAVLink/common/../checksum.h **** /**
  48:Modules/include/MAVLink/common/../checksum.h ****  * @brief Initiliaze the buffer for the X.25 CRC
  49:Modules/include/MAVLink/common/../checksum.h ****  *
  50:Modules/include/MAVLink/common/../checksum.h ****  * @param crcAccum the 16 bit X.25 CRC
  51:Modules/include/MAVLink/common/../checksum.h ****  */
  52:Modules/include/MAVLink/common/../checksum.h **** static inline void crc_init(uint16_t* crcAccum)
ARM GAS  C:\Users\luoha\AppData\Local\Temp\cctfed2n.s 			page 18


  53:Modules/include/MAVLink/common/../checksum.h **** {
  54:Modules/include/MAVLink/common/../checksum.h ****         *crcAccum = X25_INIT_CRC;
 226              		.loc 3 54 9 is_stmt 1 view .LVU33
 227              	.LBB371:
 228              	.LBB364:
 229              	.LBB357:
 230              	.LBB341:
 231              	.LBB338:
 232              	.LBB335:
 233              	.LBB214:
 234              	.LBB213:
 485:Modules/include/MAVLink/common/../mavlink_helpers.h **** }
 235              		.loc 2 485 2 view .LVU34
 485:Modules/include/MAVLink/common/../mavlink_helpers.h **** }
 236              		.loc 2 485 16 is_stmt 0 view .LVU35
 237 0036 4FF6FF72 		movw	r2, #65535
 238 003a 1A80     		strh	r2, [r3]	@ movhi
 239              	.LVL7:
 486:Modules/include/MAVLink/common/../mavlink_helpers.h **** 
 240              		.loc 2 486 1 view .LVU36
 241 003c 6DE0     		b	.L15
 242              	.LVL8:
 243              	.L155:
 486:Modules/include/MAVLink/common/../mavlink_helpers.h **** 
 244              		.loc 2 486 1 view .LVU37
 245              	.LBE213:
 246              	.LBE214:
 587:Modules/include/MAVLink/common/../mavlink_helpers.h **** 			rxmsg->len = 0;
 247              		.loc 2 587 4 is_stmt 1 view .LVU38
 587:Modules/include/MAVLink/common/../mavlink_helpers.h **** 			rxmsg->len = 0;
 248              		.loc 2 587 24 is_stmt 0 view .LVU39
 249 003e AB4A     		ldr	r2, .L188
 250 0040 0223     		movs	r3, #2
 251 0042 D370     		strb	r3, [r2, #3]
 588:Modules/include/MAVLink/common/../mavlink_helpers.h **** 			rxmsg->magic = c;
 252              		.loc 2 588 4 is_stmt 1 view .LVU40
 588:Modules/include/MAVLink/common/../mavlink_helpers.h **** 			rxmsg->magic = c;
 253              		.loc 2 588 15 is_stmt 0 view .LVU41
 254 0044 AA4B     		ldr	r3, .L188+4
 255 0046 0021     		movs	r1, #0
 256 0048 D970     		strb	r1, [r3, #3]
 589:Modules/include/MAVLink/common/../mavlink_helpers.h ****                         status->flags &= ~MAVLINK_STATUS_FLAG_IN_MAVLINK1;
 257              		.loc 2 589 4 is_stmt 1 view .LVU42
 589:Modules/include/MAVLink/common/../mavlink_helpers.h ****                         status->flags &= ~MAVLINK_STATUS_FLAG_IN_MAVLINK1;
 258              		.loc 2 589 17 is_stmt 0 view .LVU43
 259 004a 83F802B0 		strb	fp, [r3, #2]
 590:Modules/include/MAVLink/common/../mavlink_helpers.h **** 			mavlink_start_checksum(rxmsg);
 260              		.loc 2 590 25 is_stmt 1 view .LVU44
 590:Modules/include/MAVLink/common/../mavlink_helpers.h **** 			mavlink_start_checksum(rxmsg);
 261              		.loc 2 590 39 is_stmt 0 view .LVU45
 262 004e 117B     		ldrb	r1, [r2, #12]	@ zero_extendqisi2
 263 0050 21F00101 		bic	r1, r1, #1
 264 0054 1173     		strb	r1, [r2, #12]
 591:Modules/include/MAVLink/common/../mavlink_helpers.h **** 		} else if (c == MAVLINK_STX_MAVLINK1)
 265              		.loc 2 591 4 is_stmt 1 view .LVU46
 266              	.LVL9:
 267              	.LBB215:
ARM GAS  C:\Users\luoha\AppData\Local\Temp\cctfed2n.s 			page 19


 268              	.LBI215:
 481:Modules/include/MAVLink/common/../mavlink_helpers.h **** {
 269              		.loc 2 481 21 view .LVU47
 270              	.LBB216:
 483:Modules/include/MAVLink/common/../mavlink_helpers.h **** 	crc_init(&crcTmp);
 271              		.loc 2 483 2 view .LVU48
 484:Modules/include/MAVLink/common/../mavlink_helpers.h **** 	msg->checksum = crcTmp;
 272              		.loc 2 484 2 view .LVU49
 484:Modules/include/MAVLink/common/../mavlink_helpers.h **** 	msg->checksum = crcTmp;
 273              		.loc 2 484 2 is_stmt 0 view .LVU50
 274              	.LBE216:
 275              	.LBE215:
 276              	.LBE335:
 277              	.LBE338:
 278              	.LBE341:
 279              	.LBE357:
 280              	.LBE364:
 281              	.LBE371:
 282              		.loc 3 54 9 is_stmt 1 view .LVU51
 283              	.LBB372:
 284              	.LBB365:
 285              	.LBB358:
 286              	.LBB342:
 287              	.LBB339:
 288              	.LBB336:
 289              	.LBB218:
 290              	.LBB217:
 485:Modules/include/MAVLink/common/../mavlink_helpers.h **** }
 291              		.loc 2 485 2 view .LVU52
 485:Modules/include/MAVLink/common/../mavlink_helpers.h **** }
 292              		.loc 2 485 16 is_stmt 0 view .LVU53
 293 0056 4FF6FF72 		movw	r2, #65535
 294 005a 1A80     		strh	r2, [r3]	@ movhi
 295              	.LVL10:
 486:Modules/include/MAVLink/common/../mavlink_helpers.h **** 
 296              		.loc 2 486 1 view .LVU54
 297 005c 5DE0     		b	.L15
 298              	.LVL11:
 299              	.L29:
 486:Modules/include/MAVLink/common/../mavlink_helpers.h **** 
 300              		.loc 2 486 1 view .LVU55
 301              	.LBE217:
 302              	.LBE218:
 599:Modules/include/MAVLink/common/../mavlink_helpers.h **** 		}
 600:Modules/include/MAVLink/common/../mavlink_helpers.h **** 		break;
 601:Modules/include/MAVLink/common/../mavlink_helpers.h **** 
 602:Modules/include/MAVLink/common/../mavlink_helpers.h **** 	case MAVLINK_PARSE_STATE_GOT_STX:
 603:Modules/include/MAVLink/common/../mavlink_helpers.h **** 			if (status->msg_received 
 303              		.loc 2 603 4 is_stmt 1 view .LVU56
 604:Modules/include/MAVLink/common/../mavlink_helpers.h **** /* Support shorter buffers than the
 605:Modules/include/MAVLink/common/../mavlink_helpers.h ****    default maximum packet size */
 606:Modules/include/MAVLink/common/../mavlink_helpers.h **** #if (MAVLINK_MAX_PAYLOAD_LEN < 255)
 607:Modules/include/MAVLink/common/../mavlink_helpers.h **** 				|| c > MAVLINK_MAX_PAYLOAD_LEN
 608:Modules/include/MAVLink/common/../mavlink_helpers.h **** #endif
 609:Modules/include/MAVLink/common/../mavlink_helpers.h **** 				)
 610:Modules/include/MAVLink/common/../mavlink_helpers.h **** 		{
 611:Modules/include/MAVLink/common/../mavlink_helpers.h **** 			status->buffer_overrun++;
ARM GAS  C:\Users\luoha\AppData\Local\Temp\cctfed2n.s 			page 20


 612:Modules/include/MAVLink/common/../mavlink_helpers.h **** 			_mav_parse_error(status);
 613:Modules/include/MAVLink/common/../mavlink_helpers.h **** 			status->msg_received = 0;
 614:Modules/include/MAVLink/common/../mavlink_helpers.h **** 			status->parse_state = MAVLINK_PARSE_STATE_IDLE;
 615:Modules/include/MAVLink/common/../mavlink_helpers.h **** 		}
 616:Modules/include/MAVLink/common/../mavlink_helpers.h **** 		else
 617:Modules/include/MAVLink/common/../mavlink_helpers.h **** 		{
 618:Modules/include/MAVLink/common/../mavlink_helpers.h **** 			// NOT counting STX, LENGTH, SEQ, SYSID, COMPID, MSGID, CRC1 and CRC2
 619:Modules/include/MAVLink/common/../mavlink_helpers.h **** 			rxmsg->len = c;
 304              		.loc 2 619 4 view .LVU57
 305              		.loc 2 619 15 is_stmt 0 view .LVU58
 306 005e A449     		ldr	r1, .L188+4
 307 0060 81F803B0 		strb	fp, [r1, #3]
 620:Modules/include/MAVLink/common/../mavlink_helpers.h **** 			status->packet_idx = 0;
 308              		.loc 2 620 4 is_stmt 1 view .LVU59
 309              		.loc 2 620 23 is_stmt 0 view .LVU60
 310 0064 A148     		ldr	r0, .L188
 311 0066 0023     		movs	r3, #0
 312 0068 0371     		strb	r3, [r0, #4]
 621:Modules/include/MAVLink/common/../mavlink_helpers.h **** 			mavlink_update_checksum(rxmsg, c);
 313              		.loc 2 621 4 is_stmt 1 view .LVU61
 314              	.LVL12:
 315              	.LBB219:
 316              	.LBI219:
 488:Modules/include/MAVLink/common/../mavlink_helpers.h **** {
 317              		.loc 2 488 21 view .LVU62
 318              	.LBB220:
 490:Modules/include/MAVLink/common/../mavlink_helpers.h **** 	crc_accumulate(c, &checksum);
 319              		.loc 2 490 2 view .LVU63
 490:Modules/include/MAVLink/common/../mavlink_helpers.h **** 	crc_accumulate(c, &checksum);
 320              		.loc 2 490 25 is_stmt 0 view .LVU64
 321 006a 0B88     		ldrh	r3, [r1]
 322              	.LVL13:
 491:Modules/include/MAVLink/common/../mavlink_helpers.h **** 	msg->checksum = checksum;
 323              		.loc 2 491 2 is_stmt 1 view .LVU65
 324              	.LBB221:
 325              	.LBI221:
  35:Modules/include/MAVLink/common/../checksum.h **** {
 326              		.loc 3 35 20 view .LVU66
 327              	.LBB222:
  38:Modules/include/MAVLink/common/../checksum.h **** 
 328              		.loc 3 38 9 view .LVU67
  40:Modules/include/MAVLink/common/../checksum.h ****         tmp ^= (tmp<<4);
 329              		.loc 3 40 9 view .LVU68
  40:Modules/include/MAVLink/common/../checksum.h ****         tmp ^= (tmp<<4);
 330              		.loc 3 40 22 is_stmt 0 view .LVU69
 331 006c DAB2     		uxtb	r2, r3
  40:Modules/include/MAVLink/common/../checksum.h ****         tmp ^= (tmp<<4);
 332              		.loc 3 40 13 view .LVU70
 333 006e 8BEA0202 		eor	r2, fp, r2
 334              	.LVL14:
  41:Modules/include/MAVLink/common/../checksum.h ****         *crcAccum = (*crcAccum>>8) ^ (tmp<<8) ^ (tmp <<3) ^ (tmp>>4);
 335              		.loc 3 41 9 is_stmt 1 view .LVU71
  41:Modules/include/MAVLink/common/../checksum.h ****         *crcAccum = (*crcAccum>>8) ^ (tmp<<8) ^ (tmp <<3) ^ (tmp>>4);
 336              		.loc 3 41 13 is_stmt 0 view .LVU72
 337 0072 82EA0212 		eor	r2, r2, r2, lsl #4
 338              	.LVL15:
  41:Modules/include/MAVLink/common/../checksum.h ****         *crcAccum = (*crcAccum>>8) ^ (tmp<<8) ^ (tmp <<3) ^ (tmp>>4);
ARM GAS  C:\Users\luoha\AppData\Local\Temp\cctfed2n.s 			page 21


 339              		.loc 3 41 13 view .LVU73
 340 0076 D2B2     		uxtb	r2, r2
 341              	.LVL16:
  42:Modules/include/MAVLink/common/../checksum.h **** }
 342              		.loc 3 42 9 is_stmt 1 view .LVU74
  42:Modules/include/MAVLink/common/../checksum.h **** }
 343              		.loc 3 42 36 is_stmt 0 view .LVU75
 344 0078 1B0A     		lsrs	r3, r3, #8
 345              	.LVL17:
  42:Modules/include/MAVLink/common/../checksum.h **** }
 346              		.loc 3 42 36 view .LVU76
 347 007a 43EA0223 		orr	r3, r3, r2, lsl #8
 348 007e 1BB2     		sxth	r3, r3
  42:Modules/include/MAVLink/common/../checksum.h **** }
 349              		.loc 3 42 47 view .LVU77
 350 0080 83EAC203 		eor	r3, r3, r2, lsl #3
  42:Modules/include/MAVLink/common/../checksum.h **** }
 351              		.loc 3 42 59 view .LVU78
 352 0084 83EA1213 		eor	r3, r3, r2, lsr #4
 353              	.LVL18:
  42:Modules/include/MAVLink/common/../checksum.h **** }
 354              		.loc 3 42 59 view .LVU79
 355              	.LBE222:
 356              	.LBE221:
 492:Modules/include/MAVLink/common/../mavlink_helpers.h **** }
 357              		.loc 2 492 2 is_stmt 1 view .LVU80
 492:Modules/include/MAVLink/common/../mavlink_helpers.h **** }
 358              		.loc 2 492 16 is_stmt 0 view .LVU81
 359 0088 0B80     		strh	r3, [r1]	@ movhi
 360              	.LVL19:
 492:Modules/include/MAVLink/common/../mavlink_helpers.h **** }
 361              		.loc 2 492 16 view .LVU82
 362              	.LBE220:
 363              	.LBE219:
 622:Modules/include/MAVLink/common/../mavlink_helpers.h ****                         if (status->flags & MAVLINK_STATUS_FLAG_IN_MAVLINK1) {
 364              		.loc 2 622 25 is_stmt 1 view .LVU83
 365              		.loc 2 622 35 is_stmt 0 view .LVU84
 366 008a 037B     		ldrb	r3, [r0, #12]	@ zero_extendqisi2
 367              		.loc 2 622 28 view .LVU85
 368 008c 13F0010F 		tst	r3, #1
 369 0090 05D0     		beq	.L32
 623:Modules/include/MAVLink/common/../mavlink_helpers.h ****                             rxmsg->incompat_flags = 0;
 370              		.loc 2 623 29 is_stmt 1 view .LVU86
 371              		.loc 2 623 51 is_stmt 0 view .LVU87
 372 0092 0022     		movs	r2, #0
 373 0094 0A71     		strb	r2, [r1, #4]
 624:Modules/include/MAVLink/common/../mavlink_helpers.h ****                             rxmsg->compat_flags = 0;
 374              		.loc 2 624 29 is_stmt 1 view .LVU88
 375              		.loc 2 624 49 is_stmt 0 view .LVU89
 376 0096 4A71     		strb	r2, [r1, #5]
 625:Modules/include/MAVLink/common/../mavlink_helpers.h ****                             status->parse_state = MAVLINK_PARSE_STATE_GOT_COMPAT_FLAGS;
 377              		.loc 2 625 29 is_stmt 1 view .LVU90
 378              		.loc 2 625 49 is_stmt 0 view .LVU91
 379 0098 0522     		movs	r2, #5
 380 009a C270     		strb	r2, [r0, #3]
 381 009c 3DE0     		b	.L15
 382              	.L32:
ARM GAS  C:\Users\luoha\AppData\Local\Temp\cctfed2n.s 			page 22


 626:Modules/include/MAVLink/common/../mavlink_helpers.h ****                         } else {
 627:Modules/include/MAVLink/common/../mavlink_helpers.h ****                             status->parse_state = MAVLINK_PARSE_STATE_GOT_LENGTH;
 383              		.loc 2 627 29 is_stmt 1 view .LVU92
 384              		.loc 2 627 49 is_stmt 0 view .LVU93
 385 009e 934B     		ldr	r3, .L188
 386 00a0 0322     		movs	r2, #3
 387 00a2 DA70     		strb	r2, [r3, #3]
 388 00a4 39E0     		b	.L15
 389              	.L28:
 628:Modules/include/MAVLink/common/../mavlink_helpers.h ****                         }
 629:Modules/include/MAVLink/common/../mavlink_helpers.h **** 		}
 630:Modules/include/MAVLink/common/../mavlink_helpers.h **** 		break;
 631:Modules/include/MAVLink/common/../mavlink_helpers.h **** 
 632:Modules/include/MAVLink/common/../mavlink_helpers.h **** 	case MAVLINK_PARSE_STATE_GOT_LENGTH:
 633:Modules/include/MAVLink/common/../mavlink_helpers.h **** 		rxmsg->incompat_flags = c;
 390              		.loc 2 633 3 is_stmt 1 view .LVU94
 391              		.loc 2 633 25 is_stmt 0 view .LVU95
 392 00a6 924B     		ldr	r3, .L188+4
 393 00a8 83F804B0 		strb	fp, [r3, #4]
 634:Modules/include/MAVLink/common/../mavlink_helpers.h **** 		if ((rxmsg->incompat_flags & ~MAVLINK_IFLAG_MASK) != 0) {
 394              		.loc 2 634 3 is_stmt 1 view .LVU96
 395              		.loc 2 634 6 is_stmt 0 view .LVU97
 396 00ac 3BF00103 		bics	r3, fp, #1
 397 00b0 08D0     		beq	.L33
 635:Modules/include/MAVLink/common/../mavlink_helpers.h **** 			// message includes an incompatible feature flag
 636:Modules/include/MAVLink/common/../mavlink_helpers.h **** 			_mav_parse_error(status);
 398              		.loc 2 636 4 is_stmt 1 view .LVU98
 399              	.LVL20:
 400              	.LBB223:
 401              	.LBI223:
 291:Modules/include/MAVLink/common/../mavlink_helpers.h **** {
 402              		.loc 2 291 20 view .LVU99
 403              	.LBB224:
 293:Modules/include/MAVLink/common/../mavlink_helpers.h **** }
 404              		.loc 2 293 5 view .LVU100
 293:Modules/include/MAVLink/common/../mavlink_helpers.h **** }
 405              		.loc 2 293 11 is_stmt 0 view .LVU101
 406 00b2 8E4B     		ldr	r3, .L188
 407 00b4 9A78     		ldrb	r2, [r3, #2]	@ zero_extendqisi2
 293:Modules/include/MAVLink/common/../mavlink_helpers.h **** }
 408              		.loc 2 293 24 view .LVU102
 409 00b6 0132     		adds	r2, r2, #1
 410 00b8 9A70     		strb	r2, [r3, #2]
 411              	.LVL21:
 293:Modules/include/MAVLink/common/../mavlink_helpers.h **** }
 412              		.loc 2 293 24 view .LVU103
 413              	.LBE224:
 414              	.LBE223:
 637:Modules/include/MAVLink/common/../mavlink_helpers.h **** 			status->msg_received = 0;
 415              		.loc 2 637 4 is_stmt 1 view .LVU104
 416              		.loc 2 637 25 is_stmt 0 view .LVU105
 417 00ba 0022     		movs	r2, #0
 418 00bc 1A70     		strb	r2, [r3]
 638:Modules/include/MAVLink/common/../mavlink_helpers.h **** 			status->parse_state = MAVLINK_PARSE_STATE_IDLE;
 419              		.loc 2 638 4 is_stmt 1 view .LVU106
 420              		.loc 2 638 24 is_stmt 0 view .LVU107
 421 00be 0122     		movs	r2, #1
ARM GAS  C:\Users\luoha\AppData\Local\Temp\cctfed2n.s 			page 23


 422 00c0 DA70     		strb	r2, [r3, #3]
 639:Modules/include/MAVLink/common/../mavlink_helpers.h **** 			break;
 423              		.loc 2 639 4 is_stmt 1 view .LVU108
 424 00c2 2AE0     		b	.L15
 425              	.L33:
 640:Modules/include/MAVLink/common/../mavlink_helpers.h **** 		}
 641:Modules/include/MAVLink/common/../mavlink_helpers.h **** 		mavlink_update_checksum(rxmsg, c);
 426              		.loc 2 641 3 view .LVU109
 427              	.LVL22:
 428              	.LBB225:
 429              	.LBI225:
 488:Modules/include/MAVLink/common/../mavlink_helpers.h **** {
 430              		.loc 2 488 21 view .LVU110
 431              	.LBB226:
 490:Modules/include/MAVLink/common/../mavlink_helpers.h **** 	crc_accumulate(c, &checksum);
 432              		.loc 2 490 2 view .LVU111
 490:Modules/include/MAVLink/common/../mavlink_helpers.h **** 	crc_accumulate(c, &checksum);
 433              		.loc 2 490 25 is_stmt 0 view .LVU112
 434 00c4 8A49     		ldr	r1, .L188+4
 435 00c6 0B88     		ldrh	r3, [r1]
 436              	.LVL23:
 491:Modules/include/MAVLink/common/../mavlink_helpers.h **** 	msg->checksum = checksum;
 437              		.loc 2 491 2 is_stmt 1 view .LVU113
 438              	.LBB227:
 439              	.LBI227:
  35:Modules/include/MAVLink/common/../checksum.h **** {
 440              		.loc 3 35 20 view .LVU114
 441              	.LBB228:
  38:Modules/include/MAVLink/common/../checksum.h **** 
 442              		.loc 3 38 9 view .LVU115
  40:Modules/include/MAVLink/common/../checksum.h ****         tmp ^= (tmp<<4);
 443              		.loc 3 40 9 view .LVU116
  40:Modules/include/MAVLink/common/../checksum.h ****         tmp ^= (tmp<<4);
 444              		.loc 3 40 22 is_stmt 0 view .LVU117
 445 00c8 DAB2     		uxtb	r2, r3
  40:Modules/include/MAVLink/common/../checksum.h ****         tmp ^= (tmp<<4);
 446              		.loc 3 40 13 view .LVU118
 447 00ca 8BEA0202 		eor	r2, fp, r2
 448              	.LVL24:
  41:Modules/include/MAVLink/common/../checksum.h ****         *crcAccum = (*crcAccum>>8) ^ (tmp<<8) ^ (tmp <<3) ^ (tmp>>4);
 449              		.loc 3 41 9 is_stmt 1 view .LVU119
  41:Modules/include/MAVLink/common/../checksum.h ****         *crcAccum = (*crcAccum>>8) ^ (tmp<<8) ^ (tmp <<3) ^ (tmp>>4);
 450              		.loc 3 41 13 is_stmt 0 view .LVU120
 451 00ce 82EA0212 		eor	r2, r2, r2, lsl #4
 452              	.LVL25:
  41:Modules/include/MAVLink/common/../checksum.h ****         *crcAccum = (*crcAccum>>8) ^ (tmp<<8) ^ (tmp <<3) ^ (tmp>>4);
 453              		.loc 3 41 13 view .LVU121
 454 00d2 D2B2     		uxtb	r2, r2
 455              	.LVL26:
  42:Modules/include/MAVLink/common/../checksum.h **** }
 456              		.loc 3 42 9 is_stmt 1 view .LVU122
  42:Modules/include/MAVLink/common/../checksum.h **** }
 457              		.loc 3 42 36 is_stmt 0 view .LVU123
 458 00d4 1B0A     		lsrs	r3, r3, #8
 459              	.LVL27:
  42:Modules/include/MAVLink/common/../checksum.h **** }
 460              		.loc 3 42 36 view .LVU124
ARM GAS  C:\Users\luoha\AppData\Local\Temp\cctfed2n.s 			page 24


 461 00d6 43EA0223 		orr	r3, r3, r2, lsl #8
 462 00da 1BB2     		sxth	r3, r3
  42:Modules/include/MAVLink/common/../checksum.h **** }
 463              		.loc 3 42 47 view .LVU125
 464 00dc 83EAC203 		eor	r3, r3, r2, lsl #3
  42:Modules/include/MAVLink/common/../checksum.h **** }
 465              		.loc 3 42 59 view .LVU126
 466 00e0 83EA1213 		eor	r3, r3, r2, lsr #4
 467              	.LVL28:
  42:Modules/include/MAVLink/common/../checksum.h **** }
 468              		.loc 3 42 59 view .LVU127
 469              	.LBE228:
 470              	.LBE227:
 492:Modules/include/MAVLink/common/../mavlink_helpers.h **** }
 471              		.loc 2 492 2 is_stmt 1 view .LVU128
 492:Modules/include/MAVLink/common/../mavlink_helpers.h **** }
 472              		.loc 2 492 16 is_stmt 0 view .LVU129
 473 00e4 0B80     		strh	r3, [r1]	@ movhi
 474              	.LVL29:
 492:Modules/include/MAVLink/common/../mavlink_helpers.h **** }
 475              		.loc 2 492 16 view .LVU130
 476              	.LBE226:
 477              	.LBE225:
 642:Modules/include/MAVLink/common/../mavlink_helpers.h **** 		status->parse_state = MAVLINK_PARSE_STATE_GOT_INCOMPAT_FLAGS;
 478              		.loc 2 642 3 is_stmt 1 view .LVU131
 479              		.loc 2 642 23 is_stmt 0 view .LVU132
 480 00e6 814B     		ldr	r3, .L188
 481 00e8 0422     		movs	r2, #4
 482 00ea DA70     		strb	r2, [r3, #3]
 643:Modules/include/MAVLink/common/../mavlink_helpers.h **** 		break;
 483              		.loc 2 643 3 is_stmt 1 view .LVU133
 484 00ec 15E0     		b	.L15
 485              	.L27:
 644:Modules/include/MAVLink/common/../mavlink_helpers.h **** 
 645:Modules/include/MAVLink/common/../mavlink_helpers.h **** 	case MAVLINK_PARSE_STATE_GOT_INCOMPAT_FLAGS:
 646:Modules/include/MAVLink/common/../mavlink_helpers.h **** 		rxmsg->compat_flags = c;
 486              		.loc 2 646 3 view .LVU134
 487              		.loc 2 646 23 is_stmt 0 view .LVU135
 488 00ee 8049     		ldr	r1, .L188+4
 489 00f0 81F805B0 		strb	fp, [r1, #5]
 647:Modules/include/MAVLink/common/../mavlink_helpers.h **** 		mavlink_update_checksum(rxmsg, c);
 490              		.loc 2 647 3 is_stmt 1 view .LVU136
 491              	.LVL30:
 492              	.LBB229:
 493              	.LBI229:
 488:Modules/include/MAVLink/common/../mavlink_helpers.h **** {
 494              		.loc 2 488 21 view .LVU137
 495              	.LBB230:
 490:Modules/include/MAVLink/common/../mavlink_helpers.h **** 	crc_accumulate(c, &checksum);
 496              		.loc 2 490 2 view .LVU138
 490:Modules/include/MAVLink/common/../mavlink_helpers.h **** 	crc_accumulate(c, &checksum);
 497              		.loc 2 490 25 is_stmt 0 view .LVU139
 498 00f4 0B88     		ldrh	r3, [r1]
 499              	.LVL31:
 491:Modules/include/MAVLink/common/../mavlink_helpers.h **** 	msg->checksum = checksum;
 500              		.loc 2 491 2 is_stmt 1 view .LVU140
 501              	.LBB231:
ARM GAS  C:\Users\luoha\AppData\Local\Temp\cctfed2n.s 			page 25


 502              	.LBI231:
  35:Modules/include/MAVLink/common/../checksum.h **** {
 503              		.loc 3 35 20 view .LVU141
 504              	.LBB232:
  38:Modules/include/MAVLink/common/../checksum.h **** 
 505              		.loc 3 38 9 view .LVU142
  40:Modules/include/MAVLink/common/../checksum.h ****         tmp ^= (tmp<<4);
 506              		.loc 3 40 9 view .LVU143
  40:Modules/include/MAVLink/common/../checksum.h ****         tmp ^= (tmp<<4);
 507              		.loc 3 40 22 is_stmt 0 view .LVU144
 508 00f6 DAB2     		uxtb	r2, r3
  40:Modules/include/MAVLink/common/../checksum.h ****         tmp ^= (tmp<<4);
 509              		.loc 3 40 13 view .LVU145
 510 00f8 8BEA0202 		eor	r2, fp, r2
 511              	.LVL32:
  41:Modules/include/MAVLink/common/../checksum.h ****         *crcAccum = (*crcAccum>>8) ^ (tmp<<8) ^ (tmp <<3) ^ (tmp>>4);
 512              		.loc 3 41 9 is_stmt 1 view .LVU146
  41:Modules/include/MAVLink/common/../checksum.h ****         *crcAccum = (*crcAccum>>8) ^ (tmp<<8) ^ (tmp <<3) ^ (tmp>>4);
 513              		.loc 3 41 13 is_stmt 0 view .LVU147
 514 00fc 82EA0212 		eor	r2, r2, r2, lsl #4
 515              	.LVL33:
  41:Modules/include/MAVLink/common/../checksum.h ****         *crcAccum = (*crcAccum>>8) ^ (tmp<<8) ^ (tmp <<3) ^ (tmp>>4);
 516              		.loc 3 41 13 view .LVU148
 517 0100 D2B2     		uxtb	r2, r2
 518              	.LVL34:
  42:Modules/include/MAVLink/common/../checksum.h **** }
 519              		.loc 3 42 9 is_stmt 1 view .LVU149
  42:Modules/include/MAVLink/common/../checksum.h **** }
 520              		.loc 3 42 36 is_stmt 0 view .LVU150
 521 0102 1B0A     		lsrs	r3, r3, #8
 522              	.LVL35:
  42:Modules/include/MAVLink/common/../checksum.h **** }
 523              		.loc 3 42 36 view .LVU151
 524 0104 43EA0223 		orr	r3, r3, r2, lsl #8
 525 0108 1BB2     		sxth	r3, r3
  42:Modules/include/MAVLink/common/../checksum.h **** }
 526              		.loc 3 42 47 view .LVU152
 527 010a 83EAC203 		eor	r3, r3, r2, lsl #3
  42:Modules/include/MAVLink/common/../checksum.h **** }
 528              		.loc 3 42 59 view .LVU153
 529 010e 83EA1213 		eor	r3, r3, r2, lsr #4
 530              	.LVL36:
  42:Modules/include/MAVLink/common/../checksum.h **** }
 531              		.loc 3 42 59 view .LVU154
 532              	.LBE232:
 533              	.LBE231:
 492:Modules/include/MAVLink/common/../mavlink_helpers.h **** }
 534              		.loc 2 492 2 is_stmt 1 view .LVU155
 492:Modules/include/MAVLink/common/../mavlink_helpers.h **** }
 535              		.loc 2 492 16 is_stmt 0 view .LVU156
 536 0112 0B80     		strh	r3, [r1]	@ movhi
 537              	.LVL37:
 492:Modules/include/MAVLink/common/../mavlink_helpers.h **** }
 538              		.loc 2 492 16 view .LVU157
 539              	.LBE230:
 540              	.LBE229:
 648:Modules/include/MAVLink/common/../mavlink_helpers.h **** 		status->parse_state = MAVLINK_PARSE_STATE_GOT_COMPAT_FLAGS;
ARM GAS  C:\Users\luoha\AppData\Local\Temp\cctfed2n.s 			page 26


 541              		.loc 2 648 3 is_stmt 1 view .LVU158
 542              		.loc 2 648 23 is_stmt 0 view .LVU159
 543 0114 754B     		ldr	r3, .L188
 544 0116 0522     		movs	r2, #5
 545 0118 DA70     		strb	r2, [r3, #3]
 649:Modules/include/MAVLink/common/../mavlink_helpers.h **** 		break;
 546              		.loc 2 649 3 is_stmt 1 view .LVU160
 547              	.LVL38:
 548              	.L15:
 650:Modules/include/MAVLink/common/../mavlink_helpers.h **** 
 651:Modules/include/MAVLink/common/../mavlink_helpers.h **** 	case MAVLINK_PARSE_STATE_GOT_COMPAT_FLAGS:
 652:Modules/include/MAVLink/common/../mavlink_helpers.h **** 		rxmsg->seq = c;
 653:Modules/include/MAVLink/common/../mavlink_helpers.h **** 		mavlink_update_checksum(rxmsg, c);
 654:Modules/include/MAVLink/common/../mavlink_helpers.h **** 		status->parse_state = MAVLINK_PARSE_STATE_GOT_SEQ;
 655:Modules/include/MAVLink/common/../mavlink_helpers.h **** 		break;
 656:Modules/include/MAVLink/common/../mavlink_helpers.h ****                 
 657:Modules/include/MAVLink/common/../mavlink_helpers.h **** 	case MAVLINK_PARSE_STATE_GOT_SEQ:
 658:Modules/include/MAVLink/common/../mavlink_helpers.h **** 		rxmsg->sysid = c;
 659:Modules/include/MAVLink/common/../mavlink_helpers.h **** 		mavlink_update_checksum(rxmsg, c);
 660:Modules/include/MAVLink/common/../mavlink_helpers.h **** 		status->parse_state = MAVLINK_PARSE_STATE_GOT_SYSID;
 661:Modules/include/MAVLink/common/../mavlink_helpers.h **** 		break;
 662:Modules/include/MAVLink/common/../mavlink_helpers.h **** 
 663:Modules/include/MAVLink/common/../mavlink_helpers.h **** 	case MAVLINK_PARSE_STATE_GOT_SYSID:
 664:Modules/include/MAVLink/common/../mavlink_helpers.h **** 		rxmsg->compid = c;
 665:Modules/include/MAVLink/common/../mavlink_helpers.h **** 		mavlink_update_checksum(rxmsg, c);
 666:Modules/include/MAVLink/common/../mavlink_helpers.h ****                 status->parse_state = MAVLINK_PARSE_STATE_GOT_COMPID;
 667:Modules/include/MAVLink/common/../mavlink_helpers.h **** 		break;
 668:Modules/include/MAVLink/common/../mavlink_helpers.h **** 
 669:Modules/include/MAVLink/common/../mavlink_helpers.h **** 	case MAVLINK_PARSE_STATE_GOT_COMPID:
 670:Modules/include/MAVLink/common/../mavlink_helpers.h **** 		rxmsg->msgid = c;
 671:Modules/include/MAVLink/common/../mavlink_helpers.h **** 		mavlink_update_checksum(rxmsg, c);
 672:Modules/include/MAVLink/common/../mavlink_helpers.h **** 		if (status->flags & MAVLINK_STATUS_FLAG_IN_MAVLINK1) {
 673:Modules/include/MAVLink/common/../mavlink_helpers.h **** 			if(rxmsg->len > 0) {
 674:Modules/include/MAVLink/common/../mavlink_helpers.h **** 				status->parse_state = MAVLINK_PARSE_STATE_GOT_MSGID3;
 675:Modules/include/MAVLink/common/../mavlink_helpers.h **** 			} else {
 676:Modules/include/MAVLink/common/../mavlink_helpers.h **** 				status->parse_state = MAVLINK_PARSE_STATE_GOT_PAYLOAD;
 677:Modules/include/MAVLink/common/../mavlink_helpers.h **** 			}
 678:Modules/include/MAVLink/common/../mavlink_helpers.h **** #ifdef MAVLINK_CHECK_MESSAGE_LENGTH
 679:Modules/include/MAVLink/common/../mavlink_helpers.h **** 			if (rxmsg->len < mavlink_min_message_length(rxmsg) ||
 680:Modules/include/MAVLink/common/../mavlink_helpers.h **** 				rxmsg->len > mavlink_max_message_length(rxmsg)) {
 681:Modules/include/MAVLink/common/../mavlink_helpers.h **** 				_mav_parse_error(status);
 682:Modules/include/MAVLink/common/../mavlink_helpers.h **** 				status->parse_state = MAVLINK_PARSE_STATE_IDLE;
 683:Modules/include/MAVLink/common/../mavlink_helpers.h **** 				break;
 684:Modules/include/MAVLink/common/../mavlink_helpers.h **** 			}
 685:Modules/include/MAVLink/common/../mavlink_helpers.h **** #endif
 686:Modules/include/MAVLink/common/../mavlink_helpers.h **** 		} else {
 687:Modules/include/MAVLink/common/../mavlink_helpers.h **** 			status->parse_state = MAVLINK_PARSE_STATE_GOT_MSGID1;
 688:Modules/include/MAVLink/common/../mavlink_helpers.h **** 		}
 689:Modules/include/MAVLink/common/../mavlink_helpers.h **** 		break;
 690:Modules/include/MAVLink/common/../mavlink_helpers.h **** 
 691:Modules/include/MAVLink/common/../mavlink_helpers.h **** 	case MAVLINK_PARSE_STATE_GOT_MSGID1:
 692:Modules/include/MAVLink/common/../mavlink_helpers.h **** 		rxmsg->msgid |= c<<8;
 693:Modules/include/MAVLink/common/../mavlink_helpers.h **** 		mavlink_update_checksum(rxmsg, c);
 694:Modules/include/MAVLink/common/../mavlink_helpers.h **** 		status->parse_state = MAVLINK_PARSE_STATE_GOT_MSGID2;
 695:Modules/include/MAVLink/common/../mavlink_helpers.h **** 		break;
 696:Modules/include/MAVLink/common/../mavlink_helpers.h **** 
 697:Modules/include/MAVLink/common/../mavlink_helpers.h **** 	case MAVLINK_PARSE_STATE_GOT_MSGID2:
ARM GAS  C:\Users\luoha\AppData\Local\Temp\cctfed2n.s 			page 27


 698:Modules/include/MAVLink/common/../mavlink_helpers.h **** 		rxmsg->msgid |= ((uint32_t)c)<<16;
 699:Modules/include/MAVLink/common/../mavlink_helpers.h **** 		mavlink_update_checksum(rxmsg, c);
 700:Modules/include/MAVLink/common/../mavlink_helpers.h **** 		if(rxmsg->len > 0){
 701:Modules/include/MAVLink/common/../mavlink_helpers.h **** 			status->parse_state = MAVLINK_PARSE_STATE_GOT_MSGID3;
 702:Modules/include/MAVLink/common/../mavlink_helpers.h **** 		} else {
 703:Modules/include/MAVLink/common/../mavlink_helpers.h **** 			status->parse_state = MAVLINK_PARSE_STATE_GOT_PAYLOAD;
 704:Modules/include/MAVLink/common/../mavlink_helpers.h **** 		}
 705:Modules/include/MAVLink/common/../mavlink_helpers.h **** #ifdef MAVLINK_CHECK_MESSAGE_LENGTH
 706:Modules/include/MAVLink/common/../mavlink_helpers.h ****         if (rxmsg->len < mavlink_min_message_length(rxmsg) ||
 707:Modules/include/MAVLink/common/../mavlink_helpers.h ****             rxmsg->len > mavlink_max_message_length(rxmsg))
 708:Modules/include/MAVLink/common/../mavlink_helpers.h ****         {
 709:Modules/include/MAVLink/common/../mavlink_helpers.h **** 			_mav_parse_error(status);
 710:Modules/include/MAVLink/common/../mavlink_helpers.h **** 			status->parse_state = MAVLINK_PARSE_STATE_IDLE;
 711:Modules/include/MAVLink/common/../mavlink_helpers.h **** 			break;
 712:Modules/include/MAVLink/common/../mavlink_helpers.h ****         }
 713:Modules/include/MAVLink/common/../mavlink_helpers.h **** #endif
 714:Modules/include/MAVLink/common/../mavlink_helpers.h **** 		break;
 715:Modules/include/MAVLink/common/../mavlink_helpers.h ****                 
 716:Modules/include/MAVLink/common/../mavlink_helpers.h **** 	case MAVLINK_PARSE_STATE_GOT_MSGID3:
 717:Modules/include/MAVLink/common/../mavlink_helpers.h **** 		_MAV_PAYLOAD_NON_CONST(rxmsg)[status->packet_idx++] = (char)c;
 718:Modules/include/MAVLink/common/../mavlink_helpers.h **** 		mavlink_update_checksum(rxmsg, c);
 719:Modules/include/MAVLink/common/../mavlink_helpers.h **** 		if (status->packet_idx == rxmsg->len)
 720:Modules/include/MAVLink/common/../mavlink_helpers.h **** 		{
 721:Modules/include/MAVLink/common/../mavlink_helpers.h **** 			status->parse_state = MAVLINK_PARSE_STATE_GOT_PAYLOAD;
 722:Modules/include/MAVLink/common/../mavlink_helpers.h **** 		}
 723:Modules/include/MAVLink/common/../mavlink_helpers.h **** 		break;
 724:Modules/include/MAVLink/common/../mavlink_helpers.h **** 
 725:Modules/include/MAVLink/common/../mavlink_helpers.h **** 	case MAVLINK_PARSE_STATE_GOT_PAYLOAD: {
 726:Modules/include/MAVLink/common/../mavlink_helpers.h **** 		const mavlink_msg_entry_t *e = mavlink_get_msg_entry(rxmsg->msgid);
 727:Modules/include/MAVLink/common/../mavlink_helpers.h **** 		uint8_t crc_extra = e?e->crc_extra:0;
 728:Modules/include/MAVLink/common/../mavlink_helpers.h **** 		mavlink_update_checksum(rxmsg, crc_extra);
 729:Modules/include/MAVLink/common/../mavlink_helpers.h **** 		if (c != (rxmsg->checksum & 0xFF)) {
 730:Modules/include/MAVLink/common/../mavlink_helpers.h **** 			status->parse_state = MAVLINK_PARSE_STATE_GOT_BAD_CRC1;
 731:Modules/include/MAVLink/common/../mavlink_helpers.h **** 		} else {
 732:Modules/include/MAVLink/common/../mavlink_helpers.h **** 			status->parse_state = MAVLINK_PARSE_STATE_GOT_CRC1;
 733:Modules/include/MAVLink/common/../mavlink_helpers.h **** 		}
 734:Modules/include/MAVLink/common/../mavlink_helpers.h ****                 rxmsg->ck[0] = c;
 735:Modules/include/MAVLink/common/../mavlink_helpers.h **** 
 736:Modules/include/MAVLink/common/../mavlink_helpers.h **** 		// zero-fill the packet to cope with short incoming packets
 737:Modules/include/MAVLink/common/../mavlink_helpers.h ****                 if (e && status->packet_idx < e->max_msg_len) {
 738:Modules/include/MAVLink/common/../mavlink_helpers.h ****                         memset(&_MAV_PAYLOAD_NON_CONST(rxmsg)[status->packet_idx], 0, e->max_msg_le
 739:Modules/include/MAVLink/common/../mavlink_helpers.h **** 		}
 740:Modules/include/MAVLink/common/../mavlink_helpers.h **** 		break;
 741:Modules/include/MAVLink/common/../mavlink_helpers.h ****         }
 742:Modules/include/MAVLink/common/../mavlink_helpers.h **** 
 743:Modules/include/MAVLink/common/../mavlink_helpers.h **** 	case MAVLINK_PARSE_STATE_GOT_CRC1:
 744:Modules/include/MAVLink/common/../mavlink_helpers.h **** 	case MAVLINK_PARSE_STATE_GOT_BAD_CRC1:
 745:Modules/include/MAVLink/common/../mavlink_helpers.h **** 		if (status->parse_state == MAVLINK_PARSE_STATE_GOT_BAD_CRC1 || c != (rxmsg->checksum >> 8)) {
 746:Modules/include/MAVLink/common/../mavlink_helpers.h **** 			// got a bad CRC message
 747:Modules/include/MAVLink/common/../mavlink_helpers.h **** 			status->msg_received = MAVLINK_FRAMING_BAD_CRC;
 748:Modules/include/MAVLink/common/../mavlink_helpers.h **** 		} else {
 749:Modules/include/MAVLink/common/../mavlink_helpers.h **** 			// Successfully got message
 750:Modules/include/MAVLink/common/../mavlink_helpers.h **** 			status->msg_received = MAVLINK_FRAMING_OK;
 751:Modules/include/MAVLink/common/../mavlink_helpers.h **** 		}
 752:Modules/include/MAVLink/common/../mavlink_helpers.h **** 		rxmsg->ck[1] = c;
 753:Modules/include/MAVLink/common/../mavlink_helpers.h **** 
 754:Modules/include/MAVLink/common/../mavlink_helpers.h **** 		if (rxmsg->incompat_flags & MAVLINK_IFLAG_SIGNED) {
ARM GAS  C:\Users\luoha\AppData\Local\Temp\cctfed2n.s 			page 28


 755:Modules/include/MAVLink/common/../mavlink_helpers.h **** 			status->parse_state = MAVLINK_PARSE_STATE_SIGNATURE_WAIT;
 756:Modules/include/MAVLink/common/../mavlink_helpers.h **** 			status->signature_wait = MAVLINK_SIGNATURE_BLOCK_LEN;
 757:Modules/include/MAVLink/common/../mavlink_helpers.h **** 
 758:Modules/include/MAVLink/common/../mavlink_helpers.h **** 			// If the CRC is already wrong, don't overwrite msg_received,
 759:Modules/include/MAVLink/common/../mavlink_helpers.h **** 			// otherwise we can end up with garbage flagged as valid.
 760:Modules/include/MAVLink/common/../mavlink_helpers.h **** 			if (status->msg_received != MAVLINK_FRAMING_BAD_CRC) {
 761:Modules/include/MAVLink/common/../mavlink_helpers.h **** 				status->msg_received = MAVLINK_FRAMING_INCOMPLETE;
 762:Modules/include/MAVLink/common/../mavlink_helpers.h **** 			}
 763:Modules/include/MAVLink/common/../mavlink_helpers.h **** 		} else {
 764:Modules/include/MAVLink/common/../mavlink_helpers.h **** 			if (status->signing &&
 765:Modules/include/MAVLink/common/../mavlink_helpers.h **** 			   	(status->signing->accept_unsigned_callback == NULL ||
 766:Modules/include/MAVLink/common/../mavlink_helpers.h **** 			   	 !status->signing->accept_unsigned_callback(status, rxmsg->msgid))) {
 767:Modules/include/MAVLink/common/../mavlink_helpers.h **** 
 768:Modules/include/MAVLink/common/../mavlink_helpers.h **** 				// If the CRC is already wrong, don't overwrite msg_received.
 769:Modules/include/MAVLink/common/../mavlink_helpers.h **** 				if (status->msg_received != MAVLINK_FRAMING_BAD_CRC) {
 770:Modules/include/MAVLink/common/../mavlink_helpers.h **** 					status->msg_received = MAVLINK_FRAMING_BAD_SIGNATURE;
 771:Modules/include/MAVLink/common/../mavlink_helpers.h **** 				}
 772:Modules/include/MAVLink/common/../mavlink_helpers.h **** 			}
 773:Modules/include/MAVLink/common/../mavlink_helpers.h **** 			status->parse_state = MAVLINK_PARSE_STATE_IDLE;
 774:Modules/include/MAVLink/common/../mavlink_helpers.h **** 			if (r_message != NULL) {
 775:Modules/include/MAVLink/common/../mavlink_helpers.h **** 				memcpy(r_message, rxmsg, sizeof(mavlink_message_t));
 776:Modules/include/MAVLink/common/../mavlink_helpers.h **** 			}
 777:Modules/include/MAVLink/common/../mavlink_helpers.h **** 		}
 778:Modules/include/MAVLink/common/../mavlink_helpers.h **** 		break;
 779:Modules/include/MAVLink/common/../mavlink_helpers.h **** 	case MAVLINK_PARSE_STATE_SIGNATURE_WAIT:
 780:Modules/include/MAVLink/common/../mavlink_helpers.h **** 		rxmsg->signature[MAVLINK_SIGNATURE_BLOCK_LEN-status->signature_wait] = c;
 781:Modules/include/MAVLink/common/../mavlink_helpers.h **** 		status->signature_wait--;
 782:Modules/include/MAVLink/common/../mavlink_helpers.h **** 		if (status->signature_wait == 0) {
 783:Modules/include/MAVLink/common/../mavlink_helpers.h **** 			// we have the whole signature, check it is OK
 784:Modules/include/MAVLink/common/../mavlink_helpers.h **** 			bool sig_ok = mavlink_signature_check(status->signing, status->signing_streams, rxmsg);
 785:Modules/include/MAVLink/common/../mavlink_helpers.h **** 			if (!sig_ok &&
 786:Modules/include/MAVLink/common/../mavlink_helpers.h **** 			   	(status->signing->accept_unsigned_callback &&
 787:Modules/include/MAVLink/common/../mavlink_helpers.h **** 			   	 status->signing->accept_unsigned_callback(status, rxmsg->msgid))) {
 788:Modules/include/MAVLink/common/../mavlink_helpers.h **** 				// accepted via application level override
 789:Modules/include/MAVLink/common/../mavlink_helpers.h **** 				sig_ok = true;
 790:Modules/include/MAVLink/common/../mavlink_helpers.h **** 			}
 791:Modules/include/MAVLink/common/../mavlink_helpers.h **** 			if (sig_ok) {
 792:Modules/include/MAVLink/common/../mavlink_helpers.h **** 				status->msg_received = MAVLINK_FRAMING_OK;
 793:Modules/include/MAVLink/common/../mavlink_helpers.h **** 			} else {
 794:Modules/include/MAVLink/common/../mavlink_helpers.h **** 				status->msg_received = MAVLINK_FRAMING_BAD_SIGNATURE;
 795:Modules/include/MAVLink/common/../mavlink_helpers.h **** 			}
 796:Modules/include/MAVLink/common/../mavlink_helpers.h **** 			status->parse_state = MAVLINK_PARSE_STATE_IDLE;
 797:Modules/include/MAVLink/common/../mavlink_helpers.h **** 			if (r_message !=NULL) {
 798:Modules/include/MAVLink/common/../mavlink_helpers.h **** 				memcpy(r_message, rxmsg, sizeof(mavlink_message_t));
 799:Modules/include/MAVLink/common/../mavlink_helpers.h **** 			}
 800:Modules/include/MAVLink/common/../mavlink_helpers.h **** 		}
 801:Modules/include/MAVLink/common/../mavlink_helpers.h **** 		break;
 802:Modules/include/MAVLink/common/../mavlink_helpers.h **** 	}
 803:Modules/include/MAVLink/common/../mavlink_helpers.h **** 
 804:Modules/include/MAVLink/common/../mavlink_helpers.h **** 	bufferIndex++;
 549              		.loc 2 804 2 view .LVU161
 805:Modules/include/MAVLink/common/../mavlink_helpers.h **** 	// If a message has been sucessfully decoded, check index
 806:Modules/include/MAVLink/common/../mavlink_helpers.h **** 	if (status->msg_received == MAVLINK_FRAMING_OK)
 550              		.loc 2 806 2 view .LVU162
 551              		.loc 2 806 12 is_stmt 0 view .LVU163
 552 011a 744B     		ldr	r3, .L188
 553 011c 1B78     		ldrb	r3, [r3]	@ zero_extendqisi2
ARM GAS  C:\Users\luoha\AppData\Local\Temp\cctfed2n.s 			page 29


 554              		.loc 2 806 5 view .LVU164
 555 011e 012B     		cmp	r3, #1
 556 0120 00F07087 		beq	.L156
 557              	.L128:
 807:Modules/include/MAVLink/common/../mavlink_helpers.h **** 	{
 808:Modules/include/MAVLink/common/../mavlink_helpers.h **** 		//while(status->current_seq != rxmsg->seq)
 809:Modules/include/MAVLink/common/../mavlink_helpers.h **** 		//{
 810:Modules/include/MAVLink/common/../mavlink_helpers.h **** 		//	status->packet_rx_drop_count++;
 811:Modules/include/MAVLink/common/../mavlink_helpers.h **** 		//               status->current_seq++;
 812:Modules/include/MAVLink/common/../mavlink_helpers.h **** 		//}
 813:Modules/include/MAVLink/common/../mavlink_helpers.h **** 		status->current_rx_seq = rxmsg->seq;
 814:Modules/include/MAVLink/common/../mavlink_helpers.h **** 		// Initial condition: If no packet has been received so far, drop count is undefined
 815:Modules/include/MAVLink/common/../mavlink_helpers.h **** 		if (status->packet_rx_success_count == 0) status->packet_rx_drop_count = 0;
 816:Modules/include/MAVLink/common/../mavlink_helpers.h **** 		// Count this packet as received
 817:Modules/include/MAVLink/common/../mavlink_helpers.h **** 		status->packet_rx_success_count++;
 818:Modules/include/MAVLink/common/../mavlink_helpers.h **** 	}
 819:Modules/include/MAVLink/common/../mavlink_helpers.h **** 
 820:Modules/include/MAVLink/common/../mavlink_helpers.h ****        if (r_message != NULL) {
 558              		.loc 2 820 8 is_stmt 1 view .LVU165
 821:Modules/include/MAVLink/common/../mavlink_helpers.h ****            r_message->len = rxmsg->len; // Provide visibility on how far we are into current msg
 559              		.loc 2 821 12 view .LVU166
 560              		.loc 2 821 34 is_stmt 0 view .LVU167
 561 0124 724B     		ldr	r3, .L188+4
 562 0126 DA78     		ldrb	r2, [r3, #3]	@ zero_extendqisi2
 563              		.loc 2 821 27 view .LVU168
 564 0128 724B     		ldr	r3, .L188+8
 565 012a DA70     		strb	r2, [r3, #3]
 822:Modules/include/MAVLink/common/../mavlink_helpers.h ****        }
 823:Modules/include/MAVLink/common/../mavlink_helpers.h ****        if (r_mavlink_status != NULL) {	
 566              		.loc 2 823 8 is_stmt 1 view .LVU169
 824:Modules/include/MAVLink/common/../mavlink_helpers.h ****            r_mavlink_status->parse_state = status->parse_state;
 567              		.loc 2 824 12 view .LVU170
 568              		.loc 2 824 50 is_stmt 0 view .LVU171
 569 012c 6F4B     		ldr	r3, .L188
 570 012e D978     		ldrb	r1, [r3, #3]	@ zero_extendqisi2
 571              		.loc 2 824 42 view .LVU172
 572 0130 714A     		ldr	r2, .L188+12
 573 0132 D170     		strb	r1, [r2, #3]
 825:Modules/include/MAVLink/common/../mavlink_helpers.h ****            r_mavlink_status->packet_idx = status->packet_idx;
 574              		.loc 2 825 12 is_stmt 1 view .LVU173
 575              		.loc 2 825 49 is_stmt 0 view .LVU174
 576 0134 1979     		ldrb	r1, [r3, #4]	@ zero_extendqisi2
 577              		.loc 2 825 41 view .LVU175
 578 0136 1171     		strb	r1, [r2, #4]
 826:Modules/include/MAVLink/common/../mavlink_helpers.h ****            r_mavlink_status->current_rx_seq = status->current_rx_seq+1;
 579              		.loc 2 826 12 is_stmt 1 view .LVU176
 580              		.loc 2 826 53 is_stmt 0 view .LVU177
 581 0138 5979     		ldrb	r1, [r3, #5]	@ zero_extendqisi2
 582              		.loc 2 826 69 view .LVU178
 583 013a 0131     		adds	r1, r1, #1
 584              		.loc 2 826 45 view .LVU179
 585 013c 5171     		strb	r1, [r2, #5]
 827:Modules/include/MAVLink/common/../mavlink_helpers.h ****            r_mavlink_status->packet_rx_success_count = status->packet_rx_success_count;
 586              		.loc 2 827 12 is_stmt 1 view .LVU180
 587              		.loc 2 827 62 is_stmt 0 view .LVU181
 588 013e 1989     		ldrh	r1, [r3, #8]
 589              		.loc 2 827 54 view .LVU182
ARM GAS  C:\Users\luoha\AppData\Local\Temp\cctfed2n.s 			page 30


 590 0140 1181     		strh	r1, [r2, #8]	@ movhi
 828:Modules/include/MAVLink/common/../mavlink_helpers.h ****            r_mavlink_status->packet_rx_drop_count = status->parse_error;
 591              		.loc 2 828 12 is_stmt 1 view .LVU183
 592              		.loc 2 828 59 is_stmt 0 view .LVU184
 593 0142 9978     		ldrb	r1, [r3, #2]	@ zero_extendqisi2
 594              		.loc 2 828 51 view .LVU185
 595 0144 5181     		strh	r1, [r2, #10]	@ movhi
 829:Modules/include/MAVLink/common/../mavlink_helpers.h ****            r_mavlink_status->flags = status->flags;
 596              		.loc 2 829 12 is_stmt 1 view .LVU186
 597              		.loc 2 829 44 is_stmt 0 view .LVU187
 598 0146 197B     		ldrb	r1, [r3, #12]	@ zero_extendqisi2
 599              		.loc 2 829 36 view .LVU188
 600 0148 1173     		strb	r1, [r2, #12]
 830:Modules/include/MAVLink/common/../mavlink_helpers.h ****        }
 831:Modules/include/MAVLink/common/../mavlink_helpers.h ****        status->parse_error = 0;
 601              		.loc 2 831 8 is_stmt 1 view .LVU189
 602              		.loc 2 831 28 is_stmt 0 view .LVU190
 603 014a 0022     		movs	r2, #0
 604 014c 9A70     		strb	r2, [r3, #2]
 832:Modules/include/MAVLink/common/../mavlink_helpers.h **** 
 833:Modules/include/MAVLink/common/../mavlink_helpers.h **** 	if (status->msg_received == MAVLINK_FRAMING_BAD_CRC) {
 605              		.loc 2 833 2 is_stmt 1 view .LVU191
 606              		.loc 2 833 12 is_stmt 0 view .LVU192
 607 014e 1B78     		ldrb	r3, [r3]	@ zero_extendqisi2
 608              		.loc 2 833 5 view .LVU193
 609 0150 022B     		cmp	r3, #2
 610 0152 00F06587 		beq	.L157
 611              	.L130:
 834:Modules/include/MAVLink/common/../mavlink_helpers.h **** 		/*
 835:Modules/include/MAVLink/common/../mavlink_helpers.h **** 		  the CRC came out wrong. We now need to overwrite the
 836:Modules/include/MAVLink/common/../mavlink_helpers.h **** 		  msg CRC with the one on the wire so that if the
 837:Modules/include/MAVLink/common/../mavlink_helpers.h **** 		  caller decides to forward the message anyway that
 838:Modules/include/MAVLink/common/../mavlink_helpers.h **** 		  mavlink_msg_to_send_buffer() won't overwrite the
 839:Modules/include/MAVLink/common/../mavlink_helpers.h **** 		  checksum
 840:Modules/include/MAVLink/common/../mavlink_helpers.h **** 		 */
 841:Modules/include/MAVLink/common/../mavlink_helpers.h ****             if (r_message != NULL) {
 842:Modules/include/MAVLink/common/../mavlink_helpers.h ****                 r_message->checksum = rxmsg->ck[0] | (rxmsg->ck[1]<<8);
 843:Modules/include/MAVLink/common/../mavlink_helpers.h ****             }
 844:Modules/include/MAVLink/common/../mavlink_helpers.h **** 	}
 845:Modules/include/MAVLink/common/../mavlink_helpers.h **** 
 846:Modules/include/MAVLink/common/../mavlink_helpers.h **** 	return status->msg_received;
 612              		.loc 2 846 2 is_stmt 1 view .LVU194
 613              		.loc 2 846 15 is_stmt 0 view .LVU195
 614 0156 654B     		ldr	r3, .L188
 615 0158 1A78     		ldrb	r2, [r3]	@ zero_extendqisi2
 616              	.LVL39:
 617              		.loc 2 846 15 view .LVU196
 618              	.LBE336:
 619              	.LBE339:
 620              	.LBE342:
 847:Modules/include/MAVLink/common/../mavlink_helpers.h **** }
 848:Modules/include/MAVLink/common/../mavlink_helpers.h **** 
 849:Modules/include/MAVLink/common/../mavlink_helpers.h **** /**
 850:Modules/include/MAVLink/common/../mavlink_helpers.h ****  * This is a convenience function which handles the complete MAVLink parsing.
 851:Modules/include/MAVLink/common/../mavlink_helpers.h ****  * the function will parse one byte at a time and return the complete packet once
 852:Modules/include/MAVLink/common/../mavlink_helpers.h ****  * it could be successfully decoded. This function will return 0, 1 or
 853:Modules/include/MAVLink/common/../mavlink_helpers.h ****  * 2 (MAVLINK_FRAMING_INCOMPLETE, MAVLINK_FRAMING_OK or MAVLINK_FRAMING_BAD_CRC)
ARM GAS  C:\Users\luoha\AppData\Local\Temp\cctfed2n.s 			page 31


 854:Modules/include/MAVLink/common/../mavlink_helpers.h ****  *
 855:Modules/include/MAVLink/common/../mavlink_helpers.h ****  * Messages are parsed into an internal buffer (one for each channel). When a complete
 856:Modules/include/MAVLink/common/../mavlink_helpers.h ****  * message is received it is copies into *r_message and the channel's status is
 857:Modules/include/MAVLink/common/../mavlink_helpers.h ****  * copied into *r_mavlink_status.
 858:Modules/include/MAVLink/common/../mavlink_helpers.h ****  *
 859:Modules/include/MAVLink/common/../mavlink_helpers.h ****  * @param chan     ID of the channel to be parsed.
 860:Modules/include/MAVLink/common/../mavlink_helpers.h ****  *                 A channel is not a physical message channel like a serial port, but a logical pa
 861:Modules/include/MAVLink/common/../mavlink_helpers.h ****  *                 the communication streams. COMM_NB is the limit for the number of channels
 862:Modules/include/MAVLink/common/../mavlink_helpers.h ****  *                 on MCU (e.g. ARM7), while COMM_NB_HIGH is the limit for the number of channels i
 863:Modules/include/MAVLink/common/../mavlink_helpers.h ****  * @param c        The char to parse
 864:Modules/include/MAVLink/common/../mavlink_helpers.h ****  *
 865:Modules/include/MAVLink/common/../mavlink_helpers.h ****  * @param r_message NULL if no message could be decoded, otherwise the message data
 866:Modules/include/MAVLink/common/../mavlink_helpers.h ****  * @param r_mavlink_status if a message was decoded, this is filled with the channel's stats
 867:Modules/include/MAVLink/common/../mavlink_helpers.h ****  * @return 0 if no message could be decoded, 1 on good message and CRC, 2 on bad CRC
 868:Modules/include/MAVLink/common/../mavlink_helpers.h ****  *
 869:Modules/include/MAVLink/common/../mavlink_helpers.h ****  * A typical use scenario of this function call is:
 870:Modules/include/MAVLink/common/../mavlink_helpers.h ****  *
 871:Modules/include/MAVLink/common/../mavlink_helpers.h ****  * @code
 872:Modules/include/MAVLink/common/../mavlink_helpers.h ****  * #include <mavlink.h>
 873:Modules/include/MAVLink/common/../mavlink_helpers.h ****  *
 874:Modules/include/MAVLink/common/../mavlink_helpers.h ****  * mavlink_status_t status;
 875:Modules/include/MAVLink/common/../mavlink_helpers.h ****  * mavlink_message_t msg;
 876:Modules/include/MAVLink/common/../mavlink_helpers.h ****  * int chan = 0;
 877:Modules/include/MAVLink/common/../mavlink_helpers.h ****  *
 878:Modules/include/MAVLink/common/../mavlink_helpers.h ****  *
 879:Modules/include/MAVLink/common/../mavlink_helpers.h ****  * while(serial.bytesAvailable > 0)
 880:Modules/include/MAVLink/common/../mavlink_helpers.h ****  * {
 881:Modules/include/MAVLink/common/../mavlink_helpers.h ****  *   uint8_t byte = serial.getNextByte();
 882:Modules/include/MAVLink/common/../mavlink_helpers.h ****  *   if (mavlink_frame_char(chan, byte, &msg, &status) != MAVLINK_FRAMING_INCOMPLETE)
 883:Modules/include/MAVLink/common/../mavlink_helpers.h ****  *     {
 884:Modules/include/MAVLink/common/../mavlink_helpers.h ****  *     printf("Received message with ID %d, sequence: %d from component %d of system %d", msg.msgid
 885:Modules/include/MAVLink/common/../mavlink_helpers.h ****  *     }
 886:Modules/include/MAVLink/common/../mavlink_helpers.h ****  * }
 887:Modules/include/MAVLink/common/../mavlink_helpers.h ****  *
 888:Modules/include/MAVLink/common/../mavlink_helpers.h ****  *
 889:Modules/include/MAVLink/common/../mavlink_helpers.h ****  * @endcode
 890:Modules/include/MAVLink/common/../mavlink_helpers.h ****  */
 891:Modules/include/MAVLink/common/../mavlink_helpers.h **** MAVLINK_HELPER uint8_t mavlink_frame_char(uint8_t chan, uint8_t c, mavlink_message_t* r_message, ma
 892:Modules/include/MAVLink/common/../mavlink_helpers.h **** {
 893:Modules/include/MAVLink/common/../mavlink_helpers.h **** 	return mavlink_frame_char_buffer(mavlink_get_channel_buffer(chan),
 894:Modules/include/MAVLink/common/../mavlink_helpers.h **** 					 mavlink_get_channel_status(chan),
 895:Modules/include/MAVLink/common/../mavlink_helpers.h **** 					 c,
 896:Modules/include/MAVLink/common/../mavlink_helpers.h **** 					 r_message,
 897:Modules/include/MAVLink/common/../mavlink_helpers.h **** 					 r_mavlink_status);
 898:Modules/include/MAVLink/common/../mavlink_helpers.h **** }
 899:Modules/include/MAVLink/common/../mavlink_helpers.h **** 
 900:Modules/include/MAVLink/common/../mavlink_helpers.h **** /**
 901:Modules/include/MAVLink/common/../mavlink_helpers.h ****  * Set the protocol version
 902:Modules/include/MAVLink/common/../mavlink_helpers.h ****  */
 903:Modules/include/MAVLink/common/../mavlink_helpers.h **** MAVLINK_HELPER void mavlink_set_proto_version(uint8_t chan, unsigned int version)
 904:Modules/include/MAVLink/common/../mavlink_helpers.h **** {
 905:Modules/include/MAVLink/common/../mavlink_helpers.h **** 	mavlink_status_t *status = mavlink_get_channel_status(chan);
 906:Modules/include/MAVLink/common/../mavlink_helpers.h **** 	if (version > 1) {
 907:Modules/include/MAVLink/common/../mavlink_helpers.h **** 		status->flags &= ~(MAVLINK_STATUS_FLAG_OUT_MAVLINK1);
 908:Modules/include/MAVLink/common/../mavlink_helpers.h **** 	} else {
 909:Modules/include/MAVLink/common/../mavlink_helpers.h **** 		status->flags |= MAVLINK_STATUS_FLAG_OUT_MAVLINK1;
 910:Modules/include/MAVLink/common/../mavlink_helpers.h **** 	}
ARM GAS  C:\Users\luoha\AppData\Local\Temp\cctfed2n.s 			page 32


 911:Modules/include/MAVLink/common/../mavlink_helpers.h **** }
 912:Modules/include/MAVLink/common/../mavlink_helpers.h **** 
 913:Modules/include/MAVLink/common/../mavlink_helpers.h **** /**
 914:Modules/include/MAVLink/common/../mavlink_helpers.h ****  * Get the protocol version
 915:Modules/include/MAVLink/common/../mavlink_helpers.h ****  *
 916:Modules/include/MAVLink/common/../mavlink_helpers.h ****  * @return 1 for v1, 2 for v2
 917:Modules/include/MAVLink/common/../mavlink_helpers.h ****  */
 918:Modules/include/MAVLink/common/../mavlink_helpers.h **** MAVLINK_HELPER unsigned int mavlink_get_proto_version(uint8_t chan)
 919:Modules/include/MAVLink/common/../mavlink_helpers.h **** {
 920:Modules/include/MAVLink/common/../mavlink_helpers.h **** 	mavlink_status_t *status = mavlink_get_channel_status(chan);
 921:Modules/include/MAVLink/common/../mavlink_helpers.h **** 	if ((status->flags & MAVLINK_STATUS_FLAG_OUT_MAVLINK1) > 0) {
 922:Modules/include/MAVLink/common/../mavlink_helpers.h **** 		return 1;
 923:Modules/include/MAVLink/common/../mavlink_helpers.h **** 	} else {
 924:Modules/include/MAVLink/common/../mavlink_helpers.h **** 		return 2;
 925:Modules/include/MAVLink/common/../mavlink_helpers.h **** 	}
 926:Modules/include/MAVLink/common/../mavlink_helpers.h **** }
 927:Modules/include/MAVLink/common/../mavlink_helpers.h **** 
 928:Modules/include/MAVLink/common/../mavlink_helpers.h **** /**
 929:Modules/include/MAVLink/common/../mavlink_helpers.h ****  * This is a convenience function which handles the complete MAVLink parsing.
 930:Modules/include/MAVLink/common/../mavlink_helpers.h ****  * the function will parse one byte at a time and return the complete packet once
 931:Modules/include/MAVLink/common/../mavlink_helpers.h ****  * it could be successfully decoded. This function will return 0 or 1.
 932:Modules/include/MAVLink/common/../mavlink_helpers.h ****  *
 933:Modules/include/MAVLink/common/../mavlink_helpers.h ****  * Messages are parsed into an internal buffer (one for each channel). When a complete
 934:Modules/include/MAVLink/common/../mavlink_helpers.h ****  * message is received it is copies into *r_message and the channel's status is
 935:Modules/include/MAVLink/common/../mavlink_helpers.h ****  * copied into *r_mavlink_status.
 936:Modules/include/MAVLink/common/../mavlink_helpers.h ****  *
 937:Modules/include/MAVLink/common/../mavlink_helpers.h ****  * @param chan     ID of the channel to be parsed.
 938:Modules/include/MAVLink/common/../mavlink_helpers.h ****  *                 A channel is not a physical message channel like a serial port, but a logical pa
 939:Modules/include/MAVLink/common/../mavlink_helpers.h ****  *                 the communication streams. COMM_NB is the limit for the number of channels
 940:Modules/include/MAVLink/common/../mavlink_helpers.h ****  *                 on MCU (e.g. ARM7), while COMM_NB_HIGH is the limit for the number of channels i
 941:Modules/include/MAVLink/common/../mavlink_helpers.h ****  * @param c        The char to parse
 942:Modules/include/MAVLink/common/../mavlink_helpers.h ****  *
 943:Modules/include/MAVLink/common/../mavlink_helpers.h ****  * @param r_message NULL if no message could be decoded, otherwise the message data
 944:Modules/include/MAVLink/common/../mavlink_helpers.h ****  * @param r_mavlink_status if a message was decoded, this is filled with the channel's stats
 945:Modules/include/MAVLink/common/../mavlink_helpers.h ****  * @return 0 if no message could be decoded or bad CRC, 1 on good message and CRC
 946:Modules/include/MAVLink/common/../mavlink_helpers.h ****  *
 947:Modules/include/MAVLink/common/../mavlink_helpers.h ****  * A typical use scenario of this function call is:
 948:Modules/include/MAVLink/common/../mavlink_helpers.h ****  *
 949:Modules/include/MAVLink/common/../mavlink_helpers.h ****  * @code
 950:Modules/include/MAVLink/common/../mavlink_helpers.h ****  * #include <mavlink.h>
 951:Modules/include/MAVLink/common/../mavlink_helpers.h ****  *
 952:Modules/include/MAVLink/common/../mavlink_helpers.h ****  * mavlink_status_t status;
 953:Modules/include/MAVLink/common/../mavlink_helpers.h ****  * mavlink_message_t msg;
 954:Modules/include/MAVLink/common/../mavlink_helpers.h ****  * int chan = 0;
 955:Modules/include/MAVLink/common/../mavlink_helpers.h ****  *
 956:Modules/include/MAVLink/common/../mavlink_helpers.h ****  *
 957:Modules/include/MAVLink/common/../mavlink_helpers.h ****  * while(serial.bytesAvailable > 0)
 958:Modules/include/MAVLink/common/../mavlink_helpers.h ****  * {
 959:Modules/include/MAVLink/common/../mavlink_helpers.h ****  *   uint8_t byte = serial.getNextByte();
 960:Modules/include/MAVLink/common/../mavlink_helpers.h ****  *   if (mavlink_parse_char(chan, byte, &msg, &status))
 961:Modules/include/MAVLink/common/../mavlink_helpers.h ****  *     {
 962:Modules/include/MAVLink/common/../mavlink_helpers.h ****  *     printf("Received message with ID %d, sequence: %d from component %d of system %d", msg.msgid
 963:Modules/include/MAVLink/common/../mavlink_helpers.h ****  *     }
 964:Modules/include/MAVLink/common/../mavlink_helpers.h ****  * }
 965:Modules/include/MAVLink/common/../mavlink_helpers.h ****  *
 966:Modules/include/MAVLink/common/../mavlink_helpers.h ****  *
 967:Modules/include/MAVLink/common/../mavlink_helpers.h ****  * @endcode
ARM GAS  C:\Users\luoha\AppData\Local\Temp\cctfed2n.s 			page 33


 968:Modules/include/MAVLink/common/../mavlink_helpers.h ****  */
 969:Modules/include/MAVLink/common/../mavlink_helpers.h **** MAVLINK_HELPER uint8_t mavlink_parse_char(uint8_t chan, uint8_t c, mavlink_message_t* r_message, ma
 970:Modules/include/MAVLink/common/../mavlink_helpers.h **** {
 971:Modules/include/MAVLink/common/../mavlink_helpers.h ****     uint8_t msg_received = mavlink_frame_char(chan, c, r_message, r_mavlink_status);
 972:Modules/include/MAVLink/common/../mavlink_helpers.h ****     if (msg_received == MAVLINK_FRAMING_BAD_CRC ||
 621              		.loc 2 972 5 is_stmt 1 view .LVU197
 622              		.loc 2 972 49 is_stmt 0 view .LVU198
 623 015a 931E     		subs	r3, r2, #2
 624 015c DBB2     		uxtb	r3, r3
 625              		.loc 2 972 8 view .LVU199
 626 015e 012B     		cmp	r3, #1
 627 0160 40F26987 		bls	.L158
 628              	.LVL40:
 629              	.L131:
 630              		.loc 2 972 8 view .LVU200
 631              	.LBE358:
 632              	.LBE365:
  93:Modules/src/uart4.c ****         if (mavlink_parse_char(mavlink_comm, buffer[i], &msg, &status)) {
 633              		.loc 1 93 12 view .LVU201
 634 0164 002A     		cmp	r2, #0
 635 0166 40F07D87 		bne	.L159
 636              	.L133:
  92:Modules/src/uart4.c ****         if (mavlink_parse_char(mavlink_comm, buffer[i], &msg, &status)) {
 637              		.loc 1 92 33 is_stmt 1 discriminator 2 view .LVU202
  92:Modules/src/uart4.c ****         if (mavlink_parse_char(mavlink_comm, buffer[i], &msg, &status)) {
 638              		.loc 1 92 34 is_stmt 0 discriminator 2 view .LVU203
 639 016a 0AF1010A 		add	r10, r10, #1
 640              	.LVL41:
 641              	.L14:
  92:Modules/src/uart4.c ****         if (mavlink_parse_char(mavlink_comm, buffer[i], &msg, &status)) {
 642              		.loc 1 92 24 is_stmt 1 discriminator 1 view .LVU204
  92:Modules/src/uart4.c ****         if (mavlink_parse_char(mavlink_comm, buffer[i], &msg, &status)) {
 643              		.loc 1 92 5 is_stmt 0 discriminator 1 view .LVU205
 644 016e 019B     		ldr	r3, [sp, #4]
 645 0170 9A45     		cmp	r10, r3
 646 0172 80F09387 		bcs	.L160
 647              		.loc 1 93 9 is_stmt 1 view .LVU206
 648              		.loc 1 93 13 is_stmt 0 view .LVU207
 649 0176 029B     		ldr	r3, [sp, #8]
 650 0178 13F80AB0 		ldrb	fp, [r3, r10]	@ zero_extendqisi2
 651              	.LVL42:
 652              	.LBB366:
 653              	.LBI206:
 969:Modules/include/MAVLink/common/../mavlink_helpers.h **** {
 654              		.loc 2 969 24 is_stmt 1 view .LVU208
 655              	.LBB359:
 971:Modules/include/MAVLink/common/../mavlink_helpers.h ****     if (msg_received == MAVLINK_FRAMING_BAD_CRC ||
 656              		.loc 2 971 5 view .LVU209
 657              	.LBB343:
 658              	.LBI208:
 891:Modules/include/MAVLink/common/../mavlink_helpers.h **** {
 659              		.loc 2 891 24 view .LVU210
 660              	.LBE343:
 661              	.LBE359:
 662              	.LBE366:
 663              	.LBE372:
 893:Modules/include/MAVLink/common/../mavlink_helpers.h **** 					 mavlink_get_channel_status(chan),
ARM GAS  C:\Users\luoha\AppData\Local\Temp\cctfed2n.s 			page 34


 664              		.loc 2 893 2 view .LVU211
  46:Modules/include/MAVLink/common/../mavlink_helpers.h **** #endif
 665              		.loc 2 46 2 view .LVU212
  48:Modules/include/MAVLink/common/../mavlink_helpers.h **** }
 666              		.loc 2 48 2 view .LVU213
  29:Modules/include/MAVLink/common/../mavlink_helpers.h **** #endif
 667              		.loc 2 29 2 view .LVU214
  31:Modules/include/MAVLink/common/../mavlink_helpers.h **** }
 668              		.loc 2 31 2 view .LVU215
 669              	.LBB373:
 670              	.LBB367:
 671              	.LBB360:
 672              	.LBB344:
 673              	.LBB340:
 674              	.LBI209:
 571:Modules/include/MAVLink/common/../mavlink_helpers.h ****                                                  mavlink_status_t* status,
 675              		.loc 2 571 24 view .LVU216
 676              	.LBB337:
 577:Modules/include/MAVLink/common/../mavlink_helpers.h **** 
 677              		.loc 2 577 2 view .LVU217
 579:Modules/include/MAVLink/common/../mavlink_helpers.h **** 
 678              		.loc 2 579 2 view .LVU218
 579:Modules/include/MAVLink/common/../mavlink_helpers.h **** 
 679              		.loc 2 579 23 is_stmt 0 view .LVU219
 680 017c 5B4B     		ldr	r3, .L188
 681 017e 0022     		movs	r2, #0
 682 0180 1A70     		strb	r2, [r3]
 581:Modules/include/MAVLink/common/../mavlink_helpers.h **** 	{
 683              		.loc 2 581 2 is_stmt 1 view .LVU220
 581:Modules/include/MAVLink/common/../mavlink_helpers.h **** 	{
 684              		.loc 2 581 16 is_stmt 0 view .LVU221
 685 0182 DB78     		ldrb	r3, [r3, #3]	@ zero_extendqisi2
 686 0184 0F2B     		cmp	r3, #15
 687 0186 C8D8     		bhi	.L15
 688 0188 01A2     		adr	r2, .L17
 689 018a 52F823F0 		ldr	pc, [r2, r3, lsl #2]
 690 018e 00BF     		.p2align 2
 691              	.L17:
 692 0190 13000000 		.word	.L30+1
 693 0194 13000000 		.word	.L30+1
 694 0198 5F000000 		.word	.L29+1
 695 019c A7000000 		.word	.L28+1
 696 01a0 EF000000 		.word	.L27+1
 697 01a4 D1010000 		.word	.L26+1
 698 01a8 FF010000 		.word	.L25+1
 699 01ac 2D020000 		.word	.L24+1
 700 01b0 5B020000 		.word	.L23+1
 701 01b4 AD020000 		.word	.L22+1
 702 01b8 FD020000 		.word	.L21+1
 703 01bc 49030000 		.word	.L20+1
 704 01c0 8D030000 		.word	.L19+1
 705 01c4 45040000 		.word	.L18+1
 706 01c8 45040000 		.word	.L18+1
 707 01cc C5040000 		.word	.L16+1
 708              		.p2align 1
 709              	.L26:
 652:Modules/include/MAVLink/common/../mavlink_helpers.h **** 		mavlink_update_checksum(rxmsg, c);
ARM GAS  C:\Users\luoha\AppData\Local\Temp\cctfed2n.s 			page 35


 710              		.loc 2 652 3 is_stmt 1 view .LVU222
 652:Modules/include/MAVLink/common/../mavlink_helpers.h **** 		mavlink_update_checksum(rxmsg, c);
 711              		.loc 2 652 14 is_stmt 0 view .LVU223
 712 01d0 4749     		ldr	r1, .L188+4
 713 01d2 81F806B0 		strb	fp, [r1, #6]
 653:Modules/include/MAVLink/common/../mavlink_helpers.h **** 		status->parse_state = MAVLINK_PARSE_STATE_GOT_SEQ;
 714              		.loc 2 653 3 is_stmt 1 view .LVU224
 715              	.LVL43:
 716              	.LBB233:
 717              	.LBI233:
 488:Modules/include/MAVLink/common/../mavlink_helpers.h **** {
 718              		.loc 2 488 21 view .LVU225
 719              	.LBB234:
 490:Modules/include/MAVLink/common/../mavlink_helpers.h **** 	crc_accumulate(c, &checksum);
 720              		.loc 2 490 2 view .LVU226
 490:Modules/include/MAVLink/common/../mavlink_helpers.h **** 	crc_accumulate(c, &checksum);
 721              		.loc 2 490 25 is_stmt 0 view .LVU227
 722 01d6 0B88     		ldrh	r3, [r1]
 723              	.LVL44:
 491:Modules/include/MAVLink/common/../mavlink_helpers.h **** 	msg->checksum = checksum;
 724              		.loc 2 491 2 is_stmt 1 view .LVU228
 725              	.LBB235:
 726              	.LBI235:
  35:Modules/include/MAVLink/common/../checksum.h **** {
 727              		.loc 3 35 20 view .LVU229
 728              	.LBB236:
  38:Modules/include/MAVLink/common/../checksum.h **** 
 729              		.loc 3 38 9 view .LVU230
  40:Modules/include/MAVLink/common/../checksum.h ****         tmp ^= (tmp<<4);
 730              		.loc 3 40 9 view .LVU231
  40:Modules/include/MAVLink/common/../checksum.h ****         tmp ^= (tmp<<4);
 731              		.loc 3 40 22 is_stmt 0 view .LVU232
 732 01d8 DAB2     		uxtb	r2, r3
  40:Modules/include/MAVLink/common/../checksum.h ****         tmp ^= (tmp<<4);
 733              		.loc 3 40 13 view .LVU233
 734 01da 8BEA0202 		eor	r2, fp, r2
 735              	.LVL45:
  41:Modules/include/MAVLink/common/../checksum.h ****         *crcAccum = (*crcAccum>>8) ^ (tmp<<8) ^ (tmp <<3) ^ (tmp>>4);
 736              		.loc 3 41 9 is_stmt 1 view .LVU234
  41:Modules/include/MAVLink/common/../checksum.h ****         *crcAccum = (*crcAccum>>8) ^ (tmp<<8) ^ (tmp <<3) ^ (tmp>>4);
 737              		.loc 3 41 13 is_stmt 0 view .LVU235
 738 01de 82EA0212 		eor	r2, r2, r2, lsl #4
 739              	.LVL46:
  41:Modules/include/MAVLink/common/../checksum.h ****         *crcAccum = (*crcAccum>>8) ^ (tmp<<8) ^ (tmp <<3) ^ (tmp>>4);
 740              		.loc 3 41 13 view .LVU236
 741 01e2 D2B2     		uxtb	r2, r2
 742              	.LVL47:
  42:Modules/include/MAVLink/common/../checksum.h **** }
 743              		.loc 3 42 9 is_stmt 1 view .LVU237
  42:Modules/include/MAVLink/common/../checksum.h **** }
 744              		.loc 3 42 36 is_stmt 0 view .LVU238
 745 01e4 1B0A     		lsrs	r3, r3, #8
 746              	.LVL48:
  42:Modules/include/MAVLink/common/../checksum.h **** }
 747              		.loc 3 42 36 view .LVU239
 748 01e6 43EA0223 		orr	r3, r3, r2, lsl #8
 749 01ea 1BB2     		sxth	r3, r3
ARM GAS  C:\Users\luoha\AppData\Local\Temp\cctfed2n.s 			page 36


  42:Modules/include/MAVLink/common/../checksum.h **** }
 750              		.loc 3 42 47 view .LVU240
 751 01ec 83EAC203 		eor	r3, r3, r2, lsl #3
  42:Modules/include/MAVLink/common/../checksum.h **** }
 752              		.loc 3 42 59 view .LVU241
 753 01f0 83EA1213 		eor	r3, r3, r2, lsr #4
 754              	.LVL49:
  42:Modules/include/MAVLink/common/../checksum.h **** }
 755              		.loc 3 42 59 view .LVU242
 756              	.LBE236:
 757              	.LBE235:
 492:Modules/include/MAVLink/common/../mavlink_helpers.h **** }
 758              		.loc 2 492 2 is_stmt 1 view .LVU243
 492:Modules/include/MAVLink/common/../mavlink_helpers.h **** }
 759              		.loc 2 492 16 is_stmt 0 view .LVU244
 760 01f4 0B80     		strh	r3, [r1]	@ movhi
 761              	.LVL50:
 492:Modules/include/MAVLink/common/../mavlink_helpers.h **** }
 762              		.loc 2 492 16 view .LVU245
 763              	.LBE234:
 764              	.LBE233:
 654:Modules/include/MAVLink/common/../mavlink_helpers.h **** 		break;
 765              		.loc 2 654 3 is_stmt 1 view .LVU246
 654:Modules/include/MAVLink/common/../mavlink_helpers.h **** 		break;
 766              		.loc 2 654 23 is_stmt 0 view .LVU247
 767 01f6 3D4B     		ldr	r3, .L188
 768 01f8 0622     		movs	r2, #6
 769 01fa DA70     		strb	r2, [r3, #3]
 655:Modules/include/MAVLink/common/../mavlink_helpers.h ****                 
 770              		.loc 2 655 3 is_stmt 1 view .LVU248
 771 01fc 8DE7     		b	.L15
 772              	.L25:
 658:Modules/include/MAVLink/common/../mavlink_helpers.h **** 		mavlink_update_checksum(rxmsg, c);
 773              		.loc 2 658 3 view .LVU249
 658:Modules/include/MAVLink/common/../mavlink_helpers.h **** 		mavlink_update_checksum(rxmsg, c);
 774              		.loc 2 658 16 is_stmt 0 view .LVU250
 775 01fe 3C49     		ldr	r1, .L188+4
 776 0200 81F807B0 		strb	fp, [r1, #7]
 659:Modules/include/MAVLink/common/../mavlink_helpers.h **** 		status->parse_state = MAVLINK_PARSE_STATE_GOT_SYSID;
 777              		.loc 2 659 3 is_stmt 1 view .LVU251
 778              	.LVL51:
 779              	.LBB237:
 780              	.LBI237:
 488:Modules/include/MAVLink/common/../mavlink_helpers.h **** {
 781              		.loc 2 488 21 view .LVU252
 782              	.LBB238:
 490:Modules/include/MAVLink/common/../mavlink_helpers.h **** 	crc_accumulate(c, &checksum);
 783              		.loc 2 490 2 view .LVU253
 490:Modules/include/MAVLink/common/../mavlink_helpers.h **** 	crc_accumulate(c, &checksum);
 784              		.loc 2 490 25 is_stmt 0 view .LVU254
 785 0204 0B88     		ldrh	r3, [r1]
 786              	.LVL52:
 491:Modules/include/MAVLink/common/../mavlink_helpers.h **** 	msg->checksum = checksum;
 787              		.loc 2 491 2 is_stmt 1 view .LVU255
 788              	.LBB239:
 789              	.LBI239:
  35:Modules/include/MAVLink/common/../checksum.h **** {
ARM GAS  C:\Users\luoha\AppData\Local\Temp\cctfed2n.s 			page 37


 790              		.loc 3 35 20 view .LVU256
 791              	.LBB240:
  38:Modules/include/MAVLink/common/../checksum.h **** 
 792              		.loc 3 38 9 view .LVU257
  40:Modules/include/MAVLink/common/../checksum.h ****         tmp ^= (tmp<<4);
 793              		.loc 3 40 9 view .LVU258
  40:Modules/include/MAVLink/common/../checksum.h ****         tmp ^= (tmp<<4);
 794              		.loc 3 40 22 is_stmt 0 view .LVU259
 795 0206 DAB2     		uxtb	r2, r3
  40:Modules/include/MAVLink/common/../checksum.h ****         tmp ^= (tmp<<4);
 796              		.loc 3 40 13 view .LVU260
 797 0208 8BEA0202 		eor	r2, fp, r2
 798              	.LVL53:
  41:Modules/include/MAVLink/common/../checksum.h ****         *crcAccum = (*crcAccum>>8) ^ (tmp<<8) ^ (tmp <<3) ^ (tmp>>4);
 799              		.loc 3 41 9 is_stmt 1 view .LVU261
  41:Modules/include/MAVLink/common/../checksum.h ****         *crcAccum = (*crcAccum>>8) ^ (tmp<<8) ^ (tmp <<3) ^ (tmp>>4);
 800              		.loc 3 41 13 is_stmt 0 view .LVU262
 801 020c 82EA0212 		eor	r2, r2, r2, lsl #4
 802              	.LVL54:
  41:Modules/include/MAVLink/common/../checksum.h ****         *crcAccum = (*crcAccum>>8) ^ (tmp<<8) ^ (tmp <<3) ^ (tmp>>4);
 803              		.loc 3 41 13 view .LVU263
 804 0210 D2B2     		uxtb	r2, r2
 805              	.LVL55:
  42:Modules/include/MAVLink/common/../checksum.h **** }
 806              		.loc 3 42 9 is_stmt 1 view .LVU264
  42:Modules/include/MAVLink/common/../checksum.h **** }
 807              		.loc 3 42 36 is_stmt 0 view .LVU265
 808 0212 1B0A     		lsrs	r3, r3, #8
 809              	.LVL56:
  42:Modules/include/MAVLink/common/../checksum.h **** }
 810              		.loc 3 42 36 view .LVU266
 811 0214 43EA0223 		orr	r3, r3, r2, lsl #8
 812 0218 1BB2     		sxth	r3, r3
  42:Modules/include/MAVLink/common/../checksum.h **** }
 813              		.loc 3 42 47 view .LVU267
 814 021a 83EAC203 		eor	r3, r3, r2, lsl #3
  42:Modules/include/MAVLink/common/../checksum.h **** }
 815              		.loc 3 42 59 view .LVU268
 816 021e 83EA1213 		eor	r3, r3, r2, lsr #4
 817              	.LVL57:
  42:Modules/include/MAVLink/common/../checksum.h **** }
 818              		.loc 3 42 59 view .LVU269
 819              	.LBE240:
 820              	.LBE239:
 492:Modules/include/MAVLink/common/../mavlink_helpers.h **** }
 821              		.loc 2 492 2 is_stmt 1 view .LVU270
 492:Modules/include/MAVLink/common/../mavlink_helpers.h **** }
 822              		.loc 2 492 16 is_stmt 0 view .LVU271
 823 0222 0B80     		strh	r3, [r1]	@ movhi
 824              	.LVL58:
 492:Modules/include/MAVLink/common/../mavlink_helpers.h **** }
 825              		.loc 2 492 16 view .LVU272
 826              	.LBE238:
 827              	.LBE237:
 660:Modules/include/MAVLink/common/../mavlink_helpers.h **** 		break;
 828              		.loc 2 660 3 is_stmt 1 view .LVU273
 660:Modules/include/MAVLink/common/../mavlink_helpers.h **** 		break;
ARM GAS  C:\Users\luoha\AppData\Local\Temp\cctfed2n.s 			page 38


 829              		.loc 2 660 23 is_stmt 0 view .LVU274
 830 0224 314B     		ldr	r3, .L188
 831 0226 0722     		movs	r2, #7
 832 0228 DA70     		strb	r2, [r3, #3]
 661:Modules/include/MAVLink/common/../mavlink_helpers.h **** 
 833              		.loc 2 661 3 is_stmt 1 view .LVU275
 834 022a 76E7     		b	.L15
 835              	.L24:
 664:Modules/include/MAVLink/common/../mavlink_helpers.h **** 		mavlink_update_checksum(rxmsg, c);
 836              		.loc 2 664 3 view .LVU276
 664:Modules/include/MAVLink/common/../mavlink_helpers.h **** 		mavlink_update_checksum(rxmsg, c);
 837              		.loc 2 664 17 is_stmt 0 view .LVU277
 838 022c 3049     		ldr	r1, .L188+4
 839 022e 81F808B0 		strb	fp, [r1, #8]
 665:Modules/include/MAVLink/common/../mavlink_helpers.h ****                 status->parse_state = MAVLINK_PARSE_STATE_GOT_COMPID;
 840              		.loc 2 665 3 is_stmt 1 view .LVU278
 841              	.LVL59:
 842              	.LBB241:
 843              	.LBI241:
 488:Modules/include/MAVLink/common/../mavlink_helpers.h **** {
 844              		.loc 2 488 21 view .LVU279
 845              	.LBB242:
 490:Modules/include/MAVLink/common/../mavlink_helpers.h **** 	crc_accumulate(c, &checksum);
 846              		.loc 2 490 2 view .LVU280
 490:Modules/include/MAVLink/common/../mavlink_helpers.h **** 	crc_accumulate(c, &checksum);
 847              		.loc 2 490 25 is_stmt 0 view .LVU281
 848 0232 0B88     		ldrh	r3, [r1]
 849              	.LVL60:
 491:Modules/include/MAVLink/common/../mavlink_helpers.h **** 	msg->checksum = checksum;
 850              		.loc 2 491 2 is_stmt 1 view .LVU282
 851              	.LBB243:
 852              	.LBI243:
  35:Modules/include/MAVLink/common/../checksum.h **** {
 853              		.loc 3 35 20 view .LVU283
 854              	.LBB244:
  38:Modules/include/MAVLink/common/../checksum.h **** 
 855              		.loc 3 38 9 view .LVU284
  40:Modules/include/MAVLink/common/../checksum.h ****         tmp ^= (tmp<<4);
 856              		.loc 3 40 9 view .LVU285
  40:Modules/include/MAVLink/common/../checksum.h ****         tmp ^= (tmp<<4);
 857              		.loc 3 40 22 is_stmt 0 view .LVU286
 858 0234 DAB2     		uxtb	r2, r3
  40:Modules/include/MAVLink/common/../checksum.h ****         tmp ^= (tmp<<4);
 859              		.loc 3 40 13 view .LVU287
 860 0236 8BEA0202 		eor	r2, fp, r2
 861              	.LVL61:
  41:Modules/include/MAVLink/common/../checksum.h ****         *crcAccum = (*crcAccum>>8) ^ (tmp<<8) ^ (tmp <<3) ^ (tmp>>4);
 862              		.loc 3 41 9 is_stmt 1 view .LVU288
  41:Modules/include/MAVLink/common/../checksum.h ****         *crcAccum = (*crcAccum>>8) ^ (tmp<<8) ^ (tmp <<3) ^ (tmp>>4);
 863              		.loc 3 41 13 is_stmt 0 view .LVU289
 864 023a 82EA0212 		eor	r2, r2, r2, lsl #4
 865              	.LVL62:
  41:Modules/include/MAVLink/common/../checksum.h ****         *crcAccum = (*crcAccum>>8) ^ (tmp<<8) ^ (tmp <<3) ^ (tmp>>4);
 866              		.loc 3 41 13 view .LVU290
 867 023e D2B2     		uxtb	r2, r2
 868              	.LVL63:
  42:Modules/include/MAVLink/common/../checksum.h **** }
ARM GAS  C:\Users\luoha\AppData\Local\Temp\cctfed2n.s 			page 39


 869              		.loc 3 42 9 is_stmt 1 view .LVU291
  42:Modules/include/MAVLink/common/../checksum.h **** }
 870              		.loc 3 42 36 is_stmt 0 view .LVU292
 871 0240 1B0A     		lsrs	r3, r3, #8
 872              	.LVL64:
  42:Modules/include/MAVLink/common/../checksum.h **** }
 873              		.loc 3 42 36 view .LVU293
 874 0242 43EA0223 		orr	r3, r3, r2, lsl #8
 875 0246 1BB2     		sxth	r3, r3
  42:Modules/include/MAVLink/common/../checksum.h **** }
 876              		.loc 3 42 47 view .LVU294
 877 0248 83EAC203 		eor	r3, r3, r2, lsl #3
  42:Modules/include/MAVLink/common/../checksum.h **** }
 878              		.loc 3 42 59 view .LVU295
 879 024c 83EA1213 		eor	r3, r3, r2, lsr #4
 880              	.LVL65:
  42:Modules/include/MAVLink/common/../checksum.h **** }
 881              		.loc 3 42 59 view .LVU296
 882              	.LBE244:
 883              	.LBE243:
 492:Modules/include/MAVLink/common/../mavlink_helpers.h **** }
 884              		.loc 2 492 2 is_stmt 1 view .LVU297
 492:Modules/include/MAVLink/common/../mavlink_helpers.h **** }
 885              		.loc 2 492 16 is_stmt 0 view .LVU298
 886 0250 0B80     		strh	r3, [r1]	@ movhi
 887              	.LVL66:
 492:Modules/include/MAVLink/common/../mavlink_helpers.h **** }
 888              		.loc 2 492 16 view .LVU299
 889              	.LBE242:
 890              	.LBE241:
 666:Modules/include/MAVLink/common/../mavlink_helpers.h **** 		break;
 891              		.loc 2 666 17 is_stmt 1 view .LVU300
 666:Modules/include/MAVLink/common/../mavlink_helpers.h **** 		break;
 892              		.loc 2 666 37 is_stmt 0 view .LVU301
 893 0252 264B     		ldr	r3, .L188
 894 0254 0822     		movs	r2, #8
 895 0256 DA70     		strb	r2, [r3, #3]
 667:Modules/include/MAVLink/common/../mavlink_helpers.h **** 
 896              		.loc 2 667 3 is_stmt 1 view .LVU302
 897 0258 5FE7     		b	.L15
 898              	.L23:
 670:Modules/include/MAVLink/common/../mavlink_helpers.h **** 		mavlink_update_checksum(rxmsg, c);
 899              		.loc 2 670 3 view .LVU303
 670:Modules/include/MAVLink/common/../mavlink_helpers.h **** 		mavlink_update_checksum(rxmsg, c);
 900              		.loc 2 670 16 is_stmt 0 view .LVU304
 901 025a 2549     		ldr	r1, .L188+4
 902 025c 81F809B0 		strb	fp, [r1, #9]
 903 0260 0023     		movs	r3, #0
 904 0262 8B72     		strb	r3, [r1, #10]
 905 0264 CB72     		strb	r3, [r1, #11]
 671:Modules/include/MAVLink/common/../mavlink_helpers.h **** 		if (status->flags & MAVLINK_STATUS_FLAG_IN_MAVLINK1) {
 906              		.loc 2 671 3 is_stmt 1 view .LVU305
 907              	.LVL67:
 908              	.LBB245:
 909              	.LBI245:
 488:Modules/include/MAVLink/common/../mavlink_helpers.h **** {
 910              		.loc 2 488 21 view .LVU306
ARM GAS  C:\Users\luoha\AppData\Local\Temp\cctfed2n.s 			page 40


 911              	.LBB246:
 490:Modules/include/MAVLink/common/../mavlink_helpers.h **** 	crc_accumulate(c, &checksum);
 912              		.loc 2 490 2 view .LVU307
 490:Modules/include/MAVLink/common/../mavlink_helpers.h **** 	crc_accumulate(c, &checksum);
 913              		.loc 2 490 25 is_stmt 0 view .LVU308
 914 0266 0B88     		ldrh	r3, [r1]
 915              	.LVL68:
 491:Modules/include/MAVLink/common/../mavlink_helpers.h **** 	msg->checksum = checksum;
 916              		.loc 2 491 2 is_stmt 1 view .LVU309
 917              	.LBB247:
 918              	.LBI247:
  35:Modules/include/MAVLink/common/../checksum.h **** {
 919              		.loc 3 35 20 view .LVU310
 920              	.LBB248:
  38:Modules/include/MAVLink/common/../checksum.h **** 
 921              		.loc 3 38 9 view .LVU311
  40:Modules/include/MAVLink/common/../checksum.h ****         tmp ^= (tmp<<4);
 922              		.loc 3 40 9 view .LVU312
  40:Modules/include/MAVLink/common/../checksum.h ****         tmp ^= (tmp<<4);
 923              		.loc 3 40 22 is_stmt 0 view .LVU313
 924 0268 DAB2     		uxtb	r2, r3
  40:Modules/include/MAVLink/common/../checksum.h ****         tmp ^= (tmp<<4);
 925              		.loc 3 40 13 view .LVU314
 926 026a 8BEA0202 		eor	r2, fp, r2
 927              	.LVL69:
  41:Modules/include/MAVLink/common/../checksum.h ****         *crcAccum = (*crcAccum>>8) ^ (tmp<<8) ^ (tmp <<3) ^ (tmp>>4);
 928              		.loc 3 41 9 is_stmt 1 view .LVU315
  41:Modules/include/MAVLink/common/../checksum.h ****         *crcAccum = (*crcAccum>>8) ^ (tmp<<8) ^ (tmp <<3) ^ (tmp>>4);
 929              		.loc 3 41 13 is_stmt 0 view .LVU316
 930 026e 82EA0212 		eor	r2, r2, r2, lsl #4
 931              	.LVL70:
  41:Modules/include/MAVLink/common/../checksum.h ****         *crcAccum = (*crcAccum>>8) ^ (tmp<<8) ^ (tmp <<3) ^ (tmp>>4);
 932              		.loc 3 41 13 view .LVU317
 933 0272 D2B2     		uxtb	r2, r2
 934              	.LVL71:
  42:Modules/include/MAVLink/common/../checksum.h **** }
 935              		.loc 3 42 9 is_stmt 1 view .LVU318
  42:Modules/include/MAVLink/common/../checksum.h **** }
 936              		.loc 3 42 36 is_stmt 0 view .LVU319
 937 0274 1B0A     		lsrs	r3, r3, #8
 938              	.LVL72:
  42:Modules/include/MAVLink/common/../checksum.h **** }
 939              		.loc 3 42 36 view .LVU320
 940 0276 43EA0223 		orr	r3, r3, r2, lsl #8
 941 027a 1BB2     		sxth	r3, r3
  42:Modules/include/MAVLink/common/../checksum.h **** }
 942              		.loc 3 42 47 view .LVU321
 943 027c 83EAC203 		eor	r3, r3, r2, lsl #3
  42:Modules/include/MAVLink/common/../checksum.h **** }
 944              		.loc 3 42 59 view .LVU322
 945 0280 83EA1213 		eor	r3, r3, r2, lsr #4
 946              	.LVL73:
  42:Modules/include/MAVLink/common/../checksum.h **** }
 947              		.loc 3 42 59 view .LVU323
 948              	.LBE248:
 949              	.LBE247:
 492:Modules/include/MAVLink/common/../mavlink_helpers.h **** }
ARM GAS  C:\Users\luoha\AppData\Local\Temp\cctfed2n.s 			page 41


 950              		.loc 2 492 2 is_stmt 1 view .LVU324
 492:Modules/include/MAVLink/common/../mavlink_helpers.h **** }
 951              		.loc 2 492 16 is_stmt 0 view .LVU325
 952 0284 0B80     		strh	r3, [r1]	@ movhi
 953              	.LVL74:
 492:Modules/include/MAVLink/common/../mavlink_helpers.h **** }
 954              		.loc 2 492 16 view .LVU326
 955              	.LBE246:
 956              	.LBE245:
 672:Modules/include/MAVLink/common/../mavlink_helpers.h **** 			if(rxmsg->len > 0) {
 957              		.loc 2 672 3 is_stmt 1 view .LVU327
 672:Modules/include/MAVLink/common/../mavlink_helpers.h **** 			if(rxmsg->len > 0) {
 958              		.loc 2 672 13 is_stmt 0 view .LVU328
 959 0286 194B     		ldr	r3, .L188
 960 0288 1B7B     		ldrb	r3, [r3, #12]	@ zero_extendqisi2
 672:Modules/include/MAVLink/common/../mavlink_helpers.h **** 			if(rxmsg->len > 0) {
 961              		.loc 2 672 6 view .LVU329
 962 028a 13F0010F 		tst	r3, #1
 963 028e 09D0     		beq	.L34
 673:Modules/include/MAVLink/common/../mavlink_helpers.h **** 				status->parse_state = MAVLINK_PARSE_STATE_GOT_MSGID3;
 964              		.loc 2 673 4 is_stmt 1 view .LVU330
 673:Modules/include/MAVLink/common/../mavlink_helpers.h **** 				status->parse_state = MAVLINK_PARSE_STATE_GOT_MSGID3;
 965              		.loc 2 673 12 is_stmt 0 view .LVU331
 966 0290 CB78     		ldrb	r3, [r1, #3]	@ zero_extendqisi2
 673:Modules/include/MAVLink/common/../mavlink_helpers.h **** 				status->parse_state = MAVLINK_PARSE_STATE_GOT_MSGID3;
 967              		.loc 2 673 6 view .LVU332
 968 0292 1BB1     		cbz	r3, .L35
 674:Modules/include/MAVLink/common/../mavlink_helpers.h **** 			} else {
 969              		.loc 2 674 5 is_stmt 1 view .LVU333
 674:Modules/include/MAVLink/common/../mavlink_helpers.h **** 			} else {
 970              		.loc 2 674 25 is_stmt 0 view .LVU334
 971 0294 154B     		ldr	r3, .L188
 972 0296 0B22     		movs	r2, #11
 973 0298 DA70     		strb	r2, [r3, #3]
 974 029a 3EE7     		b	.L15
 975              	.L35:
 676:Modules/include/MAVLink/common/../mavlink_helpers.h **** 			}
 976              		.loc 2 676 5 is_stmt 1 view .LVU335
 676:Modules/include/MAVLink/common/../mavlink_helpers.h **** 			}
 977              		.loc 2 676 25 is_stmt 0 view .LVU336
 978 029c 134B     		ldr	r3, .L188
 979 029e 0C22     		movs	r2, #12
 980 02a0 DA70     		strb	r2, [r3, #3]
 981 02a2 3AE7     		b	.L15
 982              	.L34:
 687:Modules/include/MAVLink/common/../mavlink_helpers.h **** 		}
 983              		.loc 2 687 4 is_stmt 1 view .LVU337
 687:Modules/include/MAVLink/common/../mavlink_helpers.h **** 		}
 984              		.loc 2 687 24 is_stmt 0 view .LVU338
 985 02a4 114B     		ldr	r3, .L188
 986 02a6 0922     		movs	r2, #9
 987 02a8 DA70     		strb	r2, [r3, #3]
 988 02aa 36E7     		b	.L15
 989              	.L22:
 692:Modules/include/MAVLink/common/../mavlink_helpers.h **** 		mavlink_update_checksum(rxmsg, c);
 990              		.loc 2 692 3 is_stmt 1 view .LVU339
 692:Modules/include/MAVLink/common/../mavlink_helpers.h **** 		mavlink_update_checksum(rxmsg, c);
ARM GAS  C:\Users\luoha\AppData\Local\Temp\cctfed2n.s 			page 42


 991              		.loc 2 692 16 is_stmt 0 view .LVU340
 992 02ac 1049     		ldr	r1, .L188+4
 993 02ae 8A68     		ldr	r2, [r1, #8]
 994 02b0 C2F31722 		ubfx	r2, r2, #8, #24
 995 02b4 42EA0B23 		orr	r3, r2, fp, lsl #8
 996 02b8 4A72     		strb	r2, [r1, #9]
 997 02ba C3F30722 		ubfx	r2, r3, #8, #8
 998 02be 8A72     		strb	r2, [r1, #10]
 999 02c0 1B0C     		lsrs	r3, r3, #16
 1000 02c2 CB72     		strb	r3, [r1, #11]
 693:Modules/include/MAVLink/common/../mavlink_helpers.h **** 		status->parse_state = MAVLINK_PARSE_STATE_GOT_MSGID2;
 1001              		.loc 2 693 3 is_stmt 1 view .LVU341
 1002              	.LVL75:
 1003              	.LBB249:
 1004              	.LBI249:
 488:Modules/include/MAVLink/common/../mavlink_helpers.h **** {
 1005              		.loc 2 488 21 view .LVU342
 1006              	.LBB250:
 490:Modules/include/MAVLink/common/../mavlink_helpers.h **** 	crc_accumulate(c, &checksum);
 1007              		.loc 2 490 2 view .LVU343
 490:Modules/include/MAVLink/common/../mavlink_helpers.h **** 	crc_accumulate(c, &checksum);
 1008              		.loc 2 490 25 is_stmt 0 view .LVU344
 1009 02c4 0B88     		ldrh	r3, [r1]
 1010              	.LVL76:
 491:Modules/include/MAVLink/common/../mavlink_helpers.h **** 	msg->checksum = checksum;
 1011              		.loc 2 491 2 is_stmt 1 view .LVU345
 1012              	.LBB251:
 1013              	.LBI251:
  35:Modules/include/MAVLink/common/../checksum.h **** {
 1014              		.loc 3 35 20 view .LVU346
 1015              	.LBB252:
  38:Modules/include/MAVLink/common/../checksum.h **** 
 1016              		.loc 3 38 9 view .LVU347
  40:Modules/include/MAVLink/common/../checksum.h ****         tmp ^= (tmp<<4);
 1017              		.loc 3 40 9 view .LVU348
  40:Modules/include/MAVLink/common/../checksum.h ****         tmp ^= (tmp<<4);
 1018              		.loc 3 40 22 is_stmt 0 view .LVU349
 1019 02c6 DAB2     		uxtb	r2, r3
  40:Modules/include/MAVLink/common/../checksum.h ****         tmp ^= (tmp<<4);
 1020              		.loc 3 40 13 view .LVU350
 1021 02c8 8BEA0202 		eor	r2, fp, r2
 1022              	.LVL77:
  41:Modules/include/MAVLink/common/../checksum.h ****         *crcAccum = (*crcAccum>>8) ^ (tmp<<8) ^ (tmp <<3) ^ (tmp>>4);
 1023              		.loc 3 41 9 is_stmt 1 view .LVU351
  41:Modules/include/MAVLink/common/../checksum.h ****         *crcAccum = (*crcAccum>>8) ^ (tmp<<8) ^ (tmp <<3) ^ (tmp>>4);
 1024              		.loc 3 41 13 is_stmt 0 view .LVU352
 1025 02cc 82EA0212 		eor	r2, r2, r2, lsl #4
 1026              	.LVL78:
  41:Modules/include/MAVLink/common/../checksum.h ****         *crcAccum = (*crcAccum>>8) ^ (tmp<<8) ^ (tmp <<3) ^ (tmp>>4);
 1027              		.loc 3 41 13 view .LVU353
 1028 02d0 D2B2     		uxtb	r2, r2
 1029              	.LVL79:
  42:Modules/include/MAVLink/common/../checksum.h **** }
 1030              		.loc 3 42 9 is_stmt 1 view .LVU354
  42:Modules/include/MAVLink/common/../checksum.h **** }
 1031              		.loc 3 42 36 is_stmt 0 view .LVU355
 1032 02d2 1B0A     		lsrs	r3, r3, #8
ARM GAS  C:\Users\luoha\AppData\Local\Temp\cctfed2n.s 			page 43


 1033              	.LVL80:
  42:Modules/include/MAVLink/common/../checksum.h **** }
 1034              		.loc 3 42 36 view .LVU356
 1035 02d4 43EA0223 		orr	r3, r3, r2, lsl #8
 1036 02d8 1BB2     		sxth	r3, r3
  42:Modules/include/MAVLink/common/../checksum.h **** }
 1037              		.loc 3 42 47 view .LVU357
 1038 02da 83EAC203 		eor	r3, r3, r2, lsl #3
  42:Modules/include/MAVLink/common/../checksum.h **** }
 1039              		.loc 3 42 59 view .LVU358
 1040 02de 83EA1213 		eor	r3, r3, r2, lsr #4
 1041              	.LVL81:
  42:Modules/include/MAVLink/common/../checksum.h **** }
 1042              		.loc 3 42 59 view .LVU359
 1043              	.LBE252:
 1044              	.LBE251:
 492:Modules/include/MAVLink/common/../mavlink_helpers.h **** }
 1045              		.loc 2 492 2 is_stmt 1 view .LVU360
 492:Modules/include/MAVLink/common/../mavlink_helpers.h **** }
 1046              		.loc 2 492 16 is_stmt 0 view .LVU361
 1047 02e2 0B80     		strh	r3, [r1]	@ movhi
 1048              	.LVL82:
 492:Modules/include/MAVLink/common/../mavlink_helpers.h **** }
 1049              		.loc 2 492 16 view .LVU362
 1050              	.LBE250:
 1051              	.LBE249:
 694:Modules/include/MAVLink/common/../mavlink_helpers.h **** 		break;
 1052              		.loc 2 694 3 is_stmt 1 view .LVU363
 694:Modules/include/MAVLink/common/../mavlink_helpers.h **** 		break;
 1053              		.loc 2 694 23 is_stmt 0 view .LVU364
 1054 02e4 014B     		ldr	r3, .L188
 1055 02e6 0A22     		movs	r2, #10
 1056 02e8 DA70     		strb	r2, [r3, #3]
 695:Modules/include/MAVLink/common/../mavlink_helpers.h **** 
 1057              		.loc 2 695 3 is_stmt 1 view .LVU365
 1058 02ea 16E7     		b	.L15
 1059              	.L189:
 1060              		.align	2
 1061              	.L188:
 1062 02ec 00000000 		.word	.LANCHOR2
 1063 02f0 00000000 		.word	.LANCHOR1
 1064 02f4 00000000 		.word	.LANCHOR4
 1065 02f8 00000000 		.word	.LANCHOR6
 1066              	.L21:
 698:Modules/include/MAVLink/common/../mavlink_helpers.h **** 		mavlink_update_checksum(rxmsg, c);
 1067              		.loc 2 698 3 view .LVU366
 698:Modules/include/MAVLink/common/../mavlink_helpers.h **** 		mavlink_update_checksum(rxmsg, c);
 1068              		.loc 2 698 16 is_stmt 0 view .LVU367
 1069 02fc 9949     		ldr	r1, .L190
 1070 02fe 8B68     		ldr	r3, [r1, #8]
 1071 0300 C3F31723 		ubfx	r3, r3, #8, #24
 1072 0304 43EA0B42 		orr	r2, r3, fp, lsl #16
 1073 0308 4B72     		strb	r3, [r1, #9]
 1074 030a C3F30723 		ubfx	r3, r3, #8, #8
 1075 030e 8B72     		strb	r3, [r1, #10]
 1076 0310 130C     		lsrs	r3, r2, #16
 1077 0312 CB72     		strb	r3, [r1, #11]
ARM GAS  C:\Users\luoha\AppData\Local\Temp\cctfed2n.s 			page 44


 699:Modules/include/MAVLink/common/../mavlink_helpers.h **** 		if(rxmsg->len > 0){
 1078              		.loc 2 699 3 is_stmt 1 view .LVU368
 1079              	.LVL83:
 1080              	.LBB253:
 1081              	.LBI253:
 488:Modules/include/MAVLink/common/../mavlink_helpers.h **** {
 1082              		.loc 2 488 21 view .LVU369
 1083              	.LBB254:
 490:Modules/include/MAVLink/common/../mavlink_helpers.h **** 	crc_accumulate(c, &checksum);
 1084              		.loc 2 490 2 view .LVU370
 490:Modules/include/MAVLink/common/../mavlink_helpers.h **** 	crc_accumulate(c, &checksum);
 1085              		.loc 2 490 25 is_stmt 0 view .LVU371
 1086 0314 0B88     		ldrh	r3, [r1]
 1087              	.LVL84:
 491:Modules/include/MAVLink/common/../mavlink_helpers.h **** 	msg->checksum = checksum;
 1088              		.loc 2 491 2 is_stmt 1 view .LVU372
 1089              	.LBB255:
 1090              	.LBI255:
  35:Modules/include/MAVLink/common/../checksum.h **** {
 1091              		.loc 3 35 20 view .LVU373
 1092              	.LBB256:
  38:Modules/include/MAVLink/common/../checksum.h **** 
 1093              		.loc 3 38 9 view .LVU374
  40:Modules/include/MAVLink/common/../checksum.h ****         tmp ^= (tmp<<4);
 1094              		.loc 3 40 9 view .LVU375
  40:Modules/include/MAVLink/common/../checksum.h ****         tmp ^= (tmp<<4);
 1095              		.loc 3 40 22 is_stmt 0 view .LVU376
 1096 0316 DAB2     		uxtb	r2, r3
  40:Modules/include/MAVLink/common/../checksum.h ****         tmp ^= (tmp<<4);
 1097              		.loc 3 40 13 view .LVU377
 1098 0318 8BEA0202 		eor	r2, fp, r2
 1099              	.LVL85:
  41:Modules/include/MAVLink/common/../checksum.h ****         *crcAccum = (*crcAccum>>8) ^ (tmp<<8) ^ (tmp <<3) ^ (tmp>>4);
 1100              		.loc 3 41 9 is_stmt 1 view .LVU378
  41:Modules/include/MAVLink/common/../checksum.h ****         *crcAccum = (*crcAccum>>8) ^ (tmp<<8) ^ (tmp <<3) ^ (tmp>>4);
 1101              		.loc 3 41 13 is_stmt 0 view .LVU379
 1102 031c 82EA0212 		eor	r2, r2, r2, lsl #4
 1103              	.LVL86:
  41:Modules/include/MAVLink/common/../checksum.h ****         *crcAccum = (*crcAccum>>8) ^ (tmp<<8) ^ (tmp <<3) ^ (tmp>>4);
 1104              		.loc 3 41 13 view .LVU380
 1105 0320 D2B2     		uxtb	r2, r2
 1106              	.LVL87:
  42:Modules/include/MAVLink/common/../checksum.h **** }
 1107              		.loc 3 42 9 is_stmt 1 view .LVU381
  42:Modules/include/MAVLink/common/../checksum.h **** }
 1108              		.loc 3 42 36 is_stmt 0 view .LVU382
 1109 0322 1B0A     		lsrs	r3, r3, #8
 1110              	.LVL88:
  42:Modules/include/MAVLink/common/../checksum.h **** }
 1111              		.loc 3 42 36 view .LVU383
 1112 0324 43EA0223 		orr	r3, r3, r2, lsl #8
 1113 0328 1BB2     		sxth	r3, r3
  42:Modules/include/MAVLink/common/../checksum.h **** }
 1114              		.loc 3 42 47 view .LVU384
 1115 032a 83EAC203 		eor	r3, r3, r2, lsl #3
  42:Modules/include/MAVLink/common/../checksum.h **** }
 1116              		.loc 3 42 59 view .LVU385
ARM GAS  C:\Users\luoha\AppData\Local\Temp\cctfed2n.s 			page 45


 1117 032e 83EA1213 		eor	r3, r3, r2, lsr #4
 1118              	.LVL89:
  42:Modules/include/MAVLink/common/../checksum.h **** }
 1119              		.loc 3 42 59 view .LVU386
 1120              	.LBE256:
 1121              	.LBE255:
 492:Modules/include/MAVLink/common/../mavlink_helpers.h **** }
 1122              		.loc 2 492 2 is_stmt 1 view .LVU387
 492:Modules/include/MAVLink/common/../mavlink_helpers.h **** }
 1123              		.loc 2 492 16 is_stmt 0 view .LVU388
 1124 0332 0B80     		strh	r3, [r1]	@ movhi
 1125              	.LVL90:
 492:Modules/include/MAVLink/common/../mavlink_helpers.h **** }
 1126              		.loc 2 492 16 view .LVU389
 1127              	.LBE254:
 1128              	.LBE253:
 700:Modules/include/MAVLink/common/../mavlink_helpers.h **** 			status->parse_state = MAVLINK_PARSE_STATE_GOT_MSGID3;
 1129              		.loc 2 700 3 is_stmt 1 view .LVU390
 700:Modules/include/MAVLink/common/../mavlink_helpers.h **** 			status->parse_state = MAVLINK_PARSE_STATE_GOT_MSGID3;
 1130              		.loc 2 700 11 is_stmt 0 view .LVU391
 1131 0334 CB78     		ldrb	r3, [r1, #3]	@ zero_extendqisi2
 700:Modules/include/MAVLink/common/../mavlink_helpers.h **** 			status->parse_state = MAVLINK_PARSE_STATE_GOT_MSGID3;
 1132              		.loc 2 700 5 view .LVU392
 1133 0336 1BB1     		cbz	r3, .L36
 701:Modules/include/MAVLink/common/../mavlink_helpers.h **** 		} else {
 1134              		.loc 2 701 4 is_stmt 1 view .LVU393
 701:Modules/include/MAVLink/common/../mavlink_helpers.h **** 		} else {
 1135              		.loc 2 701 24 is_stmt 0 view .LVU394
 1136 0338 8B4B     		ldr	r3, .L190+4
 1137 033a 0B22     		movs	r2, #11
 1138 033c DA70     		strb	r2, [r3, #3]
 1139 033e ECE6     		b	.L15
 1140              	.L36:
 703:Modules/include/MAVLink/common/../mavlink_helpers.h **** 		}
 1141              		.loc 2 703 4 is_stmt 1 view .LVU395
 703:Modules/include/MAVLink/common/../mavlink_helpers.h **** 		}
 1142              		.loc 2 703 24 is_stmt 0 view .LVU396
 1143 0340 894B     		ldr	r3, .L190+4
 1144 0342 0C22     		movs	r2, #12
 1145 0344 DA70     		strb	r2, [r3, #3]
 1146 0346 E8E6     		b	.L15
 1147              	.L20:
 717:Modules/include/MAVLink/common/../mavlink_helpers.h **** 		mavlink_update_checksum(rxmsg, c);
 1148              		.loc 2 717 3 is_stmt 1 view .LVU397
 717:Modules/include/MAVLink/common/../mavlink_helpers.h **** 		mavlink_update_checksum(rxmsg, c);
 1149              		.loc 2 717 39 is_stmt 0 view .LVU398
 1150 0348 874A     		ldr	r2, .L190+4
 1151 034a 1379     		ldrb	r3, [r2, #4]	@ zero_extendqisi2
 717:Modules/include/MAVLink/common/../mavlink_helpers.h **** 		mavlink_update_checksum(rxmsg, c);
 1152              		.loc 2 717 51 view .LVU399
 1153 034c 591C     		adds	r1, r3, #1
 1154 034e 1171     		strb	r1, [r2, #4]
 717:Modules/include/MAVLink/common/../mavlink_helpers.h **** 		mavlink_update_checksum(rxmsg, c);
 1155              		.loc 2 717 32 view .LVU400
 1156 0350 8448     		ldr	r0, .L190
 1157 0352 00F10C02 		add	r2, r0, #12
 717:Modules/include/MAVLink/common/../mavlink_helpers.h **** 		mavlink_update_checksum(rxmsg, c);
ARM GAS  C:\Users\luoha\AppData\Local\Temp\cctfed2n.s 			page 46


 1158              		.loc 2 717 55 view .LVU401
 1159 0356 02F803B0 		strb	fp, [r2, r3]
 718:Modules/include/MAVLink/common/../mavlink_helpers.h **** 		if (status->packet_idx == rxmsg->len)
 1160              		.loc 2 718 3 is_stmt 1 view .LVU402
 1161              	.LVL91:
 1162              	.LBB257:
 1163              	.LBI257:
 488:Modules/include/MAVLink/common/../mavlink_helpers.h **** {
 1164              		.loc 2 488 21 view .LVU403
 1165              	.LBB258:
 490:Modules/include/MAVLink/common/../mavlink_helpers.h **** 	crc_accumulate(c, &checksum);
 1166              		.loc 2 490 2 view .LVU404
 490:Modules/include/MAVLink/common/../mavlink_helpers.h **** 	crc_accumulate(c, &checksum);
 1167              		.loc 2 490 25 is_stmt 0 view .LVU405
 1168 035a 0388     		ldrh	r3, [r0]
 1169              	.LVL92:
 491:Modules/include/MAVLink/common/../mavlink_helpers.h **** 	msg->checksum = checksum;
 1170              		.loc 2 491 2 is_stmt 1 view .LVU406
 1171              	.LBB259:
 1172              	.LBI259:
  35:Modules/include/MAVLink/common/../checksum.h **** {
 1173              		.loc 3 35 20 view .LVU407
 1174              	.LBB260:
  38:Modules/include/MAVLink/common/../checksum.h **** 
 1175              		.loc 3 38 9 view .LVU408
  40:Modules/include/MAVLink/common/../checksum.h ****         tmp ^= (tmp<<4);
 1176              		.loc 3 40 9 view .LVU409
  40:Modules/include/MAVLink/common/../checksum.h ****         tmp ^= (tmp<<4);
 1177              		.loc 3 40 22 is_stmt 0 view .LVU410
 1178 035c DAB2     		uxtb	r2, r3
 1179              	.LVL93:
  40:Modules/include/MAVLink/common/../checksum.h ****         tmp ^= (tmp<<4);
 1180              		.loc 3 40 13 view .LVU411
 1181 035e 8BEA0202 		eor	r2, fp, r2
 1182              	.LVL94:
  41:Modules/include/MAVLink/common/../checksum.h ****         *crcAccum = (*crcAccum>>8) ^ (tmp<<8) ^ (tmp <<3) ^ (tmp>>4);
 1183              		.loc 3 41 9 is_stmt 1 view .LVU412
  41:Modules/include/MAVLink/common/../checksum.h ****         *crcAccum = (*crcAccum>>8) ^ (tmp<<8) ^ (tmp <<3) ^ (tmp>>4);
 1184              		.loc 3 41 13 is_stmt 0 view .LVU413
 1185 0362 82EA0212 		eor	r2, r2, r2, lsl #4
 1186              	.LVL95:
  41:Modules/include/MAVLink/common/../checksum.h ****         *crcAccum = (*crcAccum>>8) ^ (tmp<<8) ^ (tmp <<3) ^ (tmp>>4);
 1187              		.loc 3 41 13 view .LVU414
 1188 0366 D2B2     		uxtb	r2, r2
 1189              	.LVL96:
  42:Modules/include/MAVLink/common/../checksum.h **** }
 1190              		.loc 3 42 9 is_stmt 1 view .LVU415
  42:Modules/include/MAVLink/common/../checksum.h **** }
 1191              		.loc 3 42 36 is_stmt 0 view .LVU416
 1192 0368 1B0A     		lsrs	r3, r3, #8
 1193              	.LVL97:
  42:Modules/include/MAVLink/common/../checksum.h **** }
 1194              		.loc 3 42 36 view .LVU417
 1195 036a 43EA0223 		orr	r3, r3, r2, lsl #8
 1196 036e 1BB2     		sxth	r3, r3
  42:Modules/include/MAVLink/common/../checksum.h **** }
 1197              		.loc 3 42 47 view .LVU418
ARM GAS  C:\Users\luoha\AppData\Local\Temp\cctfed2n.s 			page 47


 1198 0370 83EAC203 		eor	r3, r3, r2, lsl #3
  42:Modules/include/MAVLink/common/../checksum.h **** }
 1199              		.loc 3 42 59 view .LVU419
 1200 0374 83EA1213 		eor	r3, r3, r2, lsr #4
 1201              	.LVL98:
  42:Modules/include/MAVLink/common/../checksum.h **** }
 1202              		.loc 3 42 59 view .LVU420
 1203              	.LBE260:
 1204              	.LBE259:
 492:Modules/include/MAVLink/common/../mavlink_helpers.h **** }
 1205              		.loc 2 492 2 is_stmt 1 view .LVU421
 492:Modules/include/MAVLink/common/../mavlink_helpers.h **** }
 1206              		.loc 2 492 16 is_stmt 0 view .LVU422
 1207 0378 0380     		strh	r3, [r0]	@ movhi
 1208              	.LVL99:
 492:Modules/include/MAVLink/common/../mavlink_helpers.h **** }
 1209              		.loc 2 492 16 view .LVU423
 1210              	.LBE258:
 1211              	.LBE257:
 719:Modules/include/MAVLink/common/../mavlink_helpers.h **** 		{
 1212              		.loc 2 719 3 is_stmt 1 view .LVU424
 719:Modules/include/MAVLink/common/../mavlink_helpers.h **** 		{
 1213              		.loc 2 719 13 is_stmt 0 view .LVU425
 1214 037a C9B2     		uxtb	r1, r1
 719:Modules/include/MAVLink/common/../mavlink_helpers.h **** 		{
 1215              		.loc 2 719 34 view .LVU426
 1216 037c C378     		ldrb	r3, [r0, #3]	@ zero_extendqisi2
 719:Modules/include/MAVLink/common/../mavlink_helpers.h **** 		{
 1217              		.loc 2 719 6 view .LVU427
 1218 037e 9942     		cmp	r1, r3
 1219 0380 7FF4CBAE 		bne	.L15
 721:Modules/include/MAVLink/common/../mavlink_helpers.h **** 		}
 1220              		.loc 2 721 4 is_stmt 1 view .LVU428
 721:Modules/include/MAVLink/common/../mavlink_helpers.h **** 		}
 1221              		.loc 2 721 24 is_stmt 0 view .LVU429
 1222 0384 784B     		ldr	r3, .L190+4
 1223 0386 0C22     		movs	r2, #12
 1224 0388 DA70     		strb	r2, [r3, #3]
 1225 038a C6E6     		b	.L15
 1226              	.L19:
 1227              	.LBB261:
 726:Modules/include/MAVLink/common/../mavlink_helpers.h **** 		uint8_t crc_extra = e?e->crc_extra:0;
 1228              		.loc 2 726 3 is_stmt 1 view .LVU430
 726:Modules/include/MAVLink/common/../mavlink_helpers.h **** 		uint8_t crc_extra = e?e->crc_extra:0;
 1229              		.loc 2 726 61 is_stmt 0 view .LVU431
 1230 038c 754B     		ldr	r3, .L190
 1231 038e 9868     		ldr	r0, [r3, #8]
 1232 0390 C0F31720 		ubfx	r0, r0, #8, #24
 1233              	.LVL100:
 1234              	.LBB262:
 1235              	.LBI262:
 499:Modules/include/MAVLink/common/../mavlink_helpers.h **** {
 1236              		.loc 2 499 43 is_stmt 1 view .LVU432
 1237              	.LBB263:
 501:Modules/include/MAVLink/common/../mavlink_helpers.h ****         /*
 1238              		.loc 2 501 2 view .LVU433
 506:Modules/include/MAVLink/common/../mavlink_helpers.h ****         while (low < high) {
ARM GAS  C:\Users\luoha\AppData\Local\Temp\cctfed2n.s 			page 48


 1239              		.loc 2 506 9 view .LVU434
 507:Modules/include/MAVLink/common/../mavlink_helpers.h ****             uint32_t mid = (low+1+high)/2;
 1240              		.loc 2 507 9 view .LVU435
 506:Modules/include/MAVLink/common/../mavlink_helpers.h ****         while (low < high) {
 1241              		.loc 2 506 25 is_stmt 0 view .LVU436
 1242 0394 C524     		movs	r4, #197
 506:Modules/include/MAVLink/common/../mavlink_helpers.h ****         while (low < high) {
 1243              		.loc 2 506 18 view .LVU437
 1244 0396 0025     		movs	r5, #0
 1245              	.LVL101:
 1246              	.L37:
 507:Modules/include/MAVLink/common/../mavlink_helpers.h ****             uint32_t mid = (low+1+high)/2;
 1247              		.loc 2 507 15 is_stmt 1 view .LVU438
 1248 0398 A542     		cmp	r5, r4
 1249 039a 48D2     		bcs	.L161
 1250              	.LBB264:
 508:Modules/include/MAVLink/common/../mavlink_helpers.h ****             if (msgid < mavlink_message_crcs[mid].msgid) {
 1251              		.loc 2 508 13 view .LVU439
 508:Modules/include/MAVLink/common/../mavlink_helpers.h ****             if (msgid < mavlink_message_crcs[mid].msgid) {
 1252              		.loc 2 508 34 is_stmt 0 view .LVU440
 1253 039c 2B19     		adds	r3, r5, r4
 1254 039e 0133     		adds	r3, r3, #1
 508:Modules/include/MAVLink/common/../mavlink_helpers.h ****             if (msgid < mavlink_message_crcs[mid].msgid) {
 1255              		.loc 2 508 22 view .LVU441
 1256 03a0 5A08     		lsrs	r2, r3, #1
 1257              	.LVL102:
 509:Modules/include/MAVLink/common/../mavlink_helpers.h ****                 high = mid-1;
 1258              		.loc 2 509 13 is_stmt 1 view .LVU442
 509:Modules/include/MAVLink/common/../mavlink_helpers.h ****                 high = mid-1;
 1259              		.loc 2 509 50 is_stmt 0 view .LVU443
 1260 03a2 23F00101 		bic	r1, r3, #1
 1261 03a6 01EB5303 		add	r3, r1, r3, lsr #1
 1262 03aa 7049     		ldr	r1, .L190+8
 1263 03ac 51F82330 		ldr	r3, [r1, r3, lsl #2]
 509:Modules/include/MAVLink/common/../mavlink_helpers.h ****                 high = mid-1;
 1264              		.loc 2 509 16 view .LVU444
 1265 03b0 9842     		cmp	r0, r3
 1266 03b2 38D3     		bcc	.L162
 513:Modules/include/MAVLink/common/../mavlink_helpers.h ****                 low = mid;
 1267              		.loc 2 513 13 is_stmt 1 view .LVU445
 513:Modules/include/MAVLink/common/../mavlink_helpers.h ****                 low = mid;
 1268              		.loc 2 513 16 is_stmt 0 view .LVU446
 1269 03b4 9842     		cmp	r0, r3
 1270 03b6 38D8     		bhi	.L163
 1271              	.LVL103:
 1272              	.L40:
 513:Modules/include/MAVLink/common/../mavlink_helpers.h ****                 low = mid;
 1273              		.loc 2 513 16 view .LVU447
 1274              	.LBE264:
 520:Modules/include/MAVLink/common/../mavlink_helpers.h ****             // msgid is not in the table
 1275              		.loc 2 520 9 is_stmt 1 view .LVU448
 520:Modules/include/MAVLink/common/../mavlink_helpers.h ****             // msgid is not in the table
 1276              		.loc 2 520 38 is_stmt 0 view .LVU449
 1277 03b8 02EB4203 		add	r3, r2, r2, lsl #1
 1278 03bc 6B49     		ldr	r1, .L190+8
 1279 03be 51F82330 		ldr	r3, [r1, r3, lsl #2]
 520:Modules/include/MAVLink/common/../mavlink_helpers.h ****             // msgid is not in the table
ARM GAS  C:\Users\luoha\AppData\Local\Temp\cctfed2n.s 			page 49


 1280              		.loc 2 520 12 view .LVU450
 1281 03c2 9842     		cmp	r0, r3
 1282 03c4 35D1     		bne	.L135
 524:Modules/include/MAVLink/common/../mavlink_helpers.h **** }
 1283              		.loc 2 524 9 is_stmt 1 view .LVU451
 524:Modules/include/MAVLink/common/../mavlink_helpers.h **** }
 1284              		.loc 2 524 16 is_stmt 0 view .LVU452
 1285 03c6 02EB4202 		add	r2, r2, r2, lsl #1
 1286              	.LVL104:
 524:Modules/include/MAVLink/common/../mavlink_helpers.h **** }
 1287              		.loc 2 524 16 view .LVU453
 1288              	.LBE263:
 1289              	.LBE262:
 727:Modules/include/MAVLink/common/../mavlink_helpers.h **** 		mavlink_update_checksum(rxmsg, crc_extra);
 1290              		.loc 2 727 3 is_stmt 1 view .LVU454
 727:Modules/include/MAVLink/common/../mavlink_helpers.h **** 		mavlink_update_checksum(rxmsg, crc_extra);
 1291              		.loc 2 727 11 is_stmt 0 view .LVU455
 1292 03ca 11EB8201 		adds	r1, r1, r2, lsl #2
 1293              	.LVL105:
 727:Modules/include/MAVLink/common/../mavlink_helpers.h **** 		mavlink_update_checksum(rxmsg, crc_extra);
 1294              		.loc 2 727 11 view .LVU456
 1295 03ce 33D0     		beq	.L136
 1296 03d0 0C79     		ldrb	r4, [r1, #4]	@ zero_extendqisi2
 1297              	.LVL106:
 1298              	.L42:
 728:Modules/include/MAVLink/common/../mavlink_helpers.h **** 		if (c != (rxmsg->checksum & 0xFF)) {
 1299              		.loc 2 728 3 is_stmt 1 view .LVU457
 1300              	.LBB267:
 1301              	.LBI267:
 488:Modules/include/MAVLink/common/../mavlink_helpers.h **** {
 1302              		.loc 2 488 21 view .LVU458
 1303              	.LBB268:
 490:Modules/include/MAVLink/common/../mavlink_helpers.h **** 	crc_accumulate(c, &checksum);
 1304              		.loc 2 490 2 view .LVU459
 490:Modules/include/MAVLink/common/../mavlink_helpers.h **** 	crc_accumulate(c, &checksum);
 1305              		.loc 2 490 25 is_stmt 0 view .LVU460
 1306 03d2 6448     		ldr	r0, .L190
 1307 03d4 0388     		ldrh	r3, [r0]
 1308              	.LVL107:
 491:Modules/include/MAVLink/common/../mavlink_helpers.h **** 	msg->checksum = checksum;
 1309              		.loc 2 491 2 is_stmt 1 view .LVU461
 1310              	.LBB269:
 1311              	.LBI269:
  35:Modules/include/MAVLink/common/../checksum.h **** {
 1312              		.loc 3 35 20 view .LVU462
 1313              	.LBB270:
  38:Modules/include/MAVLink/common/../checksum.h **** 
 1314              		.loc 3 38 9 view .LVU463
  40:Modules/include/MAVLink/common/../checksum.h ****         tmp ^= (tmp<<4);
 1315              		.loc 3 40 9 view .LVU464
  40:Modules/include/MAVLink/common/../checksum.h ****         tmp ^= (tmp<<4);
 1316              		.loc 3 40 22 is_stmt 0 view .LVU465
 1317 03d6 DAB2     		uxtb	r2, r3
  40:Modules/include/MAVLink/common/../checksum.h ****         tmp ^= (tmp<<4);
 1318              		.loc 3 40 13 view .LVU466
 1319 03d8 6240     		eors	r2, r2, r4
 1320              	.LVL108:
ARM GAS  C:\Users\luoha\AppData\Local\Temp\cctfed2n.s 			page 50


  41:Modules/include/MAVLink/common/../checksum.h ****         *crcAccum = (*crcAccum>>8) ^ (tmp<<8) ^ (tmp <<3) ^ (tmp>>4);
 1321              		.loc 3 41 9 is_stmt 1 view .LVU467
  41:Modules/include/MAVLink/common/../checksum.h ****         *crcAccum = (*crcAccum>>8) ^ (tmp<<8) ^ (tmp <<3) ^ (tmp>>4);
 1322              		.loc 3 41 13 is_stmt 0 view .LVU468
 1323 03da 82EA0212 		eor	r2, r2, r2, lsl #4
 1324              	.LVL109:
  41:Modules/include/MAVLink/common/../checksum.h ****         *crcAccum = (*crcAccum>>8) ^ (tmp<<8) ^ (tmp <<3) ^ (tmp>>4);
 1325              		.loc 3 41 13 view .LVU469
 1326 03de D2B2     		uxtb	r2, r2
 1327              	.LVL110:
  42:Modules/include/MAVLink/common/../checksum.h **** }
 1328              		.loc 3 42 9 is_stmt 1 view .LVU470
  42:Modules/include/MAVLink/common/../checksum.h **** }
 1329              		.loc 3 42 36 is_stmt 0 view .LVU471
 1330 03e0 1B0A     		lsrs	r3, r3, #8
 1331              	.LVL111:
  42:Modules/include/MAVLink/common/../checksum.h **** }
 1332              		.loc 3 42 36 view .LVU472
 1333 03e2 43EA0223 		orr	r3, r3, r2, lsl #8
 1334 03e6 1BB2     		sxth	r3, r3
  42:Modules/include/MAVLink/common/../checksum.h **** }
 1335              		.loc 3 42 47 view .LVU473
 1336 03e8 83EAC203 		eor	r3, r3, r2, lsl #3
  42:Modules/include/MAVLink/common/../checksum.h **** }
 1337              		.loc 3 42 59 view .LVU474
 1338 03ec 83EA1213 		eor	r3, r3, r2, lsr #4
 1339 03f0 9BB2     		uxth	r3, r3
 1340              	.LVL112:
  42:Modules/include/MAVLink/common/../checksum.h **** }
 1341              		.loc 3 42 59 view .LVU475
 1342              	.LBE270:
 1343              	.LBE269:
 492:Modules/include/MAVLink/common/../mavlink_helpers.h **** }
 1344              		.loc 2 492 2 is_stmt 1 view .LVU476
 492:Modules/include/MAVLink/common/../mavlink_helpers.h **** }
 1345              		.loc 2 492 16 is_stmt 0 view .LVU477
 1346 03f2 0380     		strh	r3, [r0]	@ movhi
 1347              	.LVL113:
 492:Modules/include/MAVLink/common/../mavlink_helpers.h **** }
 1348              		.loc 2 492 16 view .LVU478
 1349              	.LBE268:
 1350              	.LBE267:
 729:Modules/include/MAVLink/common/../mavlink_helpers.h **** 			status->parse_state = MAVLINK_PARSE_STATE_GOT_BAD_CRC1;
 1351              		.loc 2 729 3 is_stmt 1 view .LVU479
 729:Modules/include/MAVLink/common/../mavlink_helpers.h **** 			status->parse_state = MAVLINK_PARSE_STATE_GOT_BAD_CRC1;
 1352              		.loc 2 729 29 is_stmt 0 view .LVU480
 1353 03f4 DBB2     		uxtb	r3, r3
 729:Modules/include/MAVLink/common/../mavlink_helpers.h **** 			status->parse_state = MAVLINK_PARSE_STATE_GOT_BAD_CRC1;
 1354              		.loc 2 729 6 view .LVU481
 1355 03f6 9B45     		cmp	fp, r3
 1356 03f8 20D0     		beq	.L43
 730:Modules/include/MAVLink/common/../mavlink_helpers.h **** 		} else {
 1357              		.loc 2 730 4 is_stmt 1 view .LVU482
 730:Modules/include/MAVLink/common/../mavlink_helpers.h **** 		} else {
 1358              		.loc 2 730 24 is_stmt 0 view .LVU483
 1359 03fa 5B4B     		ldr	r3, .L190+4
 1360 03fc 0E22     		movs	r2, #14
ARM GAS  C:\Users\luoha\AppData\Local\Temp\cctfed2n.s 			page 51


 1361 03fe DA70     		strb	r2, [r3, #3]
 1362              	.L44:
 734:Modules/include/MAVLink/common/../mavlink_helpers.h **** 
 1363              		.loc 2 734 17 is_stmt 1 view .LVU484
 734:Modules/include/MAVLink/common/../mavlink_helpers.h **** 
 1364              		.loc 2 734 30 is_stmt 0 view .LVU485
 1365 0400 584B     		ldr	r3, .L190
 1366 0402 83F814B1 		strb	fp, [r3, #276]
 737:Modules/include/MAVLink/common/../mavlink_helpers.h ****                         memset(&_MAV_PAYLOAD_NON_CONST(rxmsg)[status->packet_idx], 0, e->max_msg_le
 1367              		.loc 2 737 17 is_stmt 1 view .LVU486
 737:Modules/include/MAVLink/common/../mavlink_helpers.h ****                         memset(&_MAV_PAYLOAD_NON_CONST(rxmsg)[status->packet_idx], 0, e->max_msg_le
 1368              		.loc 2 737 20 is_stmt 0 view .LVU487
 1369 0406 0029     		cmp	r1, #0
 1370 0408 3FF487AE 		beq	.L15
 737:Modules/include/MAVLink/common/../mavlink_helpers.h ****                         memset(&_MAV_PAYLOAD_NON_CONST(rxmsg)[status->packet_idx], 0, e->max_msg_le
 1371              		.loc 2 737 32 view .LVU488
 1372 040c 564B     		ldr	r3, .L190+4
 1373 040e 1B79     		ldrb	r3, [r3, #4]	@ zero_extendqisi2
 737:Modules/include/MAVLink/common/../mavlink_helpers.h ****                         memset(&_MAV_PAYLOAD_NON_CONST(rxmsg)[status->packet_idx], 0, e->max_msg_le
 1374              		.loc 2 737 48 view .LVU489
 1375 0410 8A79     		ldrb	r2, [r1, #6]	@ zero_extendqisi2
 737:Modules/include/MAVLink/common/../mavlink_helpers.h ****                         memset(&_MAV_PAYLOAD_NON_CONST(rxmsg)[status->packet_idx], 0, e->max_msg_le
 1376              		.loc 2 737 23 view .LVU490
 1377 0412 9342     		cmp	r3, r2
 1378 0414 BFF481AE 		bcs	.L15
 738:Modules/include/MAVLink/common/../mavlink_helpers.h **** 		}
 1379              		.loc 2 738 25 is_stmt 1 view .LVU491
 1380 0418 D21A     		subs	r2, r2, r3
 1381 041a 0021     		movs	r1, #0
 1382 041c 5448     		ldr	r0, .L190+12
 1383 041e 1844     		add	r0, r0, r3
 1384 0420 FFF7FEFF 		bl	memset
 1385              	.LVL114:
 1386 0424 79E6     		b	.L15
 1387              	.LVL115:
 1388              	.L162:
 1389              	.LBB271:
 1390              	.LBB266:
 1391              	.LBB265:
 510:Modules/include/MAVLink/common/../mavlink_helpers.h ****                 continue;
 1392              		.loc 2 510 17 view .LVU492
 510:Modules/include/MAVLink/common/../mavlink_helpers.h ****                 continue;
 1393              		.loc 2 510 22 is_stmt 0 view .LVU493
 1394 0426 541E     		subs	r4, r2, #1
 1395              	.LVL116:
 511:Modules/include/MAVLink/common/../mavlink_helpers.h ****             }
 1396              		.loc 2 511 17 is_stmt 1 view .LVU494
 1397 0428 B6E7     		b	.L37
 1398              	.L163:
 514:Modules/include/MAVLink/common/../mavlink_helpers.h ****                 continue;
 1399              		.loc 2 514 21 is_stmt 0 view .LVU495
 1400 042a 1546     		mov	r5, r2
 1401              	.LVL117:
 514:Modules/include/MAVLink/common/../mavlink_helpers.h ****                 continue;
 1402              		.loc 2 514 21 view .LVU496
 1403 042c B4E7     		b	.L37
 1404              	.LVL118:
ARM GAS  C:\Users\luoha\AppData\Local\Temp\cctfed2n.s 			page 52


 1405              	.L161:
 514:Modules/include/MAVLink/common/../mavlink_helpers.h ****                 continue;
 1406              		.loc 2 514 21 view .LVU497
 1407              	.LBE265:
 1408 042e 2A46     		mov	r2, r5
 1409 0430 C2E7     		b	.L40
 1410              	.LVL119:
 1411              	.L135:
 522:Modules/include/MAVLink/common/../mavlink_helpers.h ****         }
 1412              		.loc 2 522 20 view .LVU498
 1413 0432 0021     		movs	r1, #0
 1414              	.LBE266:
 1415              	.LBE271:
 727:Modules/include/MAVLink/common/../mavlink_helpers.h **** 		mavlink_update_checksum(rxmsg, crc_extra);
 1416              		.loc 2 727 11 view .LVU499
 1417 0434 0C46     		mov	r4, r1
 1418              	.LVL120:
 727:Modules/include/MAVLink/common/../mavlink_helpers.h **** 		mavlink_update_checksum(rxmsg, crc_extra);
 1419              		.loc 2 727 11 view .LVU500
 1420 0436 CCE7     		b	.L42
 1421              	.LVL121:
 1422              	.L136:
 727:Modules/include/MAVLink/common/../mavlink_helpers.h **** 		mavlink_update_checksum(rxmsg, crc_extra);
 1423              		.loc 2 727 11 view .LVU501
 1424 0438 0024     		movs	r4, #0
 1425 043a CAE7     		b	.L42
 1426              	.LVL122:
 1427              	.L43:
 732:Modules/include/MAVLink/common/../mavlink_helpers.h **** 		}
 1428              		.loc 2 732 4 is_stmt 1 view .LVU502
 732:Modules/include/MAVLink/common/../mavlink_helpers.h **** 		}
 1429              		.loc 2 732 24 is_stmt 0 view .LVU503
 1430 043c 4A4B     		ldr	r3, .L190+4
 1431 043e 0D22     		movs	r2, #13
 1432 0440 DA70     		strb	r2, [r3, #3]
 1433 0442 DDE7     		b	.L44
 1434              	.LVL123:
 1435              	.L18:
 732:Modules/include/MAVLink/common/../mavlink_helpers.h **** 		}
 1436              		.loc 2 732 24 view .LVU504
 1437              	.LBE261:
 745:Modules/include/MAVLink/common/../mavlink_helpers.h **** 			// got a bad CRC message
 1438              		.loc 2 745 3 is_stmt 1 view .LVU505
 745:Modules/include/MAVLink/common/../mavlink_helpers.h **** 			// got a bad CRC message
 1439              		.loc 2 745 6 is_stmt 0 view .LVU506
 1440 0444 0E2B     		cmp	r3, #14
 1441 0446 06D0     		beq	.L45
 745:Modules/include/MAVLink/common/../mavlink_helpers.h **** 			// got a bad CRC message
 1442              		.loc 2 745 68 view .LVU507
 1443 0448 1FFA8BF3 		uxth	r3, fp
 745:Modules/include/MAVLink/common/../mavlink_helpers.h **** 			// got a bad CRC message
 1444              		.loc 2 745 77 view .LVU508
 1445 044c 454A     		ldr	r2, .L190
 1446 044e 1288     		ldrh	r2, [r2]
 745:Modules/include/MAVLink/common/../mavlink_helpers.h **** 			// got a bad CRC message
 1447              		.loc 2 745 63 view .LVU509
 1448 0450 B3EB122F 		cmp	r3, r2, lsr #8
ARM GAS  C:\Users\luoha\AppData\Local\Temp\cctfed2n.s 			page 53


 1449 0454 16D0     		beq	.L46
 1450              	.L45:
 747:Modules/include/MAVLink/common/../mavlink_helpers.h **** 		} else {
 1451              		.loc 2 747 4 is_stmt 1 view .LVU510
 747:Modules/include/MAVLink/common/../mavlink_helpers.h **** 		} else {
 1452              		.loc 2 747 25 is_stmt 0 view .LVU511
 1453 0456 444B     		ldr	r3, .L190+4
 1454 0458 0222     		movs	r2, #2
 1455 045a 1A70     		strb	r2, [r3]
 1456              	.L47:
 752:Modules/include/MAVLink/common/../mavlink_helpers.h **** 
 1457              		.loc 2 752 3 is_stmt 1 view .LVU512
 752:Modules/include/MAVLink/common/../mavlink_helpers.h **** 
 1458              		.loc 2 752 16 is_stmt 0 view .LVU513
 1459 045c 414B     		ldr	r3, .L190
 1460 045e 83F815B1 		strb	fp, [r3, #277]
 754:Modules/include/MAVLink/common/../mavlink_helpers.h **** 			status->parse_state = MAVLINK_PARSE_STATE_SIGNATURE_WAIT;
 1461              		.loc 2 754 3 is_stmt 1 view .LVU514
 754:Modules/include/MAVLink/common/../mavlink_helpers.h **** 			status->parse_state = MAVLINK_PARSE_STATE_SIGNATURE_WAIT;
 1462              		.loc 2 754 12 is_stmt 0 view .LVU515
 1463 0462 1B79     		ldrb	r3, [r3, #4]	@ zero_extendqisi2
 754:Modules/include/MAVLink/common/../mavlink_helpers.h **** 			status->parse_state = MAVLINK_PARSE_STATE_SIGNATURE_WAIT;
 1464              		.loc 2 754 6 view .LVU516
 1465 0464 13F0010F 		tst	r3, #1
 1466 0468 10D0     		beq	.L48
 755:Modules/include/MAVLink/common/../mavlink_helpers.h **** 			status->signature_wait = MAVLINK_SIGNATURE_BLOCK_LEN;
 1467              		.loc 2 755 4 is_stmt 1 view .LVU517
 755:Modules/include/MAVLink/common/../mavlink_helpers.h **** 			status->signature_wait = MAVLINK_SIGNATURE_BLOCK_LEN;
 1468              		.loc 2 755 24 is_stmt 0 view .LVU518
 1469 046a 3F4B     		ldr	r3, .L190+4
 1470 046c 0F22     		movs	r2, #15
 1471 046e DA70     		strb	r2, [r3, #3]
 756:Modules/include/MAVLink/common/../mavlink_helpers.h **** 
 1472              		.loc 2 756 4 is_stmt 1 view .LVU519
 756:Modules/include/MAVLink/common/../mavlink_helpers.h **** 
 1473              		.loc 2 756 27 is_stmt 0 view .LVU520
 1474 0470 0D22     		movs	r2, #13
 1475 0472 5A73     		strb	r2, [r3, #13]
 760:Modules/include/MAVLink/common/../mavlink_helpers.h **** 				status->msg_received = MAVLINK_FRAMING_INCOMPLETE;
 1476              		.loc 2 760 4 is_stmt 1 view .LVU521
 760:Modules/include/MAVLink/common/../mavlink_helpers.h **** 				status->msg_received = MAVLINK_FRAMING_INCOMPLETE;
 1477              		.loc 2 760 14 is_stmt 0 view .LVU522
 1478 0474 1B78     		ldrb	r3, [r3]	@ zero_extendqisi2
 760:Modules/include/MAVLink/common/../mavlink_helpers.h **** 				status->msg_received = MAVLINK_FRAMING_INCOMPLETE;
 1479              		.loc 2 760 7 view .LVU523
 1480 0476 022B     		cmp	r3, #2
 1481 0478 3FF44FAE 		beq	.L15
 761:Modules/include/MAVLink/common/../mavlink_helpers.h **** 			}
 1482              		.loc 2 761 5 is_stmt 1 view .LVU524
 761:Modules/include/MAVLink/common/../mavlink_helpers.h **** 			}
 1483              		.loc 2 761 26 is_stmt 0 view .LVU525
 1484 047c 3A4B     		ldr	r3, .L190+4
 1485 047e 0022     		movs	r2, #0
 1486 0480 1A70     		strb	r2, [r3]
 1487 0482 4AE6     		b	.L15
 1488              	.L46:
 750:Modules/include/MAVLink/common/../mavlink_helpers.h **** 		}
ARM GAS  C:\Users\luoha\AppData\Local\Temp\cctfed2n.s 			page 54


 1489              		.loc 2 750 4 is_stmt 1 view .LVU526
 750:Modules/include/MAVLink/common/../mavlink_helpers.h **** 		}
 1490              		.loc 2 750 25 is_stmt 0 view .LVU527
 1491 0484 384B     		ldr	r3, .L190+4
 1492 0486 0122     		movs	r2, #1
 1493 0488 1A70     		strb	r2, [r3]
 1494 048a E7E7     		b	.L47
 1495              	.L48:
 764:Modules/include/MAVLink/common/../mavlink_helpers.h **** 			   	(status->signing->accept_unsigned_callback == NULL ||
 1496              		.loc 2 764 4 is_stmt 1 view .LVU528
 764:Modules/include/MAVLink/common/../mavlink_helpers.h **** 			   	(status->signing->accept_unsigned_callback == NULL ||
 1497              		.loc 2 764 14 is_stmt 0 view .LVU529
 1498 048c 364B     		ldr	r3, .L190+4
 1499 048e 1B69     		ldr	r3, [r3, #16]
 764:Modules/include/MAVLink/common/../mavlink_helpers.h **** 			   	(status->signing->accept_unsigned_callback == NULL ||
 1500              		.loc 2 764 7 view .LVU530
 1501 0490 73B1     		cbz	r3, .L49
 765:Modules/include/MAVLink/common/../mavlink_helpers.h **** 			   	 !status->signing->accept_unsigned_callback(status, rxmsg->msgid))) {
 1502              		.loc 2 765 24 view .LVU531
 1503 0492 1B6B     		ldr	r3, [r3, #48]
 764:Modules/include/MAVLink/common/../mavlink_helpers.h **** 			   	(status->signing->accept_unsigned_callback == NULL ||
 1504              		.loc 2 764 24 view .LVU532
 1505 0494 2BB1     		cbz	r3, .L50
 766:Modules/include/MAVLink/common/../mavlink_helpers.h **** 
 1506              		.loc 2 766 65 view .LVU533
 1507 0496 334A     		ldr	r2, .L190
 1508 0498 9168     		ldr	r1, [r2, #8]
 766:Modules/include/MAVLink/common/../mavlink_helpers.h **** 
 1509              		.loc 2 766 10 view .LVU534
 1510 049a 090A     		lsrs	r1, r1, #8
 1511 049c 3248     		ldr	r0, .L190+4
 1512 049e 9847     		blx	r3
 1513              	.LVL124:
 765:Modules/include/MAVLink/common/../mavlink_helpers.h **** 			   	 !status->signing->accept_unsigned_callback(status, rxmsg->msgid))) {
 1514              		.loc 2 765 59 view .LVU535
 1515 04a0 30B9     		cbnz	r0, .L49
 1516              	.L50:
 769:Modules/include/MAVLink/common/../mavlink_helpers.h **** 					status->msg_received = MAVLINK_FRAMING_BAD_SIGNATURE;
 1517              		.loc 2 769 5 is_stmt 1 view .LVU536
 769:Modules/include/MAVLink/common/../mavlink_helpers.h **** 					status->msg_received = MAVLINK_FRAMING_BAD_SIGNATURE;
 1518              		.loc 2 769 15 is_stmt 0 view .LVU537
 1519 04a2 314B     		ldr	r3, .L190+4
 1520 04a4 1B78     		ldrb	r3, [r3]	@ zero_extendqisi2
 769:Modules/include/MAVLink/common/../mavlink_helpers.h **** 					status->msg_received = MAVLINK_FRAMING_BAD_SIGNATURE;
 1521              		.loc 2 769 8 view .LVU538
 1522 04a6 022B     		cmp	r3, #2
 1523 04a8 02D0     		beq	.L49
 770:Modules/include/MAVLink/common/../mavlink_helpers.h **** 				}
 1524              		.loc 2 770 6 is_stmt 1 view .LVU539
 770:Modules/include/MAVLink/common/../mavlink_helpers.h **** 				}
 1525              		.loc 2 770 27 is_stmt 0 view .LVU540
 1526 04aa 2F4B     		ldr	r3, .L190+4
 1527 04ac 0322     		movs	r2, #3
 1528 04ae 1A70     		strb	r2, [r3]
 1529              	.L49:
 773:Modules/include/MAVLink/common/../mavlink_helpers.h **** 			if (r_message != NULL) {
 1530              		.loc 2 773 4 is_stmt 1 view .LVU541
ARM GAS  C:\Users\luoha\AppData\Local\Temp\cctfed2n.s 			page 55


 773:Modules/include/MAVLink/common/../mavlink_helpers.h **** 			if (r_message != NULL) {
 1531              		.loc 2 773 24 is_stmt 0 view .LVU542
 1532 04b0 2D4B     		ldr	r3, .L190+4
 1533 04b2 0122     		movs	r2, #1
 1534 04b4 DA70     		strb	r2, [r3, #3]
 774:Modules/include/MAVLink/common/../mavlink_helpers.h **** 				memcpy(r_message, rxmsg, sizeof(mavlink_message_t));
 1535              		.loc 2 774 4 is_stmt 1 view .LVU543
 775:Modules/include/MAVLink/common/../mavlink_helpers.h **** 			}
 1536              		.loc 2 775 5 view .LVU544
 1537 04b6 40F22312 		movw	r2, #291
 1538 04ba 2A49     		ldr	r1, .L190
 1539 04bc 2D48     		ldr	r0, .L190+16
 1540 04be FFF7FEFF 		bl	memcpy
 1541              	.LVL125:
 1542 04c2 2AE6     		b	.L15
 1543              	.L16:
 780:Modules/include/MAVLink/common/../mavlink_helpers.h **** 		status->signature_wait--;
 1544              		.loc 2 780 3 view .LVU545
 780:Modules/include/MAVLink/common/../mavlink_helpers.h **** 		status->signature_wait--;
 1545              		.loc 2 780 54 is_stmt 0 view .LVU546
 1546 04c4 2849     		ldr	r1, .L190+4
 1547 04c6 4B7B     		ldrb	r3, [r1, #13]	@ zero_extendqisi2
 780:Modules/include/MAVLink/common/../mavlink_helpers.h **** 		status->signature_wait--;
 1548              		.loc 2 780 47 view .LVU547
 1549 04c8 C3F10D00 		rsb	r0, r3, #13
 780:Modules/include/MAVLink/common/../mavlink_helpers.h **** 		status->signature_wait--;
 1550              		.loc 2 780 72 view .LVU548
 1551 04cc 254A     		ldr	r2, .L190
 1552 04ce 0244     		add	r2, r2, r0
 1553 04d0 82F816B1 		strb	fp, [r2, #278]
 781:Modules/include/MAVLink/common/../mavlink_helpers.h **** 		if (status->signature_wait == 0) {
 1554              		.loc 2 781 3 is_stmt 1 view .LVU549
 781:Modules/include/MAVLink/common/../mavlink_helpers.h **** 		if (status->signature_wait == 0) {
 1555              		.loc 2 781 25 is_stmt 0 view .LVU550
 1556 04d4 013B     		subs	r3, r3, #1
 1557 04d6 DBB2     		uxtb	r3, r3
 1558 04d8 4B73     		strb	r3, [r1, #13]
 782:Modules/include/MAVLink/common/../mavlink_helpers.h **** 			// we have the whole signature, check it is OK
 1559              		.loc 2 782 3 is_stmt 1 view .LVU551
 782:Modules/include/MAVLink/common/../mavlink_helpers.h **** 			// we have the whole signature, check it is OK
 1560              		.loc 2 782 6 is_stmt 0 view .LVU552
 1561 04da 002B     		cmp	r3, #0
 1562 04dc 7FF41DAE 		bne	.L15
 1563              	.LBB272:
 784:Modules/include/MAVLink/common/../mavlink_helpers.h **** 			if (!sig_ok &&
 1564              		.loc 2 784 4 is_stmt 1 view .LVU553
 784:Modules/include/MAVLink/common/../mavlink_helpers.h **** 			if (!sig_ok &&
 1565              		.loc 2 784 48 is_stmt 0 view .LVU554
 1566 04e0 0A69     		ldr	r2, [r1, #16]
 1567 04e2 0F92     		str	r2, [sp, #60]
 784:Modules/include/MAVLink/common/../mavlink_helpers.h **** 			if (!sig_ok &&
 1568              		.loc 2 784 65 view .LVU555
 1569 04e4 4B69     		ldr	r3, [r1, #20]
 1570 04e6 0C93     		str	r3, [sp, #48]
 1571              	.LVL126:
 1572              	.LBB273:
 1573              	.LBI273:
ARM GAS  C:\Users\luoha\AppData\Local\Temp\cctfed2n.s 			page 56


 120:Modules/include/MAVLink/common/../mavlink_helpers.h **** 					    mavlink_signing_streams_t *signing_streams,
 1574              		.loc 2 120 21 is_stmt 1 view .LVU556
 1575              	.LBB274:
 124:Modules/include/MAVLink/common/../mavlink_helpers.h **** 		return true;
 1576              		.loc 2 124 2 view .LVU557
 124:Modules/include/MAVLink/common/../mavlink_helpers.h **** 		return true;
 1577              		.loc 2 124 5 is_stmt 0 view .LVU558
 1578 04e8 002A     		cmp	r2, #0
 1579 04ea 00F07D85 		beq	.L137
 127:Modules/include/MAVLink/common/../mavlink_helpers.h **** 	const uint8_t *psig = msg->signature;
 1580              		.loc 2 127 9 is_stmt 1 view .LVU559
 1581              	.LVL127:
 128:Modules/include/MAVLink/common/../mavlink_helpers.h ****         const uint8_t *incoming_signature = psig+7;
 1582              		.loc 2 128 2 view .LVU560
 129:Modules/include/MAVLink/common/../mavlink_helpers.h **** 	mavlink_sha256_ctx ctx;
 1583              		.loc 2 129 9 view .LVU561
 130:Modules/include/MAVLink/common/../mavlink_helpers.h **** 	uint8_t signature[6];
 1584              		.loc 2 130 2 view .LVU562
 131:Modules/include/MAVLink/common/../mavlink_helpers.h **** 	uint16_t i;
 1585              		.loc 2 131 2 view .LVU563
 132:Modules/include/MAVLink/common/../mavlink_helpers.h ****         
 1586              		.loc 2 132 2 view .LVU564
 134:Modules/include/MAVLink/common/../mavlink_helpers.h **** 	mavlink_sha256_update(&ctx, signing->secret_key, sizeof(signing->secret_key));
 1587              		.loc 2 134 2 view .LVU565
 1588              	.LBB275:
 1589              	.LBI275:
 1590              		.file 4 "Modules/include/MAVLink/common/../mavlink_sha256.h"
   1:Modules/include/MAVLink/common/../mavlink_sha256.h **** #pragma once
   2:Modules/include/MAVLink/common/../mavlink_sha256.h **** 
   3:Modules/include/MAVLink/common/../mavlink_sha256.h **** /*
   4:Modules/include/MAVLink/common/../mavlink_sha256.h ****   sha-256 implementation for MAVLink based on Heimdal sources, with
   5:Modules/include/MAVLink/common/../mavlink_sha256.h ****   modifications to suit mavlink headers
   6:Modules/include/MAVLink/common/../mavlink_sha256.h ****  */
   7:Modules/include/MAVLink/common/../mavlink_sha256.h **** /*
   8:Modules/include/MAVLink/common/../mavlink_sha256.h ****  * Copyright (c) 1995 - 2001 Kungliga Tekniska Hgskolan
   9:Modules/include/MAVLink/common/../mavlink_sha256.h ****  * (Royal Institute of Technology, Stockholm, Sweden).
  10:Modules/include/MAVLink/common/../mavlink_sha256.h ****  * All rights reserved.
  11:Modules/include/MAVLink/common/../mavlink_sha256.h ****  * 
  12:Modules/include/MAVLink/common/../mavlink_sha256.h ****  * Redistribution and use in source and binary forms, with or without
  13:Modules/include/MAVLink/common/../mavlink_sha256.h ****  * modification, are permitted provided that the following conditions
  14:Modules/include/MAVLink/common/../mavlink_sha256.h ****  * are met:
  15:Modules/include/MAVLink/common/../mavlink_sha256.h ****  * 
  16:Modules/include/MAVLink/common/../mavlink_sha256.h ****  * 1. Redistributions of source code must retain the above copyright
  17:Modules/include/MAVLink/common/../mavlink_sha256.h ****  *    notice, this list of conditions and the following disclaimer.
  18:Modules/include/MAVLink/common/../mavlink_sha256.h ****  * 
  19:Modules/include/MAVLink/common/../mavlink_sha256.h ****  * 2. Redistributions in binary form must reproduce the above copyright
  20:Modules/include/MAVLink/common/../mavlink_sha256.h ****  *    notice, this list of conditions and the following disclaimer in the
  21:Modules/include/MAVLink/common/../mavlink_sha256.h ****  *    documentation and/or other materials provided with the distribution.
  22:Modules/include/MAVLink/common/../mavlink_sha256.h ****  * 
  23:Modules/include/MAVLink/common/../mavlink_sha256.h ****  * 3. Neither the name of the Institute nor the names of its contributors
  24:Modules/include/MAVLink/common/../mavlink_sha256.h ****  *    may be used to endorse or promote products derived from this software
  25:Modules/include/MAVLink/common/../mavlink_sha256.h ****  *    without specific prior written permission.
  26:Modules/include/MAVLink/common/../mavlink_sha256.h ****  * 
  27:Modules/include/MAVLink/common/../mavlink_sha256.h ****  * THIS SOFTWARE IS PROVIDED BY THE INSTITUTE AND CONTRIBUTORS ``AS IS'' AND
  28:Modules/include/MAVLink/common/../mavlink_sha256.h ****  * ANY EXPRESS OR IMPLIED WARRANTIES, INCLUDING, BUT NOT LIMITED TO, THE
  29:Modules/include/MAVLink/common/../mavlink_sha256.h ****  * IMPLIED WARRANTIES OF MERCHANTABILITY AND FITNESS FOR A PARTICULAR PURPOSE
  30:Modules/include/MAVLink/common/../mavlink_sha256.h ****  * ARE DISCLAIMED.  IN NO EVENT SHALL THE INSTITUTE OR CONTRIBUTORS BE LIABLE
ARM GAS  C:\Users\luoha\AppData\Local\Temp\cctfed2n.s 			page 57


  31:Modules/include/MAVLink/common/../mavlink_sha256.h ****  * FOR ANY DIRECT, INDIRECT, INCIDENTAL, SPECIAL, EXEMPLARY, OR CONSEQUENTIAL
  32:Modules/include/MAVLink/common/../mavlink_sha256.h ****  * DAMAGES (INCLUDING, BUT NOT LIMITED TO, PROCUREMENT OF SUBSTITUTE GOODS
  33:Modules/include/MAVLink/common/../mavlink_sha256.h ****  * OR SERVICES; LOSS OF USE, DATA, OR PROFITS; OR BUSINESS INTERRUPTION)
  34:Modules/include/MAVLink/common/../mavlink_sha256.h ****  * HOWEVER CAUSED AND ON ANY THEORY OF LIABILITY, WHETHER IN CONTRACT, STRICT
  35:Modules/include/MAVLink/common/../mavlink_sha256.h ****  * LIABILITY, OR TORT (INCLUDING NEGLIGENCE OR OTHERWISE) ARISING IN ANY WAY
  36:Modules/include/MAVLink/common/../mavlink_sha256.h ****  * OUT OF THE USE OF THIS SOFTWARE, EVEN IF ADVISED OF THE POSSIBILITY OF
  37:Modules/include/MAVLink/common/../mavlink_sha256.h ****  * SUCH DAMAGE.
  38:Modules/include/MAVLink/common/../mavlink_sha256.h ****  */
  39:Modules/include/MAVLink/common/../mavlink_sha256.h **** 
  40:Modules/include/MAVLink/common/../mavlink_sha256.h **** /*
  41:Modules/include/MAVLink/common/../mavlink_sha256.h ****   allow implementation to provide their own sha256 with the same API
  42:Modules/include/MAVLink/common/../mavlink_sha256.h **** */
  43:Modules/include/MAVLink/common/../mavlink_sha256.h **** #ifndef HAVE_MAVLINK_SHA256
  44:Modules/include/MAVLink/common/../mavlink_sha256.h **** 
  45:Modules/include/MAVLink/common/../mavlink_sha256.h **** #ifdef MAVLINK_USE_CXX_NAMESPACE
  46:Modules/include/MAVLink/common/../mavlink_sha256.h **** namespace mavlink {
  47:Modules/include/MAVLink/common/../mavlink_sha256.h **** #endif
  48:Modules/include/MAVLink/common/../mavlink_sha256.h **** 
  49:Modules/include/MAVLink/common/../mavlink_sha256.h **** #ifndef MAVLINK_HELPER
  50:Modules/include/MAVLink/common/../mavlink_sha256.h **** #define MAVLINK_HELPER
  51:Modules/include/MAVLink/common/../mavlink_sha256.h **** #endif
  52:Modules/include/MAVLink/common/../mavlink_sha256.h **** 
  53:Modules/include/MAVLink/common/../mavlink_sha256.h **** typedef struct {
  54:Modules/include/MAVLink/common/../mavlink_sha256.h ****   uint32_t sz[2];
  55:Modules/include/MAVLink/common/../mavlink_sha256.h ****   uint32_t counter[8];
  56:Modules/include/MAVLink/common/../mavlink_sha256.h ****   union {
  57:Modules/include/MAVLink/common/../mavlink_sha256.h ****       unsigned char save_bytes[64];
  58:Modules/include/MAVLink/common/../mavlink_sha256.h ****       uint32_t save_u32[16];
  59:Modules/include/MAVLink/common/../mavlink_sha256.h ****   } u;
  60:Modules/include/MAVLink/common/../mavlink_sha256.h **** } mavlink_sha256_ctx;
  61:Modules/include/MAVLink/common/../mavlink_sha256.h **** 
  62:Modules/include/MAVLink/common/../mavlink_sha256.h **** #define Ch(x,y,z) (((x) & (y)) ^ ((~(x)) & (z)))
  63:Modules/include/MAVLink/common/../mavlink_sha256.h **** #define Maj(x,y,z) (((x) & (y)) ^ ((x) & (z)) ^ ((y) & (z)))
  64:Modules/include/MAVLink/common/../mavlink_sha256.h **** 
  65:Modules/include/MAVLink/common/../mavlink_sha256.h **** #define ROTR(x,n)   (((x)>>(n)) | ((x) << (32 - (n))))
  66:Modules/include/MAVLink/common/../mavlink_sha256.h **** 
  67:Modules/include/MAVLink/common/../mavlink_sha256.h **** #define Sigma0(x)	(ROTR(x,2)  ^ ROTR(x,13) ^ ROTR(x,22))
  68:Modules/include/MAVLink/common/../mavlink_sha256.h **** #define Sigma1(x)	(ROTR(x,6)  ^ ROTR(x,11) ^ ROTR(x,25))
  69:Modules/include/MAVLink/common/../mavlink_sha256.h **** #define sigma0(x)	(ROTR(x,7)  ^ ROTR(x,18) ^ ((x)>>3))
  70:Modules/include/MAVLink/common/../mavlink_sha256.h **** #define sigma1(x)	(ROTR(x,17) ^ ROTR(x,19) ^ ((x)>>10))
  71:Modules/include/MAVLink/common/../mavlink_sha256.h **** 
  72:Modules/include/MAVLink/common/../mavlink_sha256.h **** #define A m->counter[0]
  73:Modules/include/MAVLink/common/../mavlink_sha256.h **** #define B m->counter[1]
  74:Modules/include/MAVLink/common/../mavlink_sha256.h **** #define C m->counter[2]
  75:Modules/include/MAVLink/common/../mavlink_sha256.h **** #define D m->counter[3]
  76:Modules/include/MAVLink/common/../mavlink_sha256.h **** #define E m->counter[4]
  77:Modules/include/MAVLink/common/../mavlink_sha256.h **** #define F m->counter[5]
  78:Modules/include/MAVLink/common/../mavlink_sha256.h **** #define G m->counter[6]
  79:Modules/include/MAVLink/common/../mavlink_sha256.h **** #define H m->counter[7]
  80:Modules/include/MAVLink/common/../mavlink_sha256.h **** 
  81:Modules/include/MAVLink/common/../mavlink_sha256.h **** static const uint32_t mavlink_sha256_constant_256[64] = {
  82:Modules/include/MAVLink/common/../mavlink_sha256.h ****     0x428a2f98, 0x71374491, 0xb5c0fbcf, 0xe9b5dba5,
  83:Modules/include/MAVLink/common/../mavlink_sha256.h ****     0x3956c25b, 0x59f111f1, 0x923f82a4, 0xab1c5ed5,
  84:Modules/include/MAVLink/common/../mavlink_sha256.h ****     0xd807aa98, 0x12835b01, 0x243185be, 0x550c7dc3,
  85:Modules/include/MAVLink/common/../mavlink_sha256.h ****     0x72be5d74, 0x80deb1fe, 0x9bdc06a7, 0xc19bf174,
  86:Modules/include/MAVLink/common/../mavlink_sha256.h ****     0xe49b69c1, 0xefbe4786, 0x0fc19dc6, 0x240ca1cc,
  87:Modules/include/MAVLink/common/../mavlink_sha256.h ****     0x2de92c6f, 0x4a7484aa, 0x5cb0a9dc, 0x76f988da,
ARM GAS  C:\Users\luoha\AppData\Local\Temp\cctfed2n.s 			page 58


  88:Modules/include/MAVLink/common/../mavlink_sha256.h ****     0x983e5152, 0xa831c66d, 0xb00327c8, 0xbf597fc7,
  89:Modules/include/MAVLink/common/../mavlink_sha256.h ****     0xc6e00bf3, 0xd5a79147, 0x06ca6351, 0x14292967,
  90:Modules/include/MAVLink/common/../mavlink_sha256.h ****     0x27b70a85, 0x2e1b2138, 0x4d2c6dfc, 0x53380d13,
  91:Modules/include/MAVLink/common/../mavlink_sha256.h ****     0x650a7354, 0x766a0abb, 0x81c2c92e, 0x92722c85,
  92:Modules/include/MAVLink/common/../mavlink_sha256.h ****     0xa2bfe8a1, 0xa81a664b, 0xc24b8b70, 0xc76c51a3,
  93:Modules/include/MAVLink/common/../mavlink_sha256.h ****     0xd192e819, 0xd6990624, 0xf40e3585, 0x106aa070,
  94:Modules/include/MAVLink/common/../mavlink_sha256.h ****     0x19a4c116, 0x1e376c08, 0x2748774c, 0x34b0bcb5,
  95:Modules/include/MAVLink/common/../mavlink_sha256.h ****     0x391c0cb3, 0x4ed8aa4a, 0x5b9cca4f, 0x682e6ff3,
  96:Modules/include/MAVLink/common/../mavlink_sha256.h ****     0x748f82ee, 0x78a5636f, 0x84c87814, 0x8cc70208,
  97:Modules/include/MAVLink/common/../mavlink_sha256.h ****     0x90befffa, 0xa4506ceb, 0xbef9a3f7, 0xc67178f2
  98:Modules/include/MAVLink/common/../mavlink_sha256.h **** };
  99:Modules/include/MAVLink/common/../mavlink_sha256.h **** 
 100:Modules/include/MAVLink/common/../mavlink_sha256.h **** MAVLINK_HELPER void mavlink_sha256_init(mavlink_sha256_ctx *m)
 1591              		.loc 4 100 21 view .LVU566
 1592              	.LBB276:
 101:Modules/include/MAVLink/common/../mavlink_sha256.h **** {
 102:Modules/include/MAVLink/common/../mavlink_sha256.h ****     m->sz[0] = 0;
 1593              		.loc 4 102 5 view .LVU567
 1594              		.loc 4 102 14 is_stmt 0 view .LVU568
 1595 04ee 0023     		movs	r3, #0
 1596              	.LVL128:
 103:Modules/include/MAVLink/common/../mavlink_sha256.h ****     m->sz[1] = 0;
 1597              		.loc 4 103 5 is_stmt 1 view .LVU569
 1598              		.loc 4 103 14 is_stmt 0 view .LVU570
 1599 04f0 3593     		str	r3, [sp, #212]
 104:Modules/include/MAVLink/common/../mavlink_sha256.h ****     A = 0x6a09e667;
 1600              		.loc 4 104 5 is_stmt 1 view .LVU571
 1601              		.loc 4 104 7 is_stmt 0 view .LVU572
 1602 04f2 214B     		ldr	r3, .L190+20
 1603 04f4 3693     		str	r3, [sp, #216]
 105:Modules/include/MAVLink/common/../mavlink_sha256.h ****     B = 0xbb67ae85;
 1604              		.loc 4 105 5 is_stmt 1 view .LVU573
 1605              		.loc 4 105 7 is_stmt 0 view .LVU574
 1606 04f6 214B     		ldr	r3, .L190+24
 1607 04f8 3793     		str	r3, [sp, #220]
 106:Modules/include/MAVLink/common/../mavlink_sha256.h ****     C = 0x3c6ef372;
 1608              		.loc 4 106 5 is_stmt 1 view .LVU575
 1609              		.loc 4 106 7 is_stmt 0 view .LVU576
 1610 04fa 214B     		ldr	r3, .L190+28
 1611 04fc 3893     		str	r3, [sp, #224]
 107:Modules/include/MAVLink/common/../mavlink_sha256.h ****     D = 0xa54ff53a;
 1612              		.loc 4 107 5 is_stmt 1 view .LVU577
 1613              		.loc 4 107 7 is_stmt 0 view .LVU578
 1614 04fe 214B     		ldr	r3, .L190+32
 1615 0500 3993     		str	r3, [sp, #228]
 108:Modules/include/MAVLink/common/../mavlink_sha256.h ****     E = 0x510e527f;
 1616              		.loc 4 108 5 is_stmt 1 view .LVU579
 1617              		.loc 4 108 7 is_stmt 0 view .LVU580
 1618 0502 214B     		ldr	r3, .L190+36
 1619 0504 3A93     		str	r3, [sp, #232]
 109:Modules/include/MAVLink/common/../mavlink_sha256.h ****     F = 0x9b05688c;
 1620              		.loc 4 109 5 is_stmt 1 view .LVU581
 1621              		.loc 4 109 7 is_stmt 0 view .LVU582
 1622 0506 214B     		ldr	r3, .L190+40
 1623 0508 3B93     		str	r3, [sp, #236]
 110:Modules/include/MAVLink/common/../mavlink_sha256.h ****     G = 0x1f83d9ab;
 1624              		.loc 4 110 5 is_stmt 1 view .LVU583
ARM GAS  C:\Users\luoha\AppData\Local\Temp\cctfed2n.s 			page 59


 1625              		.loc 4 110 7 is_stmt 0 view .LVU584
 1626 050a 214B     		ldr	r3, .L190+44
 1627 050c 3C93     		str	r3, [sp, #240]
 111:Modules/include/MAVLink/common/../mavlink_sha256.h ****     H = 0x5be0cd19;
 1628              		.loc 4 111 5 is_stmt 1 view .LVU585
 1629              		.loc 4 111 7 is_stmt 0 view .LVU586
 1630 050e 03F17453 		add	r3, r3, #1023410176
 1631 0512 A3F52303 		sub	r3, r3, #10682368
 1632 0516 A3F69243 		subw	r3, r3, #3218
 1633 051a 3D93     		str	r3, [sp, #244]
 1634              	.LVL129:
 1635              		.loc 4 111 7 view .LVU587
 1636              	.LBE276:
 1637              	.LBE275:
 135:Modules/include/MAVLink/common/../mavlink_helpers.h **** 	mavlink_sha256_update(&ctx, p, MAVLINK_CORE_HEADER_LEN+1+msg->len);
 1638              		.loc 2 135 2 is_stmt 1 view .LVU588
 135:Modules/include/MAVLink/common/../mavlink_helpers.h **** 	mavlink_sha256_update(&ctx, p, MAVLINK_CORE_HEADER_LEN+1+msg->len);
 1639              		.loc 2 135 37 is_stmt 0 view .LVU589
 1640 051c 1032     		adds	r2, r2, #16
 1641              	.LVL130:
 1642              	.LBB277:
 1643              	.LBI277:
 112:Modules/include/MAVLink/common/../mavlink_sha256.h **** }
 113:Modules/include/MAVLink/common/../mavlink_sha256.h **** 
 114:Modules/include/MAVLink/common/../mavlink_sha256.h **** static inline void mavlink_sha256_calc(mavlink_sha256_ctx *m, uint32_t *in)
 115:Modules/include/MAVLink/common/../mavlink_sha256.h **** {
 116:Modules/include/MAVLink/common/../mavlink_sha256.h ****     uint32_t AA, BB, CC, DD, EE, FF, GG, HH;
 117:Modules/include/MAVLink/common/../mavlink_sha256.h ****     uint32_t data[64];
 118:Modules/include/MAVLink/common/../mavlink_sha256.h ****     int i;
 119:Modules/include/MAVLink/common/../mavlink_sha256.h **** 
 120:Modules/include/MAVLink/common/../mavlink_sha256.h ****     AA = A;
 121:Modules/include/MAVLink/common/../mavlink_sha256.h ****     BB = B;
 122:Modules/include/MAVLink/common/../mavlink_sha256.h ****     CC = C;
 123:Modules/include/MAVLink/common/../mavlink_sha256.h ****     DD = D;
 124:Modules/include/MAVLink/common/../mavlink_sha256.h ****     EE = E;
 125:Modules/include/MAVLink/common/../mavlink_sha256.h ****     FF = F;
 126:Modules/include/MAVLink/common/../mavlink_sha256.h ****     GG = G;
 127:Modules/include/MAVLink/common/../mavlink_sha256.h ****     HH = H;
 128:Modules/include/MAVLink/common/../mavlink_sha256.h **** 
 129:Modules/include/MAVLink/common/../mavlink_sha256.h ****     for (i = 0; i < 16; ++i)
 130:Modules/include/MAVLink/common/../mavlink_sha256.h **** 	data[i] = in[i];
 131:Modules/include/MAVLink/common/../mavlink_sha256.h ****     for (i = 16; i < 64; ++i)
 132:Modules/include/MAVLink/common/../mavlink_sha256.h **** 	data[i] = sigma1(data[i-2]) + data[i-7] + 
 133:Modules/include/MAVLink/common/../mavlink_sha256.h **** 	    sigma0(data[i-15]) + data[i - 16];
 134:Modules/include/MAVLink/common/../mavlink_sha256.h **** 
 135:Modules/include/MAVLink/common/../mavlink_sha256.h ****     for (i = 0; i < 64; i++) {
 136:Modules/include/MAVLink/common/../mavlink_sha256.h **** 	uint32_t T1, T2;
 137:Modules/include/MAVLink/common/../mavlink_sha256.h **** 
 138:Modules/include/MAVLink/common/../mavlink_sha256.h **** 	T1 = HH + Sigma1(EE) + Ch(EE, FF, GG) + mavlink_sha256_constant_256[i] + data[i];
 139:Modules/include/MAVLink/common/../mavlink_sha256.h **** 	T2 = Sigma0(AA) + Maj(AA,BB,CC);
 140:Modules/include/MAVLink/common/../mavlink_sha256.h **** 			     
 141:Modules/include/MAVLink/common/../mavlink_sha256.h **** 	HH = GG;
 142:Modules/include/MAVLink/common/../mavlink_sha256.h **** 	GG = FF;
 143:Modules/include/MAVLink/common/../mavlink_sha256.h **** 	FF = EE;
 144:Modules/include/MAVLink/common/../mavlink_sha256.h **** 	EE = DD + T1;
 145:Modules/include/MAVLink/common/../mavlink_sha256.h **** 	DD = CC;
 146:Modules/include/MAVLink/common/../mavlink_sha256.h **** 	CC = BB;
ARM GAS  C:\Users\luoha\AppData\Local\Temp\cctfed2n.s 			page 60


 147:Modules/include/MAVLink/common/../mavlink_sha256.h **** 	BB = AA;
 148:Modules/include/MAVLink/common/../mavlink_sha256.h **** 	AA = T1 + T2;
 149:Modules/include/MAVLink/common/../mavlink_sha256.h ****     }
 150:Modules/include/MAVLink/common/../mavlink_sha256.h **** 
 151:Modules/include/MAVLink/common/../mavlink_sha256.h ****     A += AA;
 152:Modules/include/MAVLink/common/../mavlink_sha256.h ****     B += BB;
 153:Modules/include/MAVLink/common/../mavlink_sha256.h ****     C += CC;
 154:Modules/include/MAVLink/common/../mavlink_sha256.h ****     D += DD;
 155:Modules/include/MAVLink/common/../mavlink_sha256.h ****     E += EE;
 156:Modules/include/MAVLink/common/../mavlink_sha256.h ****     F += FF;
 157:Modules/include/MAVLink/common/../mavlink_sha256.h ****     G += GG;
 158:Modules/include/MAVLink/common/../mavlink_sha256.h ****     H += HH;
 159:Modules/include/MAVLink/common/../mavlink_sha256.h **** }
 160:Modules/include/MAVLink/common/../mavlink_sha256.h **** 
 161:Modules/include/MAVLink/common/../mavlink_sha256.h **** MAVLINK_HELPER void mavlink_sha256_update(mavlink_sha256_ctx *m, const void *v, uint32_t len)
 1644              		.loc 4 161 21 is_stmt 1 view .LVU590
 1645              	.LBB278:
 162:Modules/include/MAVLink/common/../mavlink_sha256.h **** {
 163:Modules/include/MAVLink/common/../mavlink_sha256.h ****     const unsigned char *p = (const unsigned char *)v;
 1646              		.loc 4 163 5 view .LVU591
 164:Modules/include/MAVLink/common/../mavlink_sha256.h ****     uint32_t old_sz = m->sz[0];
 1647              		.loc 4 164 5 view .LVU592
 165:Modules/include/MAVLink/common/../mavlink_sha256.h ****     uint32_t offset;
 1648              		.loc 4 165 5 view .LVU593
 166:Modules/include/MAVLink/common/../mavlink_sha256.h **** 
 167:Modules/include/MAVLink/common/../mavlink_sha256.h ****     m->sz[0] += len * 8;
 1649              		.loc 4 167 5 view .LVU594
 1650              		.loc 4 167 14 is_stmt 0 view .LVU595
 1651 051e 4FF48073 		mov	r3, #256
 1652 0522 3493     		str	r3, [sp, #208]
 168:Modules/include/MAVLink/common/../mavlink_sha256.h ****     if (m->sz[0] < old_sz)
 1653              		.loc 4 168 5 is_stmt 1 view .LVU596
 169:Modules/include/MAVLink/common/../mavlink_sha256.h **** 	++m->sz[1];
 170:Modules/include/MAVLink/common/../mavlink_sha256.h ****     offset = (old_sz / 8) % 64;
 1654              		.loc 4 170 5 view .LVU597
 1655              		.loc 4 170 12 is_stmt 0 view .LVU598
 1656 0524 0025     		movs	r5, #0
 1657              	.LVL131:
 171:Modules/include/MAVLink/common/../mavlink_sha256.h ****     while(len > 0){
 1658              		.loc 4 171 5 is_stmt 1 view .LVU599
 1659              		.loc 4 171 10 is_stmt 0 view .LVU600
 1660 0526 2023     		movs	r3, #32
 1661 0528 CDF82CB0 		str	fp, [sp, #44]
 1662 052c CDF834A0 		str	r10, [sp, #52]
 1663 0530 9A46     		mov	r10, r3
 1664              	.LVL132:
 1665              		.loc 4 171 10 view .LVU601
 1666 0532 9346     		mov	fp, r2
 1667              	.LVL133:
 1668              		.loc 4 171 10 view .LVU602
 1669 0534 0BE0     		b	.L53
 1670              	.LVL134:
 1671              	.L54:
 1672              	.LBB279:
 172:Modules/include/MAVLink/common/../mavlink_sha256.h **** 	uint32_t l = 64 - offset;
 173:Modules/include/MAVLink/common/../mavlink_sha256.h ****         if (len < l) {
 174:Modules/include/MAVLink/common/../mavlink_sha256.h ****             l = len;
ARM GAS  C:\Users\luoha\AppData\Local\Temp\cctfed2n.s 			page 61


 175:Modules/include/MAVLink/common/../mavlink_sha256.h ****         }
 176:Modules/include/MAVLink/common/../mavlink_sha256.h **** 	memcpy(m->u.save_bytes + offset, p, l);
 1673              		.loc 4 176 2 is_stmt 1 view .LVU603
 1674 0536 2246     		mov	r2, r4
 1675 0538 5946     		mov	r1, fp
 1676 053a 3EAB     		add	r3, sp, #248
 1677 053c 5819     		adds	r0, r3, r5
 1678 053e FFF7FEFF 		bl	memcpy
 1679              	.LVL135:
 177:Modules/include/MAVLink/common/../mavlink_sha256.h **** 	offset += l;
 1680              		.loc 4 177 2 view .LVU604
 1681              		.loc 4 177 9 is_stmt 0 view .LVU605
 1682 0542 2544     		add	r5, r5, r4
 1683              	.LVL136:
 178:Modules/include/MAVLink/common/../mavlink_sha256.h **** 	p += l;
 1684              		.loc 4 178 2 is_stmt 1 view .LVU606
 1685              		.loc 4 178 4 is_stmt 0 view .LVU607
 1686 0544 A344     		add	fp, fp, r4
 1687              	.LVL137:
 179:Modules/include/MAVLink/common/../mavlink_sha256.h **** 	len -= l;
 1688              		.loc 4 179 2 is_stmt 1 view .LVU608
 1689              		.loc 4 179 6 is_stmt 0 view .LVU609
 1690 0546 AAEB040A 		sub	r10, r10, r4
 1691              	.LVL138:
 180:Modules/include/MAVLink/common/../mavlink_sha256.h **** 	if(offset == 64){
 1692              		.loc 4 180 2 is_stmt 1 view .LVU610
 1693              		.loc 4 180 4 is_stmt 0 view .LVU611
 1694 054a 402D     		cmp	r5, #64
 1695 054c 53D0     		beq	.L164
 1696              	.LVL139:
 1697              	.L53:
 1698              		.loc 4 180 4 view .LVU612
 1699              	.LBE279:
 171:Modules/include/MAVLink/common/../mavlink_sha256.h **** 	uint32_t l = 64 - offset;
 1700              		.loc 4 171 10 is_stmt 1 view .LVU613
 1701 054e BAF1000F 		cmp	r10, #0
 1702 0552 00F0CE80 		beq	.L165
 1703              	.LBB288:
 172:Modules/include/MAVLink/common/../mavlink_sha256.h ****         if (len < l) {
 1704              		.loc 4 172 2 view .LVU614
 172:Modules/include/MAVLink/common/../mavlink_sha256.h ****         if (len < l) {
 1705              		.loc 4 172 11 is_stmt 0 view .LVU615
 1706 0556 C5F14004 		rsb	r4, r5, #64
 1707              	.LVL140:
 173:Modules/include/MAVLink/common/../mavlink_sha256.h ****             l = len;
 1708              		.loc 4 173 9 is_stmt 1 view .LVU616
 173:Modules/include/MAVLink/common/../mavlink_sha256.h ****             l = len;
 1709              		.loc 4 173 12 is_stmt 0 view .LVU617
 1710 055a 5445     		cmp	r4, r10
 1711 055c EBD9     		bls	.L54
 174:Modules/include/MAVLink/common/../mavlink_sha256.h ****         }
 1712              		.loc 4 174 15 view .LVU618
 1713 055e 5446     		mov	r4, r10
 1714              	.LVL141:
 174:Modules/include/MAVLink/common/../mavlink_sha256.h ****         }
 1715              		.loc 4 174 15 view .LVU619
 1716 0560 E9E7     		b	.L54
ARM GAS  C:\Users\luoha\AppData\Local\Temp\cctfed2n.s 			page 62


 1717              	.L191:
 1718 0562 00BF     		.align	2
 1719              	.L190:
 1720 0564 00000000 		.word	.LANCHOR1
 1721 0568 00000000 		.word	.LANCHOR2
 1722 056c 00000000 		.word	.LANCHOR3
 1723 0570 0C000000 		.word	.LANCHOR1+12
 1724 0574 00000000 		.word	.LANCHOR4
 1725 0578 67E6096A 		.word	1779033703
 1726 057c 85AE67BB 		.word	-1150833019
 1727 0580 72F36E3C 		.word	1013904242
 1728 0584 3AF54FA5 		.word	-1521486534
 1729 0588 7F520E51 		.word	1359893119
 1730 058c 8C68059B 		.word	-1694144372
 1731 0590 ABD9831F 		.word	528734635
 1732              	.LVL142:
 1733              	.L57:
 1734              	.LBB280:
 1735              	.LBB281:
 181:Modules/include/MAVLink/common/../mavlink_sha256.h **** 	    int i;
 182:Modules/include/MAVLink/common/../mavlink_sha256.h **** 	    uint32_t current[16];
 183:Modules/include/MAVLink/common/../mavlink_sha256.h **** 	    const uint32_t *u = m->u.save_u32;
 184:Modules/include/MAVLink/common/../mavlink_sha256.h **** 	    for (i = 0; i < 16; i++){
 185:Modules/include/MAVLink/common/../mavlink_sha256.h ****                 const uint8_t *p1 = (const uint8_t *)&u[i];
 1736              		.loc 4 185 17 is_stmt 1 view .LVU620
 1737              		.loc 4 185 32 is_stmt 0 view .LVU621
 1738 0594 3EA8     		add	r0, sp, #248
 1739 0596 00EB8301 		add	r1, r0, r3, lsl #2
 1740              	.LVL143:
 186:Modules/include/MAVLink/common/../mavlink_sha256.h ****                 uint8_t *p2 = (uint8_t *)&current[i];
 1741              		.loc 4 186 17 is_stmt 1 view .LVU622
 1742              		.loc 4 186 26 is_stmt 0 view .LVU623
 1743 059a 22AC     		add	r4, sp, #136
 1744 059c 04EB8302 		add	r2, r4, r3, lsl #2
 1745              	.LVL144:
 187:Modules/include/MAVLink/common/../mavlink_sha256.h ****                 p2[0] = p1[3];
 1746              		.loc 4 187 17 is_stmt 1 view .LVU624
 1747              		.loc 4 187 23 is_stmt 0 view .LVU625
 1748 05a0 CD78     		ldrb	r5, [r1, #3]	@ zero_extendqisi2
 1749 05a2 04F82350 		strb	r5, [r4, r3, lsl #2]
 188:Modules/include/MAVLink/common/../mavlink_sha256.h ****                 p2[1] = p1[2];
 1750              		.loc 4 188 17 is_stmt 1 view .LVU626
 1751              		.loc 4 188 23 is_stmt 0 view .LVU627
 1752 05a6 8C78     		ldrb	r4, [r1, #2]	@ zero_extendqisi2
 1753 05a8 5470     		strb	r4, [r2, #1]
 189:Modules/include/MAVLink/common/../mavlink_sha256.h ****                 p2[2] = p1[1];
 1754              		.loc 4 189 17 is_stmt 1 view .LVU628
 1755              		.loc 4 189 23 is_stmt 0 view .LVU629
 1756 05aa 4978     		ldrb	r1, [r1, #1]	@ zero_extendqisi2
 1757              	.LVL145:
 1758              		.loc 4 189 23 view .LVU630
 1759 05ac 9170     		strb	r1, [r2, #2]
 190:Modules/include/MAVLink/common/../mavlink_sha256.h ****                 p2[3] = p1[0];
 1760              		.loc 4 190 17 is_stmt 1 view .LVU631
 1761              		.loc 4 190 27 is_stmt 0 view .LVU632
 1762 05ae 10F82310 		ldrb	r1, [r0, r3, lsl #2]	@ zero_extendqisi2
 1763              		.loc 4 190 23 view .LVU633
ARM GAS  C:\Users\luoha\AppData\Local\Temp\cctfed2n.s 			page 63


 1764 05b2 D170     		strb	r1, [r2, #3]
 1765              	.LBE281:
 184:Modules/include/MAVLink/common/../mavlink_sha256.h ****                 const uint8_t *p1 = (const uint8_t *)&u[i];
 1766              		.loc 4 184 26 is_stmt 1 view .LVU634
 184:Modules/include/MAVLink/common/../mavlink_sha256.h ****                 const uint8_t *p1 = (const uint8_t *)&u[i];
 1767              		.loc 4 184 27 is_stmt 0 view .LVU635
 1768 05b4 0133     		adds	r3, r3, #1
 1769              	.LVL146:
 1770              	.L55:
 184:Modules/include/MAVLink/common/../mavlink_sha256.h ****                 const uint8_t *p1 = (const uint8_t *)&u[i];
 1771              		.loc 4 184 18 is_stmt 1 view .LVU636
 184:Modules/include/MAVLink/common/../mavlink_sha256.h ****                 const uint8_t *p1 = (const uint8_t *)&u[i];
 1772              		.loc 4 184 6 is_stmt 0 view .LVU637
 1773 05b6 0F2B     		cmp	r3, #15
 1774 05b8 ECDD     		ble	.L57
 191:Modules/include/MAVLink/common/../mavlink_sha256.h **** 	    }
 192:Modules/include/MAVLink/common/../mavlink_sha256.h **** 	    mavlink_sha256_calc(m, current);
 1775              		.loc 4 192 6 is_stmt 1 view .LVU638
 1776              	.LVL147:
 1777              	.LBB282:
 1778              	.LBI282:
 114:Modules/include/MAVLink/common/../mavlink_sha256.h **** {
 1779              		.loc 4 114 20 view .LVU639
 1780              	.LBB283:
 116:Modules/include/MAVLink/common/../mavlink_sha256.h ****     uint32_t data[64];
 1781              		.loc 4 116 5 view .LVU640
 117:Modules/include/MAVLink/common/../mavlink_sha256.h ****     int i;
 1782              		.loc 4 117 5 view .LVU641
 118:Modules/include/MAVLink/common/../mavlink_sha256.h **** 
 1783              		.loc 4 118 5 view .LVU642
 120:Modules/include/MAVLink/common/../mavlink_sha256.h ****     BB = B;
 1784              		.loc 4 120 5 view .LVU643
 120:Modules/include/MAVLink/common/../mavlink_sha256.h ****     BB = B;
 1785              		.loc 4 120 8 is_stmt 0 view .LVU644
 1786 05ba 369B     		ldr	r3, [sp, #216]
 1787              	.LVL148:
 120:Modules/include/MAVLink/common/../mavlink_sha256.h ****     BB = B;
 1788              		.loc 4 120 8 view .LVU645
 1789 05bc 0393     		str	r3, [sp, #12]
 1790              	.LVL149:
 121:Modules/include/MAVLink/common/../mavlink_sha256.h ****     CC = C;
 1791              		.loc 4 121 5 is_stmt 1 view .LVU646
 121:Modules/include/MAVLink/common/../mavlink_sha256.h ****     CC = C;
 1792              		.loc 4 121 8 is_stmt 0 view .LVU647
 1793 05be 379B     		ldr	r3, [sp, #220]
 1794              	.LVL150:
 121:Modules/include/MAVLink/common/../mavlink_sha256.h ****     CC = C;
 1795              		.loc 4 121 8 view .LVU648
 1796 05c0 0493     		str	r3, [sp, #16]
 1797              	.LVL151:
 122:Modules/include/MAVLink/common/../mavlink_sha256.h ****     DD = D;
 1798              		.loc 4 122 5 is_stmt 1 view .LVU649
 122:Modules/include/MAVLink/common/../mavlink_sha256.h ****     DD = D;
 1799              		.loc 4 122 8 is_stmt 0 view .LVU650
 1800 05c2 389B     		ldr	r3, [sp, #224]
 1801              	.LVL152:
 122:Modules/include/MAVLink/common/../mavlink_sha256.h ****     DD = D;
ARM GAS  C:\Users\luoha\AppData\Local\Temp\cctfed2n.s 			page 64


 1802              		.loc 4 122 8 view .LVU651
 1803 05c4 0593     		str	r3, [sp, #20]
 1804              	.LVL153:
 123:Modules/include/MAVLink/common/../mavlink_sha256.h ****     EE = E;
 1805              		.loc 4 123 5 is_stmt 1 view .LVU652
 123:Modules/include/MAVLink/common/../mavlink_sha256.h ****     EE = E;
 1806              		.loc 4 123 8 is_stmt 0 view .LVU653
 1807 05c6 399B     		ldr	r3, [sp, #228]
 1808              	.LVL154:
 123:Modules/include/MAVLink/common/../mavlink_sha256.h ****     EE = E;
 1809              		.loc 4 123 8 view .LVU654
 1810 05c8 0693     		str	r3, [sp, #24]
 1811              	.LVL155:
 124:Modules/include/MAVLink/common/../mavlink_sha256.h ****     FF = F;
 1812              		.loc 4 124 5 is_stmt 1 view .LVU655
 124:Modules/include/MAVLink/common/../mavlink_sha256.h ****     FF = F;
 1813              		.loc 4 124 8 is_stmt 0 view .LVU656
 1814 05ca 3A9B     		ldr	r3, [sp, #232]
 1815              	.LVL156:
 124:Modules/include/MAVLink/common/../mavlink_sha256.h ****     FF = F;
 1816              		.loc 4 124 8 view .LVU657
 1817 05cc 0793     		str	r3, [sp, #28]
 1818              	.LVL157:
 125:Modules/include/MAVLink/common/../mavlink_sha256.h ****     GG = G;
 1819              		.loc 4 125 5 is_stmt 1 view .LVU658
 125:Modules/include/MAVLink/common/../mavlink_sha256.h ****     GG = G;
 1820              		.loc 4 125 8 is_stmt 0 view .LVU659
 1821 05ce 3B9B     		ldr	r3, [sp, #236]
 1822              	.LVL158:
 125:Modules/include/MAVLink/common/../mavlink_sha256.h ****     GG = G;
 1823              		.loc 4 125 8 view .LVU660
 1824 05d0 0893     		str	r3, [sp, #32]
 1825              	.LVL159:
 126:Modules/include/MAVLink/common/../mavlink_sha256.h ****     HH = H;
 1826              		.loc 4 126 5 is_stmt 1 view .LVU661
 126:Modules/include/MAVLink/common/../mavlink_sha256.h ****     HH = H;
 1827              		.loc 4 126 8 is_stmt 0 view .LVU662
 1828 05d2 3C9B     		ldr	r3, [sp, #240]
 1829              	.LVL160:
 126:Modules/include/MAVLink/common/../mavlink_sha256.h ****     HH = H;
 1830              		.loc 4 126 8 view .LVU663
 1831 05d4 0993     		str	r3, [sp, #36]
 1832              	.LVL161:
 127:Modules/include/MAVLink/common/../mavlink_sha256.h **** 
 1833              		.loc 4 127 5 is_stmt 1 view .LVU664
 127:Modules/include/MAVLink/common/../mavlink_sha256.h **** 
 1834              		.loc 4 127 8 is_stmt 0 view .LVU665
 1835 05d6 3D9B     		ldr	r3, [sp, #244]
 1836              	.LVL162:
 127:Modules/include/MAVLink/common/../mavlink_sha256.h **** 
 1837              		.loc 4 127 8 view .LVU666
 1838 05d8 0A93     		str	r3, [sp, #40]
 1839              	.LVL163:
 129:Modules/include/MAVLink/common/../mavlink_sha256.h **** 	data[i] = in[i];
 1840              		.loc 4 129 5 is_stmt 1 view .LVU667
 129:Modules/include/MAVLink/common/../mavlink_sha256.h **** 	data[i] = in[i];
 1841              		.loc 4 129 12 is_stmt 0 view .LVU668
ARM GAS  C:\Users\luoha\AppData\Local\Temp\cctfed2n.s 			page 65


 1842 05da 0023     		movs	r3, #0
 1843              	.LVL164:
 1844              	.L58:
 129:Modules/include/MAVLink/common/../mavlink_sha256.h **** 	data[i] = in[i];
 1845              		.loc 4 129 17 is_stmt 1 view .LVU669
 129:Modules/include/MAVLink/common/../mavlink_sha256.h **** 	data[i] = in[i];
 1846              		.loc 4 129 5 is_stmt 0 view .LVU670
 1847 05dc 0F2B     		cmp	r3, #15
 1848 05de 0CDC     		bgt	.L166
 130:Modules/include/MAVLink/common/../mavlink_sha256.h ****     for (i = 16; i < 64; ++i)
 1849              		.loc 4 130 2 is_stmt 1 view .LVU671
 130:Modules/include/MAVLink/common/../mavlink_sha256.h ****     for (i = 16; i < 64; ++i)
 1850              		.loc 4 130 14 is_stmt 0 view .LVU672
 1851 05e0 8EAA     		add	r2, sp, #568
 1852 05e2 02EB8302 		add	r2, r2, r3, lsl #2
 1853 05e6 A2F5D872 		sub	r2, r2, #432
 1854 05ea 1168     		ldr	r1, [r2]
 130:Modules/include/MAVLink/common/../mavlink_sha256.h ****     for (i = 16; i < 64; ++i)
 1855              		.loc 4 130 10 view .LVU673
 1856 05ec 4EAA     		add	r2, sp, #312
 1857 05ee 42F82310 		str	r1, [r2, r3, lsl #2]
 129:Modules/include/MAVLink/common/../mavlink_sha256.h **** 	data[i] = in[i];
 1858              		.loc 4 129 25 is_stmt 1 view .LVU674
 1859 05f2 0133     		adds	r3, r3, #1
 1860              	.LVL165:
 129:Modules/include/MAVLink/common/../mavlink_sha256.h **** 	data[i] = in[i];
 1861              		.loc 4 129 25 is_stmt 0 view .LVU675
 1862 05f4 F2E7     		b	.L58
 1863              	.LVL166:
 1864              	.L164:
 129:Modules/include/MAVLink/common/../mavlink_sha256.h **** 	data[i] = in[i];
 1865              		.loc 4 129 25 view .LVU676
 1866              	.LBE283:
 1867              	.LBE282:
 184:Modules/include/MAVLink/common/../mavlink_sha256.h ****                 const uint8_t *p1 = (const uint8_t *)&u[i];
 1868              		.loc 4 184 13 view .LVU677
 1869 05f6 0023     		movs	r3, #0
 1870 05f8 DDE7     		b	.L55
 1871              	.LVL167:
 1872              	.L166:
 1873              	.LBB287:
 1874              	.LBB286:
 131:Modules/include/MAVLink/common/../mavlink_sha256.h **** 	data[i] = sigma1(data[i-2]) + data[i-7] + 
 1875              		.loc 4 131 12 view .LVU678
 1876 05fa 1022     		movs	r2, #16
 1877 05fc 20E0     		b	.L60
 1878              	.LVL168:
 1879              	.L61:
 132:Modules/include/MAVLink/common/../mavlink_sha256.h **** 	    sigma0(data[i-15]) + data[i - 16];
 1880              		.loc 4 132 2 is_stmt 1 view .LVU679
 132:Modules/include/MAVLink/common/../mavlink_sha256.h **** 	    sigma0(data[i-15]) + data[i - 16];
 1881              		.loc 4 132 12 is_stmt 0 view .LVU680
 1882 05fe 931E     		subs	r3, r2, #2
 1883 0600 4EA9     		add	r1, sp, #312
 1884 0602 51F82300 		ldr	r0, [r1, r3, lsl #2]
 1885 0606 4FEAF043 		ror	r3, r0, #19
 1886 060a 83EA7043 		eor	r3, r3, r0, ror #17
ARM GAS  C:\Users\luoha\AppData\Local\Temp\cctfed2n.s 			page 66


 1887 060e 83EA9023 		eor	r3, r3, r0, lsr #10
 132:Modules/include/MAVLink/common/../mavlink_sha256.h **** 	    sigma0(data[i-15]) + data[i - 16];
 1888              		.loc 4 132 38 view .LVU681
 1889 0612 D01F     		subs	r0, r2, #7
 132:Modules/include/MAVLink/common/../mavlink_sha256.h **** 	    sigma0(data[i-15]) + data[i - 16];
 1890              		.loc 4 132 36 view .LVU682
 1891 0614 51F82000 		ldr	r0, [r1, r0, lsl #2]
 132:Modules/include/MAVLink/common/../mavlink_sha256.h **** 	    sigma0(data[i-15]) + data[i - 16];
 1892              		.loc 4 132 30 view .LVU683
 1893 0618 0344     		add	r3, r3, r0
 133:Modules/include/MAVLink/common/../mavlink_sha256.h **** 
 1894              		.loc 4 133 6 view .LVU684
 1895 061a A2F10F00 		sub	r0, r2, #15
 1896 061e 51F82040 		ldr	r4, [r1, r0, lsl #2]
 1897 0622 4FEAB440 		ror	r0, r4, #18
 1898 0626 80EAF410 		eor	r0, r0, r4, ror #7
 1899 062a 80EAD400 		eor	r0, r0, r4, lsr #3
 132:Modules/include/MAVLink/common/../mavlink_sha256.h **** 	    sigma0(data[i-15]) + data[i - 16];
 1900              		.loc 4 132 42 view .LVU685
 1901 062e 0344     		add	r3, r3, r0
 133:Modules/include/MAVLink/common/../mavlink_sha256.h **** 
 1902              		.loc 4 133 34 view .LVU686
 1903 0630 A2F11000 		sub	r0, r2, #16
 133:Modules/include/MAVLink/common/../mavlink_sha256.h **** 
 1904              		.loc 4 133 31 view .LVU687
 1905 0634 51F82000 		ldr	r0, [r1, r0, lsl #2]
 133:Modules/include/MAVLink/common/../mavlink_sha256.h **** 
 1906              		.loc 4 133 25 view .LVU688
 1907 0638 0344     		add	r3, r3, r0
 132:Modules/include/MAVLink/common/../mavlink_sha256.h **** 	    sigma0(data[i-15]) + data[i - 16];
 1908              		.loc 4 132 10 view .LVU689
 1909 063a 41F82230 		str	r3, [r1, r2, lsl #2]
 131:Modules/include/MAVLink/common/../mavlink_sha256.h **** 	data[i] = sigma1(data[i-2]) + data[i-7] + 
 1910              		.loc 4 131 26 is_stmt 1 view .LVU690
 1911 063e 0132     		adds	r2, r2, #1
 1912              	.LVL169:
 1913              	.L60:
 131:Modules/include/MAVLink/common/../mavlink_sha256.h **** 	data[i] = sigma1(data[i-2]) + data[i-7] + 
 1914              		.loc 4 131 18 view .LVU691
 131:Modules/include/MAVLink/common/../mavlink_sha256.h **** 	data[i] = sigma1(data[i-2]) + data[i-7] + 
 1915              		.loc 4 131 5 is_stmt 0 view .LVU692
 1916 0640 3F2A     		cmp	r2, #63
 1917 0642 DCDD     		ble	.L61
 127:Modules/include/MAVLink/common/../mavlink_sha256.h **** 
 1918              		.loc 4 127 8 view .LVU693
 1919 0644 DDF82890 		ldr	r9, [sp, #40]
 126:Modules/include/MAVLink/common/../mavlink_sha256.h ****     HH = H;
 1920              		.loc 4 126 8 view .LVU694
 1921 0648 DDF824C0 		ldr	ip, [sp, #36]
 125:Modules/include/MAVLink/common/../mavlink_sha256.h ****     GG = G;
 1922              		.loc 4 125 8 view .LVU695
 1923 064c DDF820E0 		ldr	lr, [sp, #32]
 124:Modules/include/MAVLink/common/../mavlink_sha256.h ****     FF = F;
 1924              		.loc 4 124 8 view .LVU696
 1925 0650 0799     		ldr	r1, [sp, #28]
 123:Modules/include/MAVLink/common/../mavlink_sha256.h ****     EE = E;
 1926              		.loc 4 123 8 view .LVU697
ARM GAS  C:\Users\luoha\AppData\Local\Temp\cctfed2n.s 			page 67


 1927 0652 DDF81880 		ldr	r8, [sp, #24]
 122:Modules/include/MAVLink/common/../mavlink_sha256.h ****     DD = D;
 1928              		.loc 4 122 8 view .LVU698
 1929 0656 059E     		ldr	r6, [sp, #20]
 121:Modules/include/MAVLink/common/../mavlink_sha256.h ****     CC = C;
 1930              		.loc 4 121 8 view .LVU699
 1931 0658 049F     		ldr	r7, [sp, #16]
 120:Modules/include/MAVLink/common/../mavlink_sha256.h ****     BB = B;
 1932              		.loc 4 120 8 view .LVU700
 1933 065a 0398     		ldr	r0, [sp, #12]
 135:Modules/include/MAVLink/common/../mavlink_sha256.h **** 	uint32_t T1, T2;
 1934              		.loc 4 135 12 view .LVU701
 1935 065c 0025     		movs	r5, #0
 1936              	.LVL170:
 1937              	.L62:
 135:Modules/include/MAVLink/common/../mavlink_sha256.h **** 	uint32_t T1, T2;
 1938              		.loc 4 135 17 is_stmt 1 view .LVU702
 135:Modules/include/MAVLink/common/../mavlink_sha256.h **** 	uint32_t T1, T2;
 1939              		.loc 4 135 5 is_stmt 0 view .LVU703
 1940 065e 3F2D     		cmp	r5, #63
 1941 0660 2DDC     		bgt	.L167
 1942              	.LBB284:
 136:Modules/include/MAVLink/common/../mavlink_sha256.h **** 
 1943              		.loc 4 136 2 is_stmt 1 view .LVU704
 138:Modules/include/MAVLink/common/../mavlink_sha256.h **** 	T2 = Sigma0(AA) + Maj(AA,BB,CC);
 1944              		.loc 4 138 2 view .LVU705
 138:Modules/include/MAVLink/common/../mavlink_sha256.h **** 	T2 = Sigma0(AA) + Maj(AA,BB,CC);
 1945              		.loc 4 138 12 is_stmt 0 view .LVU706
 1946 0662 4FEAF123 		ror	r3, r1, #11
 1947 0666 83EAB113 		eor	r3, r3, r1, ror #6
 1948 066a 83EA7163 		eor	r3, r3, r1, ror #25
 138:Modules/include/MAVLink/common/../mavlink_sha256.h **** 	T2 = Sigma0(AA) + Maj(AA,BB,CC);
 1949              		.loc 4 138 10 view .LVU707
 1950 066e 4B44     		add	r3, r3, r9
 138:Modules/include/MAVLink/common/../mavlink_sha256.h **** 	T2 = Sigma0(AA) + Maj(AA,BB,CC);
 1951              		.loc 4 138 25 view .LVU708
 1952 0670 01EA0E02 		and	r2, r1, lr
 1953 0674 2CEA0104 		bic	r4, ip, r1
 1954 0678 6240     		eors	r2, r2, r4
 138:Modules/include/MAVLink/common/../mavlink_sha256.h **** 	T2 = Sigma0(AA) + Maj(AA,BB,CC);
 1955              		.loc 4 138 23 view .LVU709
 1956 067a 1344     		add	r3, r3, r2
 138:Modules/include/MAVLink/common/../mavlink_sha256.h **** 	T2 = Sigma0(AA) + Maj(AA,BB,CC);
 1957              		.loc 4 138 69 view .LVU710
 1958 067c B14A     		ldr	r2, .L192
 1959 067e 52F82520 		ldr	r2, [r2, r5, lsl #2]
 138:Modules/include/MAVLink/common/../mavlink_sha256.h **** 	T2 = Sigma0(AA) + Maj(AA,BB,CC);
 1960              		.loc 4 138 40 view .LVU711
 1961 0682 1344     		add	r3, r3, r2
 138:Modules/include/MAVLink/common/../mavlink_sha256.h **** 	T2 = Sigma0(AA) + Maj(AA,BB,CC);
 1962              		.loc 4 138 79 view .LVU712
 1963 0684 4EAA     		add	r2, sp, #312
 1964 0686 52F82520 		ldr	r2, [r2, r5, lsl #2]
 138:Modules/include/MAVLink/common/../mavlink_sha256.h **** 	T2 = Sigma0(AA) + Maj(AA,BB,CC);
 1965              		.loc 4 138 5 view .LVU713
 1966 068a 1344     		add	r3, r3, r2
 1967              	.LVL171:
ARM GAS  C:\Users\luoha\AppData\Local\Temp\cctfed2n.s 			page 68


 139:Modules/include/MAVLink/common/../mavlink_sha256.h **** 			     
 1968              		.loc 4 139 2 is_stmt 1 view .LVU714
 139:Modules/include/MAVLink/common/../mavlink_sha256.h **** 			     
 1969              		.loc 4 139 7 is_stmt 0 view .LVU715
 1970 068c 4FEA7032 		ror	r2, r0, #13
 1971 0690 82EAB002 		eor	r2, r2, r0, ror #2
 1972 0694 82EAB052 		eor	r2, r2, r0, ror #22
 139:Modules/include/MAVLink/common/../mavlink_sha256.h **** 			     
 1973              		.loc 4 139 20 view .LVU716
 1974 0698 87EA0604 		eor	r4, r7, r6
 1975 069c 0440     		ands	r4, r4, r0
 1976 069e 07EA0609 		and	r9, r7, r6
 1977              	.LVL172:
 139:Modules/include/MAVLink/common/../mavlink_sha256.h **** 			     
 1978              		.loc 4 139 20 view .LVU717
 1979 06a2 84EA0904 		eor	r4, r4, r9
 139:Modules/include/MAVLink/common/../mavlink_sha256.h **** 			     
 1980              		.loc 4 139 5 view .LVU718
 1981 06a6 2244     		add	r2, r2, r4
 1982              	.LVL173:
 141:Modules/include/MAVLink/common/../mavlink_sha256.h **** 	GG = FF;
 1983              		.loc 4 141 2 is_stmt 1 view .LVU719
 142:Modules/include/MAVLink/common/../mavlink_sha256.h **** 	FF = EE;
 1984              		.loc 4 142 2 view .LVU720
 143:Modules/include/MAVLink/common/../mavlink_sha256.h **** 	EE = DD + T1;
 1985              		.loc 4 143 2 view .LVU721
 144:Modules/include/MAVLink/common/../mavlink_sha256.h **** 	DD = CC;
 1986              		.loc 4 144 2 view .LVU722
 145:Modules/include/MAVLink/common/../mavlink_sha256.h **** 	CC = BB;
 1987              		.loc 4 145 2 view .LVU723
 146:Modules/include/MAVLink/common/../mavlink_sha256.h **** 	BB = AA;
 1988              		.loc 4 146 2 view .LVU724
 147:Modules/include/MAVLink/common/../mavlink_sha256.h **** 	AA = T1 + T2;
 1989              		.loc 4 147 2 view .LVU725
 148:Modules/include/MAVLink/common/../mavlink_sha256.h ****     }
 1990              		.loc 4 148 2 view .LVU726
 148:Modules/include/MAVLink/common/../mavlink_sha256.h ****     }
 1991              		.loc 4 148 2 is_stmt 0 view .LVU727
 1992              	.LBE284:
 135:Modules/include/MAVLink/common/../mavlink_sha256.h **** 	uint32_t T1, T2;
 1993              		.loc 4 135 25 is_stmt 1 view .LVU728
 135:Modules/include/MAVLink/common/../mavlink_sha256.h **** 	uint32_t T1, T2;
 1994              		.loc 4 135 26 is_stmt 0 view .LVU729
 1995 06a8 0135     		adds	r5, r5, #1
 1996              	.LVL174:
 1997              	.LBB285:
 141:Modules/include/MAVLink/common/../mavlink_sha256.h **** 	GG = FF;
 1998              		.loc 4 141 5 view .LVU730
 1999 06aa E146     		mov	r9, ip
 142:Modules/include/MAVLink/common/../mavlink_sha256.h **** 	FF = EE;
 2000              		.loc 4 142 5 view .LVU731
 2001 06ac F446     		mov	ip, lr
 2002              	.LVL175:
 143:Modules/include/MAVLink/common/../mavlink_sha256.h **** 	EE = DD + T1;
 2003              		.loc 4 143 5 view .LVU732
 2004 06ae 8E46     		mov	lr, r1
 2005              	.LVL176:
ARM GAS  C:\Users\luoha\AppData\Local\Temp\cctfed2n.s 			page 69


 144:Modules/include/MAVLink/common/../mavlink_sha256.h **** 	DD = CC;
 2006              		.loc 4 144 5 view .LVU733
 2007 06b0 03EB0801 		add	r1, r3, r8
 2008              	.LVL177:
 145:Modules/include/MAVLink/common/../mavlink_sha256.h **** 	CC = BB;
 2009              		.loc 4 145 5 view .LVU734
 2010 06b4 B046     		mov	r8, r6
 146:Modules/include/MAVLink/common/../mavlink_sha256.h **** 	BB = AA;
 2011              		.loc 4 146 5 view .LVU735
 2012 06b6 3E46     		mov	r6, r7
 2013              	.LVL178:
 147:Modules/include/MAVLink/common/../mavlink_sha256.h **** 	AA = T1 + T2;
 2014              		.loc 4 147 5 view .LVU736
 2015 06b8 0746     		mov	r7, r0
 2016              	.LVL179:
 148:Modules/include/MAVLink/common/../mavlink_sha256.h ****     }
 2017              		.loc 4 148 5 view .LVU737
 2018 06ba 9818     		adds	r0, r3, r2
 2019              	.LVL180:
 148:Modules/include/MAVLink/common/../mavlink_sha256.h ****     }
 2020              		.loc 4 148 5 view .LVU738
 2021 06bc CFE7     		b	.L62
 2022              	.LVL181:
 2023              	.L167:
 148:Modules/include/MAVLink/common/../mavlink_sha256.h ****     }
 2024              		.loc 4 148 5 view .LVU739
 2025              	.LBE285:
 151:Modules/include/MAVLink/common/../mavlink_sha256.h ****     B += BB;
 2026              		.loc 4 151 5 is_stmt 1 view .LVU740
 151:Modules/include/MAVLink/common/../mavlink_sha256.h ****     B += BB;
 2027              		.loc 4 151 7 is_stmt 0 view .LVU741
 2028 06be 039B     		ldr	r3, [sp, #12]
 2029 06c0 0344     		add	r3, r3, r0
 2030 06c2 3693     		str	r3, [sp, #216]
 152:Modules/include/MAVLink/common/../mavlink_sha256.h ****     C += CC;
 2031              		.loc 4 152 5 is_stmt 1 view .LVU742
 152:Modules/include/MAVLink/common/../mavlink_sha256.h ****     C += CC;
 2032              		.loc 4 152 7 is_stmt 0 view .LVU743
 2033 06c4 049B     		ldr	r3, [sp, #16]
 2034 06c6 3B44     		add	r3, r3, r7
 2035 06c8 3793     		str	r3, [sp, #220]
 153:Modules/include/MAVLink/common/../mavlink_sha256.h ****     D += DD;
 2036              		.loc 4 153 5 is_stmt 1 view .LVU744
 153:Modules/include/MAVLink/common/../mavlink_sha256.h ****     D += DD;
 2037              		.loc 4 153 7 is_stmt 0 view .LVU745
 2038 06ca 059B     		ldr	r3, [sp, #20]
 2039 06cc 3344     		add	r3, r3, r6
 2040 06ce 3893     		str	r3, [sp, #224]
 154:Modules/include/MAVLink/common/../mavlink_sha256.h ****     E += EE;
 2041              		.loc 4 154 5 is_stmt 1 view .LVU746
 154:Modules/include/MAVLink/common/../mavlink_sha256.h ****     E += EE;
 2042              		.loc 4 154 7 is_stmt 0 view .LVU747
 2043 06d0 069B     		ldr	r3, [sp, #24]
 2044 06d2 4344     		add	r3, r3, r8
 2045 06d4 3993     		str	r3, [sp, #228]
 155:Modules/include/MAVLink/common/../mavlink_sha256.h ****     F += FF;
 2046              		.loc 4 155 5 is_stmt 1 view .LVU748
ARM GAS  C:\Users\luoha\AppData\Local\Temp\cctfed2n.s 			page 70


 155:Modules/include/MAVLink/common/../mavlink_sha256.h ****     F += FF;
 2047              		.loc 4 155 7 is_stmt 0 view .LVU749
 2048 06d6 079B     		ldr	r3, [sp, #28]
 2049 06d8 0B44     		add	r3, r3, r1
 2050 06da 3A93     		str	r3, [sp, #232]
 156:Modules/include/MAVLink/common/../mavlink_sha256.h ****     G += GG;
 2051              		.loc 4 156 5 is_stmt 1 view .LVU750
 156:Modules/include/MAVLink/common/../mavlink_sha256.h ****     G += GG;
 2052              		.loc 4 156 7 is_stmt 0 view .LVU751
 2053 06dc 089B     		ldr	r3, [sp, #32]
 2054 06de 7344     		add	r3, r3, lr
 2055 06e0 3B93     		str	r3, [sp, #236]
 157:Modules/include/MAVLink/common/../mavlink_sha256.h ****     H += HH;
 2056              		.loc 4 157 5 is_stmt 1 view .LVU752
 157:Modules/include/MAVLink/common/../mavlink_sha256.h ****     H += HH;
 2057              		.loc 4 157 7 is_stmt 0 view .LVU753
 2058 06e2 099B     		ldr	r3, [sp, #36]
 2059 06e4 6344     		add	r3, r3, ip
 2060 06e6 3C93     		str	r3, [sp, #240]
 158:Modules/include/MAVLink/common/../mavlink_sha256.h **** }
 2061              		.loc 4 158 5 is_stmt 1 view .LVU754
 158:Modules/include/MAVLink/common/../mavlink_sha256.h **** }
 2062              		.loc 4 158 7 is_stmt 0 view .LVU755
 2063 06e8 0A9B     		ldr	r3, [sp, #40]
 2064 06ea 4B44     		add	r3, r3, r9
 2065 06ec 3D93     		str	r3, [sp, #244]
 2066              	.LVL182:
 158:Modules/include/MAVLink/common/../mavlink_sha256.h **** }
 2067              		.loc 4 158 7 view .LVU756
 2068              	.LBE286:
 2069              	.LBE287:
 193:Modules/include/MAVLink/common/../mavlink_sha256.h **** 	    offset = 0;
 2070              		.loc 4 193 6 is_stmt 1 view .LVU757
 2071              		.loc 4 193 13 is_stmt 0 view .LVU758
 2072 06ee 0025     		movs	r5, #0
 2073 06f0 2DE7     		b	.L53
 2074              	.LVL183:
 2075              	.L165:
 2076              		.loc 4 193 13 view .LVU759
 2077 06f2 DDF82CB0 		ldr	fp, [sp, #44]
 2078              	.LVL184:
 2079              		.loc 4 193 13 view .LVU760
 2080 06f6 CDF82CA0 		str	r10, [sp, #44]
 2081              	.LVL185:
 2082              		.loc 4 193 13 view .LVU761
 2083 06fa DDF834A0 		ldr	r10, [sp, #52]
 2084              	.LVL186:
 2085              		.loc 4 193 13 view .LVU762
 2086              	.LBE280:
 2087              	.LBE288:
 2088              	.LBE278:
 2089              	.LBE277:
 136:Modules/include/MAVLink/common/../mavlink_helpers.h **** 	mavlink_sha256_update(&ctx, msg->ck, 2);
 2090              		.loc 2 136 2 is_stmt 1 view .LVU763
 136:Modules/include/MAVLink/common/../mavlink_helpers.h **** 	mavlink_sha256_update(&ctx, msg->ck, 2);
 2091              		.loc 2 136 62 is_stmt 0 view .LVU764
 2092 06fe 924B     		ldr	r3, .L192+4
ARM GAS  C:\Users\luoha\AppData\Local\Temp\cctfed2n.s 			page 71


 2093 0700 DB78     		ldrb	r3, [r3, #3]	@ zero_extendqisi2
 136:Modules/include/MAVLink/common/../mavlink_helpers.h **** 	mavlink_sha256_update(&ctx, msg->ck, 2);
 2094              		.loc 2 136 58 view .LVU765
 2095 0702 0A33     		adds	r3, r3, #10
 2096 0704 0393     		str	r3, [sp, #12]
 2097              	.LVL187:
 2098              	.LBB289:
 2099              	.LBI289:
 161:Modules/include/MAVLink/common/../mavlink_sha256.h **** {
 2100              		.loc 4 161 21 is_stmt 1 view .LVU766
 2101              	.LBB290:
 163:Modules/include/MAVLink/common/../mavlink_sha256.h ****     uint32_t old_sz = m->sz[0];
 2102              		.loc 4 163 5 view .LVU767
 164:Modules/include/MAVLink/common/../mavlink_sha256.h ****     uint32_t offset;
 2103              		.loc 4 164 5 view .LVU768
 164:Modules/include/MAVLink/common/../mavlink_sha256.h ****     uint32_t offset;
 2104              		.loc 4 164 14 is_stmt 0 view .LVU769
 2105 0706 349D     		ldr	r5, [sp, #208]
 2106              	.LVL188:
 165:Modules/include/MAVLink/common/../mavlink_sha256.h **** 
 2107              		.loc 4 165 5 is_stmt 1 view .LVU770
 167:Modules/include/MAVLink/common/../mavlink_sha256.h ****     if (m->sz[0] < old_sz)
 2108              		.loc 4 167 5 view .LVU771
 167:Modules/include/MAVLink/common/../mavlink_sha256.h ****     if (m->sz[0] < old_sz)
 2109              		.loc 4 167 14 is_stmt 0 view .LVU772
 2110 0708 05EBC303 		add	r3, r5, r3, lsl #3
 2111              	.LVL189:
 167:Modules/include/MAVLink/common/../mavlink_sha256.h ****     if (m->sz[0] < old_sz)
 2112              		.loc 4 167 14 view .LVU773
 2113 070c 3493     		str	r3, [sp, #208]
 168:Modules/include/MAVLink/common/../mavlink_sha256.h **** 	++m->sz[1];
 2114              		.loc 4 168 5 is_stmt 1 view .LVU774
 168:Modules/include/MAVLink/common/../mavlink_sha256.h **** 	++m->sz[1];
 2115              		.loc 4 168 8 is_stmt 0 view .LVU775
 2116 070e 9D42     		cmp	r5, r3
 2117 0710 02D9     		bls	.L65
 169:Modules/include/MAVLink/common/../mavlink_sha256.h ****     offset = (old_sz / 8) % 64;
 2118              		.loc 4 169 2 is_stmt 1 view .LVU776
 169:Modules/include/MAVLink/common/../mavlink_sha256.h ****     offset = (old_sz / 8) % 64;
 2119              		.loc 4 169 9 is_stmt 0 view .LVU777
 2120 0712 359B     		ldr	r3, [sp, #212]
 169:Modules/include/MAVLink/common/../mavlink_sha256.h ****     offset = (old_sz / 8) % 64;
 2121              		.loc 4 169 2 view .LVU778
 2122 0714 0133     		adds	r3, r3, #1
 2123 0716 3593     		str	r3, [sp, #212]
 2124              	.L65:
 170:Modules/include/MAVLink/common/../mavlink_sha256.h ****     while(len > 0){
 2125              		.loc 4 170 5 is_stmt 1 view .LVU779
 170:Modules/include/MAVLink/common/../mavlink_sha256.h ****     while(len > 0){
 2126              		.loc 4 170 12 is_stmt 0 view .LVU780
 2127 0718 C5F3C505 		ubfx	r5, r5, #3, #6
 2128              	.LVL190:
 171:Modules/include/MAVLink/common/../mavlink_sha256.h **** 	uint32_t l = 64 - offset;
 2129              		.loc 4 171 5 is_stmt 1 view .LVU781
 163:Modules/include/MAVLink/common/../mavlink_sha256.h ****     uint32_t old_sz = m->sz[0];
 2130              		.loc 4 163 26 is_stmt 0 view .LVU782
 2131 071c 8B4B     		ldr	r3, .L192+8
ARM GAS  C:\Users\luoha\AppData\Local\Temp\cctfed2n.s 			page 72


 2132 071e CDF834B0 		str	fp, [sp, #52]
 2133              	.LVL191:
 163:Modules/include/MAVLink/common/../mavlink_sha256.h ****     uint32_t old_sz = m->sz[0];
 2134              		.loc 4 163 26 view .LVU783
 2135 0722 CDF838A0 		str	r10, [sp, #56]
 2136 0726 DDF80CA0 		ldr	r10, [sp, #12]
 2137 072a 9B46     		mov	fp, r3
 171:Modules/include/MAVLink/common/../mavlink_sha256.h **** 	uint32_t l = 64 - offset;
 2138              		.loc 4 171 10 view .LVU784
 2139 072c 0BE0     		b	.L66
 2140              	.LVL192:
 2141              	.L67:
 2142              	.LBB291:
 176:Modules/include/MAVLink/common/../mavlink_sha256.h **** 	offset += l;
 2143              		.loc 4 176 2 is_stmt 1 view .LVU785
 2144 072e 2246     		mov	r2, r4
 2145 0730 5946     		mov	r1, fp
 2146 0732 3EAB     		add	r3, sp, #248
 2147 0734 5819     		adds	r0, r3, r5
 2148 0736 FFF7FEFF 		bl	memcpy
 2149              	.LVL193:
 177:Modules/include/MAVLink/common/../mavlink_sha256.h **** 	p += l;
 2150              		.loc 4 177 2 view .LVU786
 177:Modules/include/MAVLink/common/../mavlink_sha256.h **** 	p += l;
 2151              		.loc 4 177 9 is_stmt 0 view .LVU787
 2152 073a 2544     		add	r5, r5, r4
 2153              	.LVL194:
 178:Modules/include/MAVLink/common/../mavlink_sha256.h **** 	len -= l;
 2154              		.loc 4 178 2 is_stmt 1 view .LVU788
 178:Modules/include/MAVLink/common/../mavlink_sha256.h **** 	len -= l;
 2155              		.loc 4 178 4 is_stmt 0 view .LVU789
 2156 073c A344     		add	fp, fp, r4
 2157              	.LVL195:
 179:Modules/include/MAVLink/common/../mavlink_sha256.h **** 	if(offset == 64){
 2158              		.loc 4 179 2 is_stmt 1 view .LVU790
 179:Modules/include/MAVLink/common/../mavlink_sha256.h **** 	if(offset == 64){
 2159              		.loc 4 179 6 is_stmt 0 view .LVU791
 2160 073e AAEB040A 		sub	r10, r10, r4
 2161              	.LVL196:
 180:Modules/include/MAVLink/common/../mavlink_sha256.h **** 	    int i;
 2162              		.loc 4 180 2 is_stmt 1 view .LVU792
 180:Modules/include/MAVLink/common/../mavlink_sha256.h **** 	    int i;
 2163              		.loc 4 180 4 is_stmt 0 view .LVU793
 2164 0742 402D     		cmp	r5, #64
 2165 0744 09D0     		beq	.L168
 2166              	.LVL197:
 2167              	.L66:
 180:Modules/include/MAVLink/common/../mavlink_sha256.h **** 	    int i;
 2168              		.loc 4 180 4 view .LVU794
 2169              	.LBE291:
 171:Modules/include/MAVLink/common/../mavlink_sha256.h **** 	uint32_t l = 64 - offset;
 2170              		.loc 4 171 10 is_stmt 1 view .LVU795
 2171 0746 BAF1000F 		cmp	r10, #0
 2172 074a 00F0B580 		beq	.L169
 2173              	.LBB298:
 172:Modules/include/MAVLink/common/../mavlink_sha256.h ****         if (len < l) {
 2174              		.loc 4 172 2 view .LVU796
ARM GAS  C:\Users\luoha\AppData\Local\Temp\cctfed2n.s 			page 73


 172:Modules/include/MAVLink/common/../mavlink_sha256.h ****         if (len < l) {
 2175              		.loc 4 172 11 is_stmt 0 view .LVU797
 2176 074e C5F14004 		rsb	r4, r5, #64
 2177              	.LVL198:
 173:Modules/include/MAVLink/common/../mavlink_sha256.h ****             l = len;
 2178              		.loc 4 173 9 is_stmt 1 view .LVU798
 173:Modules/include/MAVLink/common/../mavlink_sha256.h ****             l = len;
 2179              		.loc 4 173 12 is_stmt 0 view .LVU799
 2180 0752 5445     		cmp	r4, r10
 2181 0754 EBD9     		bls	.L67
 174:Modules/include/MAVLink/common/../mavlink_sha256.h ****         }
 2182              		.loc 4 174 15 view .LVU800
 2183 0756 5446     		mov	r4, r10
 2184              	.LVL199:
 174:Modules/include/MAVLink/common/../mavlink_sha256.h ****         }
 2185              		.loc 4 174 15 view .LVU801
 2186 0758 E9E7     		b	.L67
 2187              	.LVL200:
 2188              	.L168:
 2189              	.LBB292:
 184:Modules/include/MAVLink/common/../mavlink_sha256.h ****                 const uint8_t *p1 = (const uint8_t *)&u[i];
 2190              		.loc 4 184 13 view .LVU802
 2191 075a 0023     		movs	r3, #0
 2192              	.LVL201:
 2193              	.L68:
 184:Modules/include/MAVLink/common/../mavlink_sha256.h ****                 const uint8_t *p1 = (const uint8_t *)&u[i];
 2194              		.loc 4 184 18 is_stmt 1 view .LVU803
 184:Modules/include/MAVLink/common/../mavlink_sha256.h ****                 const uint8_t *p1 = (const uint8_t *)&u[i];
 2195              		.loc 4 184 6 is_stmt 0 view .LVU804
 2196 075c 0F2B     		cmp	r3, #15
 2197 075e 11DC     		bgt	.L170
 2198              	.LBB293:
 185:Modules/include/MAVLink/common/../mavlink_sha256.h ****                 uint8_t *p2 = (uint8_t *)&current[i];
 2199              		.loc 4 185 17 is_stmt 1 view .LVU805
 185:Modules/include/MAVLink/common/../mavlink_sha256.h ****                 uint8_t *p2 = (uint8_t *)&current[i];
 2200              		.loc 4 185 32 is_stmt 0 view .LVU806
 2201 0760 3EA8     		add	r0, sp, #248
 2202 0762 00EB8301 		add	r1, r0, r3, lsl #2
 2203              	.LVL202:
 186:Modules/include/MAVLink/common/../mavlink_sha256.h ****                 p2[0] = p1[3];
 2204              		.loc 4 186 17 is_stmt 1 view .LVU807
 186:Modules/include/MAVLink/common/../mavlink_sha256.h ****                 p2[0] = p1[3];
 2205              		.loc 4 186 26 is_stmt 0 view .LVU808
 2206 0766 22AC     		add	r4, sp, #136
 2207 0768 04EB8302 		add	r2, r4, r3, lsl #2
 2208              	.LVL203:
 187:Modules/include/MAVLink/common/../mavlink_sha256.h ****                 p2[1] = p1[2];
 2209              		.loc 4 187 17 is_stmt 1 view .LVU809
 187:Modules/include/MAVLink/common/../mavlink_sha256.h ****                 p2[1] = p1[2];
 2210              		.loc 4 187 23 is_stmt 0 view .LVU810
 2211 076c CD78     		ldrb	r5, [r1, #3]	@ zero_extendqisi2
 2212 076e 04F82350 		strb	r5, [r4, r3, lsl #2]
 188:Modules/include/MAVLink/common/../mavlink_sha256.h ****                 p2[2] = p1[1];
 2213              		.loc 4 188 17 is_stmt 1 view .LVU811
 188:Modules/include/MAVLink/common/../mavlink_sha256.h ****                 p2[2] = p1[1];
 2214              		.loc 4 188 23 is_stmt 0 view .LVU812
 2215 0772 8C78     		ldrb	r4, [r1, #2]	@ zero_extendqisi2
ARM GAS  C:\Users\luoha\AppData\Local\Temp\cctfed2n.s 			page 74


 2216 0774 5470     		strb	r4, [r2, #1]
 189:Modules/include/MAVLink/common/../mavlink_sha256.h ****                 p2[3] = p1[0];
 2217              		.loc 4 189 17 is_stmt 1 view .LVU813
 189:Modules/include/MAVLink/common/../mavlink_sha256.h ****                 p2[3] = p1[0];
 2218              		.loc 4 189 23 is_stmt 0 view .LVU814
 2219 0776 4978     		ldrb	r1, [r1, #1]	@ zero_extendqisi2
 2220              	.LVL204:
 189:Modules/include/MAVLink/common/../mavlink_sha256.h ****                 p2[3] = p1[0];
 2221              		.loc 4 189 23 view .LVU815
 2222 0778 9170     		strb	r1, [r2, #2]
 190:Modules/include/MAVLink/common/../mavlink_sha256.h **** 	    }
 2223              		.loc 4 190 17 is_stmt 1 view .LVU816
 190:Modules/include/MAVLink/common/../mavlink_sha256.h **** 	    }
 2224              		.loc 4 190 27 is_stmt 0 view .LVU817
 2225 077a 10F82310 		ldrb	r1, [r0, r3, lsl #2]	@ zero_extendqisi2
 190:Modules/include/MAVLink/common/../mavlink_sha256.h **** 	    }
 2226              		.loc 4 190 23 view .LVU818
 2227 077e D170     		strb	r1, [r2, #3]
 2228              	.LBE293:
 184:Modules/include/MAVLink/common/../mavlink_sha256.h ****                 const uint8_t *p1 = (const uint8_t *)&u[i];
 2229              		.loc 4 184 26 is_stmt 1 view .LVU819
 184:Modules/include/MAVLink/common/../mavlink_sha256.h ****                 const uint8_t *p1 = (const uint8_t *)&u[i];
 2230              		.loc 4 184 27 is_stmt 0 view .LVU820
 2231 0780 0133     		adds	r3, r3, #1
 2232              	.LVL205:
 184:Modules/include/MAVLink/common/../mavlink_sha256.h ****                 const uint8_t *p1 = (const uint8_t *)&u[i];
 2233              		.loc 4 184 27 view .LVU821
 2234 0782 EBE7     		b	.L68
 2235              	.LVL206:
 2236              	.L170:
 192:Modules/include/MAVLink/common/../mavlink_sha256.h **** 	    offset = 0;
 2237              		.loc 4 192 6 is_stmt 1 view .LVU822
 2238              	.LBB294:
 2239              	.LBI294:
 114:Modules/include/MAVLink/common/../mavlink_sha256.h **** {
 2240              		.loc 4 114 20 view .LVU823
 2241              	.LBB295:
 116:Modules/include/MAVLink/common/../mavlink_sha256.h ****     uint32_t data[64];
 2242              		.loc 4 116 5 view .LVU824
 117:Modules/include/MAVLink/common/../mavlink_sha256.h ****     int i;
 2243              		.loc 4 117 5 view .LVU825
 118:Modules/include/MAVLink/common/../mavlink_sha256.h **** 
 2244              		.loc 4 118 5 view .LVU826
 120:Modules/include/MAVLink/common/../mavlink_sha256.h ****     BB = B;
 2245              		.loc 4 120 5 view .LVU827
 120:Modules/include/MAVLink/common/../mavlink_sha256.h ****     BB = B;
 2246              		.loc 4 120 8 is_stmt 0 view .LVU828
 2247 0784 369B     		ldr	r3, [sp, #216]
 2248              	.LVL207:
 120:Modules/include/MAVLink/common/../mavlink_sha256.h ****     BB = B;
 2249              		.loc 4 120 8 view .LVU829
 2250 0786 0393     		str	r3, [sp, #12]
 2251              	.LVL208:
 121:Modules/include/MAVLink/common/../mavlink_sha256.h ****     CC = C;
 2252              		.loc 4 121 5 is_stmt 1 view .LVU830
 121:Modules/include/MAVLink/common/../mavlink_sha256.h ****     CC = C;
 2253              		.loc 4 121 8 is_stmt 0 view .LVU831
ARM GAS  C:\Users\luoha\AppData\Local\Temp\cctfed2n.s 			page 75


 2254 0788 379B     		ldr	r3, [sp, #220]
 2255              	.LVL209:
 121:Modules/include/MAVLink/common/../mavlink_sha256.h ****     CC = C;
 2256              		.loc 4 121 8 view .LVU832
 2257 078a 0493     		str	r3, [sp, #16]
 2258              	.LVL210:
 122:Modules/include/MAVLink/common/../mavlink_sha256.h ****     DD = D;
 2259              		.loc 4 122 5 is_stmt 1 view .LVU833
 122:Modules/include/MAVLink/common/../mavlink_sha256.h ****     DD = D;
 2260              		.loc 4 122 8 is_stmt 0 view .LVU834
 2261 078c 389B     		ldr	r3, [sp, #224]
 2262              	.LVL211:
 122:Modules/include/MAVLink/common/../mavlink_sha256.h ****     DD = D;
 2263              		.loc 4 122 8 view .LVU835
 2264 078e 0593     		str	r3, [sp, #20]
 2265              	.LVL212:
 123:Modules/include/MAVLink/common/../mavlink_sha256.h ****     EE = E;
 2266              		.loc 4 123 5 is_stmt 1 view .LVU836
 123:Modules/include/MAVLink/common/../mavlink_sha256.h ****     EE = E;
 2267              		.loc 4 123 8 is_stmt 0 view .LVU837
 2268 0790 399B     		ldr	r3, [sp, #228]
 2269              	.LVL213:
 123:Modules/include/MAVLink/common/../mavlink_sha256.h ****     EE = E;
 2270              		.loc 4 123 8 view .LVU838
 2271 0792 0693     		str	r3, [sp, #24]
 2272              	.LVL214:
 124:Modules/include/MAVLink/common/../mavlink_sha256.h ****     FF = F;
 2273              		.loc 4 124 5 is_stmt 1 view .LVU839
 124:Modules/include/MAVLink/common/../mavlink_sha256.h ****     FF = F;
 2274              		.loc 4 124 8 is_stmt 0 view .LVU840
 2275 0794 3A9B     		ldr	r3, [sp, #232]
 2276              	.LVL215:
 124:Modules/include/MAVLink/common/../mavlink_sha256.h ****     FF = F;
 2277              		.loc 4 124 8 view .LVU841
 2278 0796 0793     		str	r3, [sp, #28]
 2279              	.LVL216:
 125:Modules/include/MAVLink/common/../mavlink_sha256.h ****     GG = G;
 2280              		.loc 4 125 5 is_stmt 1 view .LVU842
 125:Modules/include/MAVLink/common/../mavlink_sha256.h ****     GG = G;
 2281              		.loc 4 125 8 is_stmt 0 view .LVU843
 2282 0798 3B9B     		ldr	r3, [sp, #236]
 2283              	.LVL217:
 125:Modules/include/MAVLink/common/../mavlink_sha256.h ****     GG = G;
 2284              		.loc 4 125 8 view .LVU844
 2285 079a 0893     		str	r3, [sp, #32]
 2286              	.LVL218:
 126:Modules/include/MAVLink/common/../mavlink_sha256.h ****     HH = H;
 2287              		.loc 4 126 5 is_stmt 1 view .LVU845
 126:Modules/include/MAVLink/common/../mavlink_sha256.h ****     HH = H;
 2288              		.loc 4 126 8 is_stmt 0 view .LVU846
 2289 079c 3C9B     		ldr	r3, [sp, #240]
 2290              	.LVL219:
 126:Modules/include/MAVLink/common/../mavlink_sha256.h ****     HH = H;
 2291              		.loc 4 126 8 view .LVU847
 2292 079e 0993     		str	r3, [sp, #36]
 2293              	.LVL220:
 127:Modules/include/MAVLink/common/../mavlink_sha256.h **** 
ARM GAS  C:\Users\luoha\AppData\Local\Temp\cctfed2n.s 			page 76


 2294              		.loc 4 127 5 is_stmt 1 view .LVU848
 127:Modules/include/MAVLink/common/../mavlink_sha256.h **** 
 2295              		.loc 4 127 8 is_stmt 0 view .LVU849
 2296 07a0 3D9B     		ldr	r3, [sp, #244]
 2297              	.LVL221:
 127:Modules/include/MAVLink/common/../mavlink_sha256.h **** 
 2298              		.loc 4 127 8 view .LVU850
 2299 07a2 0A93     		str	r3, [sp, #40]
 2300              	.LVL222:
 129:Modules/include/MAVLink/common/../mavlink_sha256.h **** 	data[i] = in[i];
 2301              		.loc 4 129 5 is_stmt 1 view .LVU851
 129:Modules/include/MAVLink/common/../mavlink_sha256.h **** 	data[i] = in[i];
 2302              		.loc 4 129 12 is_stmt 0 view .LVU852
 2303 07a4 0023     		movs	r3, #0
 2304              	.LVL223:
 2305              	.L71:
 129:Modules/include/MAVLink/common/../mavlink_sha256.h **** 	data[i] = in[i];
 2306              		.loc 4 129 17 is_stmt 1 view .LVU853
 129:Modules/include/MAVLink/common/../mavlink_sha256.h **** 	data[i] = in[i];
 2307              		.loc 4 129 5 is_stmt 0 view .LVU854
 2308 07a6 0F2B     		cmp	r3, #15
 2309 07a8 0ADC     		bgt	.L171
 130:Modules/include/MAVLink/common/../mavlink_sha256.h ****     for (i = 16; i < 64; ++i)
 2310              		.loc 4 130 2 is_stmt 1 view .LVU855
 130:Modules/include/MAVLink/common/../mavlink_sha256.h ****     for (i = 16; i < 64; ++i)
 2311              		.loc 4 130 14 is_stmt 0 view .LVU856
 2312 07aa 8EAA     		add	r2, sp, #568
 2313 07ac 02EB8302 		add	r2, r2, r3, lsl #2
 2314 07b0 A2F5D872 		sub	r2, r2, #432
 2315 07b4 1168     		ldr	r1, [r2]
 130:Modules/include/MAVLink/common/../mavlink_sha256.h ****     for (i = 16; i < 64; ++i)
 2316              		.loc 4 130 10 view .LVU857
 2317 07b6 4EAA     		add	r2, sp, #312
 2318 07b8 42F82310 		str	r1, [r2, r3, lsl #2]
 129:Modules/include/MAVLink/common/../mavlink_sha256.h **** 	data[i] = in[i];
 2319              		.loc 4 129 25 is_stmt 1 view .LVU858
 2320 07bc 0133     		adds	r3, r3, #1
 2321              	.LVL224:
 129:Modules/include/MAVLink/common/../mavlink_sha256.h **** 	data[i] = in[i];
 2322              		.loc 4 129 25 is_stmt 0 view .LVU859
 2323 07be F2E7     		b	.L71
 2324              	.L171:
 131:Modules/include/MAVLink/common/../mavlink_sha256.h **** 	data[i] = sigma1(data[i-2]) + data[i-7] + 
 2325              		.loc 4 131 12 view .LVU860
 2326 07c0 1022     		movs	r2, #16
 2327 07c2 20E0     		b	.L73
 2328              	.LVL225:
 2329              	.L74:
 132:Modules/include/MAVLink/common/../mavlink_sha256.h **** 	    sigma0(data[i-15]) + data[i - 16];
 2330              		.loc 4 132 2 is_stmt 1 view .LVU861
 132:Modules/include/MAVLink/common/../mavlink_sha256.h **** 	    sigma0(data[i-15]) + data[i - 16];
 2331              		.loc 4 132 12 is_stmt 0 view .LVU862
 2332 07c4 931E     		subs	r3, r2, #2
 2333 07c6 4EA9     		add	r1, sp, #312
 2334 07c8 51F82300 		ldr	r0, [r1, r3, lsl #2]
 2335 07cc 4FEAF043 		ror	r3, r0, #19
 2336 07d0 83EA7043 		eor	r3, r3, r0, ror #17
ARM GAS  C:\Users\luoha\AppData\Local\Temp\cctfed2n.s 			page 77


 2337 07d4 83EA9023 		eor	r3, r3, r0, lsr #10
 132:Modules/include/MAVLink/common/../mavlink_sha256.h **** 	    sigma0(data[i-15]) + data[i - 16];
 2338              		.loc 4 132 38 view .LVU863
 2339 07d8 D01F     		subs	r0, r2, #7
 132:Modules/include/MAVLink/common/../mavlink_sha256.h **** 	    sigma0(data[i-15]) + data[i - 16];
 2340              		.loc 4 132 36 view .LVU864
 2341 07da 51F82000 		ldr	r0, [r1, r0, lsl #2]
 132:Modules/include/MAVLink/common/../mavlink_sha256.h **** 	    sigma0(data[i-15]) + data[i - 16];
 2342              		.loc 4 132 30 view .LVU865
 2343 07de 0344     		add	r3, r3, r0
 133:Modules/include/MAVLink/common/../mavlink_sha256.h **** 
 2344              		.loc 4 133 6 view .LVU866
 2345 07e0 A2F10F00 		sub	r0, r2, #15
 2346 07e4 51F82040 		ldr	r4, [r1, r0, lsl #2]
 2347 07e8 4FEAB440 		ror	r0, r4, #18
 2348 07ec 80EAF410 		eor	r0, r0, r4, ror #7
 2349 07f0 80EAD400 		eor	r0, r0, r4, lsr #3
 132:Modules/include/MAVLink/common/../mavlink_sha256.h **** 	    sigma0(data[i-15]) + data[i - 16];
 2350              		.loc 4 132 42 view .LVU867
 2351 07f4 0344     		add	r3, r3, r0
 133:Modules/include/MAVLink/common/../mavlink_sha256.h **** 
 2352              		.loc 4 133 34 view .LVU868
 2353 07f6 A2F11000 		sub	r0, r2, #16
 133:Modules/include/MAVLink/common/../mavlink_sha256.h **** 
 2354              		.loc 4 133 31 view .LVU869
 2355 07fa 51F82000 		ldr	r0, [r1, r0, lsl #2]
 133:Modules/include/MAVLink/common/../mavlink_sha256.h **** 
 2356              		.loc 4 133 25 view .LVU870
 2357 07fe 0344     		add	r3, r3, r0
 132:Modules/include/MAVLink/common/../mavlink_sha256.h **** 	    sigma0(data[i-15]) + data[i - 16];
 2358              		.loc 4 132 10 view .LVU871
 2359 0800 41F82230 		str	r3, [r1, r2, lsl #2]
 131:Modules/include/MAVLink/common/../mavlink_sha256.h **** 	data[i] = sigma1(data[i-2]) + data[i-7] + 
 2360              		.loc 4 131 26 is_stmt 1 view .LVU872
 2361 0804 0132     		adds	r2, r2, #1
 2362              	.LVL226:
 2363              	.L73:
 131:Modules/include/MAVLink/common/../mavlink_sha256.h **** 	data[i] = sigma1(data[i-2]) + data[i-7] + 
 2364              		.loc 4 131 18 view .LVU873
 131:Modules/include/MAVLink/common/../mavlink_sha256.h **** 	data[i] = sigma1(data[i-2]) + data[i-7] + 
 2365              		.loc 4 131 5 is_stmt 0 view .LVU874
 2366 0806 3F2A     		cmp	r2, #63
 2367 0808 DCDD     		ble	.L74
 127:Modules/include/MAVLink/common/../mavlink_sha256.h **** 
 2368              		.loc 4 127 8 view .LVU875
 2369 080a DDF82890 		ldr	r9, [sp, #40]
 126:Modules/include/MAVLink/common/../mavlink_sha256.h ****     HH = H;
 2370              		.loc 4 126 8 view .LVU876
 2371 080e DDF824C0 		ldr	ip, [sp, #36]
 125:Modules/include/MAVLink/common/../mavlink_sha256.h ****     GG = G;
 2372              		.loc 4 125 8 view .LVU877
 2373 0812 DDF820E0 		ldr	lr, [sp, #32]
 124:Modules/include/MAVLink/common/../mavlink_sha256.h ****     FF = F;
 2374              		.loc 4 124 8 view .LVU878
 2375 0816 0799     		ldr	r1, [sp, #28]
 123:Modules/include/MAVLink/common/../mavlink_sha256.h ****     EE = E;
 2376              		.loc 4 123 8 view .LVU879
ARM GAS  C:\Users\luoha\AppData\Local\Temp\cctfed2n.s 			page 78


 2377 0818 DDF81880 		ldr	r8, [sp, #24]
 122:Modules/include/MAVLink/common/../mavlink_sha256.h ****     DD = D;
 2378              		.loc 4 122 8 view .LVU880
 2379 081c 059E     		ldr	r6, [sp, #20]
 121:Modules/include/MAVLink/common/../mavlink_sha256.h ****     CC = C;
 2380              		.loc 4 121 8 view .LVU881
 2381 081e 049F     		ldr	r7, [sp, #16]
 120:Modules/include/MAVLink/common/../mavlink_sha256.h ****     BB = B;
 2382              		.loc 4 120 8 view .LVU882
 2383 0820 0398     		ldr	r0, [sp, #12]
 135:Modules/include/MAVLink/common/../mavlink_sha256.h **** 	uint32_t T1, T2;
 2384              		.loc 4 135 12 view .LVU883
 2385 0822 0025     		movs	r5, #0
 2386              	.LVL227:
 2387              	.L75:
 135:Modules/include/MAVLink/common/../mavlink_sha256.h **** 	uint32_t T1, T2;
 2388              		.loc 4 135 17 is_stmt 1 view .LVU884
 135:Modules/include/MAVLink/common/../mavlink_sha256.h **** 	uint32_t T1, T2;
 2389              		.loc 4 135 5 is_stmt 0 view .LVU885
 2390 0824 3F2D     		cmp	r5, #63
 2391 0826 2DDC     		bgt	.L172
 2392              	.LBB296:
 136:Modules/include/MAVLink/common/../mavlink_sha256.h **** 
 2393              		.loc 4 136 2 is_stmt 1 view .LVU886
 138:Modules/include/MAVLink/common/../mavlink_sha256.h **** 	T2 = Sigma0(AA) + Maj(AA,BB,CC);
 2394              		.loc 4 138 2 view .LVU887
 138:Modules/include/MAVLink/common/../mavlink_sha256.h **** 	T2 = Sigma0(AA) + Maj(AA,BB,CC);
 2395              		.loc 4 138 12 is_stmt 0 view .LVU888
 2396 0828 4FEAF123 		ror	r3, r1, #11
 2397 082c 83EAB113 		eor	r3, r3, r1, ror #6
 2398 0830 83EA7163 		eor	r3, r3, r1, ror #25
 138:Modules/include/MAVLink/common/../mavlink_sha256.h **** 	T2 = Sigma0(AA) + Maj(AA,BB,CC);
 2399              		.loc 4 138 10 view .LVU889
 2400 0834 4B44     		add	r3, r3, r9
 138:Modules/include/MAVLink/common/../mavlink_sha256.h **** 	T2 = Sigma0(AA) + Maj(AA,BB,CC);
 2401              		.loc 4 138 25 view .LVU890
 2402 0836 01EA0E02 		and	r2, r1, lr
 2403 083a 2CEA0104 		bic	r4, ip, r1
 2404 083e 6240     		eors	r2, r2, r4
 138:Modules/include/MAVLink/common/../mavlink_sha256.h **** 	T2 = Sigma0(AA) + Maj(AA,BB,CC);
 2405              		.loc 4 138 23 view .LVU891
 2406 0840 1344     		add	r3, r3, r2
 138:Modules/include/MAVLink/common/../mavlink_sha256.h **** 	T2 = Sigma0(AA) + Maj(AA,BB,CC);
 2407              		.loc 4 138 69 view .LVU892
 2408 0842 404A     		ldr	r2, .L192
 2409 0844 52F82520 		ldr	r2, [r2, r5, lsl #2]
 138:Modules/include/MAVLink/common/../mavlink_sha256.h **** 	T2 = Sigma0(AA) + Maj(AA,BB,CC);
 2410              		.loc 4 138 40 view .LVU893
 2411 0848 1344     		add	r3, r3, r2
 138:Modules/include/MAVLink/common/../mavlink_sha256.h **** 	T2 = Sigma0(AA) + Maj(AA,BB,CC);
 2412              		.loc 4 138 79 view .LVU894
 2413 084a 4EAA     		add	r2, sp, #312
 2414 084c 52F82520 		ldr	r2, [r2, r5, lsl #2]
 138:Modules/include/MAVLink/common/../mavlink_sha256.h **** 	T2 = Sigma0(AA) + Maj(AA,BB,CC);
 2415              		.loc 4 138 5 view .LVU895
 2416 0850 1344     		add	r3, r3, r2
 2417              	.LVL228:
ARM GAS  C:\Users\luoha\AppData\Local\Temp\cctfed2n.s 			page 79


 139:Modules/include/MAVLink/common/../mavlink_sha256.h **** 			     
 2418              		.loc 4 139 2 is_stmt 1 view .LVU896
 139:Modules/include/MAVLink/common/../mavlink_sha256.h **** 			     
 2419              		.loc 4 139 7 is_stmt 0 view .LVU897
 2420 0852 4FEA7032 		ror	r2, r0, #13
 2421 0856 82EAB002 		eor	r2, r2, r0, ror #2
 2422 085a 82EAB052 		eor	r2, r2, r0, ror #22
 139:Modules/include/MAVLink/common/../mavlink_sha256.h **** 			     
 2423              		.loc 4 139 20 view .LVU898
 2424 085e 87EA0604 		eor	r4, r7, r6
 2425 0862 0440     		ands	r4, r4, r0
 2426 0864 07EA0609 		and	r9, r7, r6
 2427              	.LVL229:
 139:Modules/include/MAVLink/common/../mavlink_sha256.h **** 			     
 2428              		.loc 4 139 20 view .LVU899
 2429 0868 84EA0904 		eor	r4, r4, r9
 139:Modules/include/MAVLink/common/../mavlink_sha256.h **** 			     
 2430              		.loc 4 139 5 view .LVU900
 2431 086c 2244     		add	r2, r2, r4
 2432              	.LVL230:
 141:Modules/include/MAVLink/common/../mavlink_sha256.h **** 	GG = FF;
 2433              		.loc 4 141 2 is_stmt 1 view .LVU901
 142:Modules/include/MAVLink/common/../mavlink_sha256.h **** 	FF = EE;
 2434              		.loc 4 142 2 view .LVU902
 143:Modules/include/MAVLink/common/../mavlink_sha256.h **** 	EE = DD + T1;
 2435              		.loc 4 143 2 view .LVU903
 144:Modules/include/MAVLink/common/../mavlink_sha256.h **** 	DD = CC;
 2436              		.loc 4 144 2 view .LVU904
 145:Modules/include/MAVLink/common/../mavlink_sha256.h **** 	CC = BB;
 2437              		.loc 4 145 2 view .LVU905
 146:Modules/include/MAVLink/common/../mavlink_sha256.h **** 	BB = AA;
 2438              		.loc 4 146 2 view .LVU906
 147:Modules/include/MAVLink/common/../mavlink_sha256.h **** 	AA = T1 + T2;
 2439              		.loc 4 147 2 view .LVU907
 148:Modules/include/MAVLink/common/../mavlink_sha256.h ****     }
 2440              		.loc 4 148 2 view .LVU908
 148:Modules/include/MAVLink/common/../mavlink_sha256.h ****     }
 2441              		.loc 4 148 2 is_stmt 0 view .LVU909
 2442              	.LBE296:
 135:Modules/include/MAVLink/common/../mavlink_sha256.h **** 	uint32_t T1, T2;
 2443              		.loc 4 135 25 is_stmt 1 view .LVU910
 135:Modules/include/MAVLink/common/../mavlink_sha256.h **** 	uint32_t T1, T2;
 2444              		.loc 4 135 26 is_stmt 0 view .LVU911
 2445 086e 0135     		adds	r5, r5, #1
 2446              	.LVL231:
 2447              	.LBB297:
 141:Modules/include/MAVLink/common/../mavlink_sha256.h **** 	GG = FF;
 2448              		.loc 4 141 5 view .LVU912
 2449 0870 E146     		mov	r9, ip
 142:Modules/include/MAVLink/common/../mavlink_sha256.h **** 	FF = EE;
 2450              		.loc 4 142 5 view .LVU913
 2451 0872 F446     		mov	ip, lr
 2452              	.LVL232:
 143:Modules/include/MAVLink/common/../mavlink_sha256.h **** 	EE = DD + T1;
 2453              		.loc 4 143 5 view .LVU914
 2454 0874 8E46     		mov	lr, r1
 2455              	.LVL233:
ARM GAS  C:\Users\luoha\AppData\Local\Temp\cctfed2n.s 			page 80


 144:Modules/include/MAVLink/common/../mavlink_sha256.h **** 	DD = CC;
 2456              		.loc 4 144 5 view .LVU915
 2457 0876 03EB0801 		add	r1, r3, r8
 2458              	.LVL234:
 145:Modules/include/MAVLink/common/../mavlink_sha256.h **** 	CC = BB;
 2459              		.loc 4 145 5 view .LVU916
 2460 087a B046     		mov	r8, r6
 146:Modules/include/MAVLink/common/../mavlink_sha256.h **** 	BB = AA;
 2461              		.loc 4 146 5 view .LVU917
 2462 087c 3E46     		mov	r6, r7
 2463              	.LVL235:
 147:Modules/include/MAVLink/common/../mavlink_sha256.h **** 	AA = T1 + T2;
 2464              		.loc 4 147 5 view .LVU918
 2465 087e 0746     		mov	r7, r0
 2466              	.LVL236:
 148:Modules/include/MAVLink/common/../mavlink_sha256.h ****     }
 2467              		.loc 4 148 5 view .LVU919
 2468 0880 9818     		adds	r0, r3, r2
 2469              	.LVL237:
 148:Modules/include/MAVLink/common/../mavlink_sha256.h ****     }
 2470              		.loc 4 148 5 view .LVU920
 2471 0882 CFE7     		b	.L75
 2472              	.LVL238:
 2473              	.L172:
 148:Modules/include/MAVLink/common/../mavlink_sha256.h ****     }
 2474              		.loc 4 148 5 view .LVU921
 2475              	.LBE297:
 151:Modules/include/MAVLink/common/../mavlink_sha256.h ****     B += BB;
 2476              		.loc 4 151 5 is_stmt 1 view .LVU922
 151:Modules/include/MAVLink/common/../mavlink_sha256.h ****     B += BB;
 2477              		.loc 4 151 7 is_stmt 0 view .LVU923
 2478 0884 039B     		ldr	r3, [sp, #12]
 2479 0886 0344     		add	r3, r3, r0
 2480 0888 3693     		str	r3, [sp, #216]
 152:Modules/include/MAVLink/common/../mavlink_sha256.h ****     C += CC;
 2481              		.loc 4 152 5 is_stmt 1 view .LVU924
 152:Modules/include/MAVLink/common/../mavlink_sha256.h ****     C += CC;
 2482              		.loc 4 152 7 is_stmt 0 view .LVU925
 2483 088a 049B     		ldr	r3, [sp, #16]
 2484 088c 3B44     		add	r3, r3, r7
 2485 088e 3793     		str	r3, [sp, #220]
 153:Modules/include/MAVLink/common/../mavlink_sha256.h ****     D += DD;
 2486              		.loc 4 153 5 is_stmt 1 view .LVU926
 153:Modules/include/MAVLink/common/../mavlink_sha256.h ****     D += DD;
 2487              		.loc 4 153 7 is_stmt 0 view .LVU927
 2488 0890 059B     		ldr	r3, [sp, #20]
 2489 0892 3344     		add	r3, r3, r6
 2490 0894 3893     		str	r3, [sp, #224]
 154:Modules/include/MAVLink/common/../mavlink_sha256.h ****     E += EE;
 2491              		.loc 4 154 5 is_stmt 1 view .LVU928
 154:Modules/include/MAVLink/common/../mavlink_sha256.h ****     E += EE;
 2492              		.loc 4 154 7 is_stmt 0 view .LVU929
 2493 0896 069B     		ldr	r3, [sp, #24]
 2494 0898 4344     		add	r3, r3, r8
 2495 089a 3993     		str	r3, [sp, #228]
 155:Modules/include/MAVLink/common/../mavlink_sha256.h ****     F += FF;
 2496              		.loc 4 155 5 is_stmt 1 view .LVU930
ARM GAS  C:\Users\luoha\AppData\Local\Temp\cctfed2n.s 			page 81


 155:Modules/include/MAVLink/common/../mavlink_sha256.h ****     F += FF;
 2497              		.loc 4 155 7 is_stmt 0 view .LVU931
 2498 089c 079B     		ldr	r3, [sp, #28]
 2499 089e 0B44     		add	r3, r3, r1
 2500 08a0 3A93     		str	r3, [sp, #232]
 156:Modules/include/MAVLink/common/../mavlink_sha256.h ****     G += GG;
 2501              		.loc 4 156 5 is_stmt 1 view .LVU932
 156:Modules/include/MAVLink/common/../mavlink_sha256.h ****     G += GG;
 2502              		.loc 4 156 7 is_stmt 0 view .LVU933
 2503 08a2 089B     		ldr	r3, [sp, #32]
 2504 08a4 7344     		add	r3, r3, lr
 2505 08a6 3B93     		str	r3, [sp, #236]
 157:Modules/include/MAVLink/common/../mavlink_sha256.h ****     H += HH;
 2506              		.loc 4 157 5 is_stmt 1 view .LVU934
 157:Modules/include/MAVLink/common/../mavlink_sha256.h ****     H += HH;
 2507              		.loc 4 157 7 is_stmt 0 view .LVU935
 2508 08a8 099B     		ldr	r3, [sp, #36]
 2509 08aa 6344     		add	r3, r3, ip
 2510 08ac 3C93     		str	r3, [sp, #240]
 158:Modules/include/MAVLink/common/../mavlink_sha256.h **** }
 2511              		.loc 4 158 5 is_stmt 1 view .LVU936
 158:Modules/include/MAVLink/common/../mavlink_sha256.h **** }
 2512              		.loc 4 158 7 is_stmt 0 view .LVU937
 2513 08ae 0A9B     		ldr	r3, [sp, #40]
 2514 08b0 4B44     		add	r3, r3, r9
 2515 08b2 3D93     		str	r3, [sp, #244]
 2516              	.LVL239:
 158:Modules/include/MAVLink/common/../mavlink_sha256.h **** }
 2517              		.loc 4 158 7 view .LVU938
 2518              	.LBE295:
 2519              	.LBE294:
 2520              		.loc 4 193 6 is_stmt 1 view .LVU939
 2521              		.loc 4 193 13 is_stmt 0 view .LVU940
 2522 08b4 0B9D     		ldr	r5, [sp, #44]
 2523 08b6 46E7     		b	.L66
 2524              	.LVL240:
 2525              	.L169:
 2526              		.loc 4 193 13 view .LVU941
 2527 08b8 DDF834B0 		ldr	fp, [sp, #52]
 2528              	.LVL241:
 2529              		.loc 4 193 13 view .LVU942
 2530 08bc CDF80CA0 		str	r10, [sp, #12]
 2531 08c0 DDF838A0 		ldr	r10, [sp, #56]
 2532              	.LVL242:
 2533              		.loc 4 193 13 view .LVU943
 2534              	.LBE292:
 2535              	.LBE298:
 2536              	.LBE290:
 2537              	.LBE289:
 137:Modules/include/MAVLink/common/../mavlink_helpers.h **** 	mavlink_sha256_update(&ctx, psig, 1+6);
 2538              		.loc 2 137 2 is_stmt 1 view .LVU944
 2539              	.LBB299:
 2540              	.LBI299:
 161:Modules/include/MAVLink/common/../mavlink_sha256.h **** {
 2541              		.loc 4 161 21 view .LVU945
 2542              	.LBB300:
 163:Modules/include/MAVLink/common/../mavlink_sha256.h ****     uint32_t old_sz = m->sz[0];
ARM GAS  C:\Users\luoha\AppData\Local\Temp\cctfed2n.s 			page 82


 2543              		.loc 4 163 5 view .LVU946
 164:Modules/include/MAVLink/common/../mavlink_sha256.h ****     uint32_t offset;
 2544              		.loc 4 164 5 view .LVU947
 164:Modules/include/MAVLink/common/../mavlink_sha256.h ****     uint32_t offset;
 2545              		.loc 4 164 14 is_stmt 0 view .LVU948
 2546 08c4 349D     		ldr	r5, [sp, #208]
 2547              	.LVL243:
 165:Modules/include/MAVLink/common/../mavlink_sha256.h **** 
 2548              		.loc 4 165 5 is_stmt 1 view .LVU949
 167:Modules/include/MAVLink/common/../mavlink_sha256.h ****     if (m->sz[0] < old_sz)
 2549              		.loc 4 167 5 view .LVU950
 167:Modules/include/MAVLink/common/../mavlink_sha256.h ****     if (m->sz[0] < old_sz)
 2550              		.loc 4 167 14 is_stmt 0 view .LVU951
 2551 08c6 05F11003 		add	r3, r5, #16
 2552 08ca 3493     		str	r3, [sp, #208]
 168:Modules/include/MAVLink/common/../mavlink_sha256.h **** 	++m->sz[1];
 2553              		.loc 4 168 5 is_stmt 1 view .LVU952
 168:Modules/include/MAVLink/common/../mavlink_sha256.h **** 	++m->sz[1];
 2554              		.loc 4 168 8 is_stmt 0 view .LVU953
 2555 08cc 9D42     		cmp	r5, r3
 2556 08ce 02D9     		bls	.L78
 169:Modules/include/MAVLink/common/../mavlink_sha256.h ****     offset = (old_sz / 8) % 64;
 2557              		.loc 4 169 2 is_stmt 1 view .LVU954
 169:Modules/include/MAVLink/common/../mavlink_sha256.h ****     offset = (old_sz / 8) % 64;
 2558              		.loc 4 169 9 is_stmt 0 view .LVU955
 2559 08d0 359B     		ldr	r3, [sp, #212]
 169:Modules/include/MAVLink/common/../mavlink_sha256.h ****     offset = (old_sz / 8) % 64;
 2560              		.loc 4 169 2 view .LVU956
 2561 08d2 0133     		adds	r3, r3, #1
 2562 08d4 3593     		str	r3, [sp, #212]
 2563              	.L78:
 170:Modules/include/MAVLink/common/../mavlink_sha256.h ****     while(len > 0){
 2564              		.loc 4 170 5 is_stmt 1 view .LVU957
 170:Modules/include/MAVLink/common/../mavlink_sha256.h ****     while(len > 0){
 2565              		.loc 4 170 12 is_stmt 0 view .LVU958
 2566 08d6 C5F3C505 		ubfx	r5, r5, #3, #6
 2567              	.LVL244:
 171:Modules/include/MAVLink/common/../mavlink_sha256.h **** 	uint32_t l = 64 - offset;
 2568              		.loc 4 171 5 is_stmt 1 view .LVU959
 163:Modules/include/MAVLink/common/../mavlink_sha256.h ****     uint32_t old_sz = m->sz[0];
 2569              		.loc 4 163 26 is_stmt 0 view .LVU960
 2570 08da 1D4B     		ldr	r3, .L192+12
 171:Modules/include/MAVLink/common/../mavlink_sha256.h **** 	uint32_t l = 64 - offset;
 2571              		.loc 4 171 10 view .LVU961
 2572 08dc 0222     		movs	r2, #2
 2573 08de CDF834B0 		str	fp, [sp, #52]
 2574 08e2 CDF838A0 		str	r10, [sp, #56]
 2575 08e6 9246     		mov	r10, r2
 2576 08e8 9B46     		mov	fp, r3
 2577 08ea 0BE0     		b	.L79
 2578              	.LVL245:
 2579              	.L80:
 2580              	.LBB301:
 176:Modules/include/MAVLink/common/../mavlink_sha256.h **** 	offset += l;
 2581              		.loc 4 176 2 is_stmt 1 view .LVU962
 2582 08ec 2246     		mov	r2, r4
 2583 08ee 5946     		mov	r1, fp
ARM GAS  C:\Users\luoha\AppData\Local\Temp\cctfed2n.s 			page 83


 2584 08f0 3EAB     		add	r3, sp, #248
 2585 08f2 5819     		adds	r0, r3, r5
 2586 08f4 FFF7FEFF 		bl	memcpy
 2587              	.LVL246:
 177:Modules/include/MAVLink/common/../mavlink_sha256.h **** 	p += l;
 2588              		.loc 4 177 2 view .LVU963
 177:Modules/include/MAVLink/common/../mavlink_sha256.h **** 	p += l;
 2589              		.loc 4 177 9 is_stmt 0 view .LVU964
 2590 08f8 2544     		add	r5, r5, r4
 2591              	.LVL247:
 178:Modules/include/MAVLink/common/../mavlink_sha256.h **** 	len -= l;
 2592              		.loc 4 178 2 is_stmt 1 view .LVU965
 178:Modules/include/MAVLink/common/../mavlink_sha256.h **** 	len -= l;
 2593              		.loc 4 178 4 is_stmt 0 view .LVU966
 2594 08fa A344     		add	fp, fp, r4
 2595              	.LVL248:
 179:Modules/include/MAVLink/common/../mavlink_sha256.h **** 	if(offset == 64){
 2596              		.loc 4 179 2 is_stmt 1 view .LVU967
 179:Modules/include/MAVLink/common/../mavlink_sha256.h **** 	if(offset == 64){
 2597              		.loc 4 179 6 is_stmt 0 view .LVU968
 2598 08fc AAEB040A 		sub	r10, r10, r4
 2599              	.LVL249:
 180:Modules/include/MAVLink/common/../mavlink_sha256.h **** 	    int i;
 2600              		.loc 4 180 2 is_stmt 1 view .LVU969
 180:Modules/include/MAVLink/common/../mavlink_sha256.h **** 	    int i;
 2601              		.loc 4 180 4 is_stmt 0 view .LVU970
 2602 0900 402D     		cmp	r5, #64
 2603 0902 09D0     		beq	.L173
 2604              	.LVL250:
 2605              	.L79:
 180:Modules/include/MAVLink/common/../mavlink_sha256.h **** 	    int i;
 2606              		.loc 4 180 4 view .LVU971
 2607              	.LBE301:
 171:Modules/include/MAVLink/common/../mavlink_sha256.h **** 	uint32_t l = 64 - offset;
 2608              		.loc 4 171 10 is_stmt 1 view .LVU972
 2609 0904 BAF1000F 		cmp	r10, #0
 2610 0908 00F0BE80 		beq	.L174
 2611              	.LBB308:
 172:Modules/include/MAVLink/common/../mavlink_sha256.h ****         if (len < l) {
 2612              		.loc 4 172 2 view .LVU973
 172:Modules/include/MAVLink/common/../mavlink_sha256.h ****         if (len < l) {
 2613              		.loc 4 172 11 is_stmt 0 view .LVU974
 2614 090c C5F14004 		rsb	r4, r5, #64
 2615              	.LVL251:
 173:Modules/include/MAVLink/common/../mavlink_sha256.h ****             l = len;
 2616              		.loc 4 173 9 is_stmt 1 view .LVU975
 173:Modules/include/MAVLink/common/../mavlink_sha256.h ****             l = len;
 2617              		.loc 4 173 12 is_stmt 0 view .LVU976
 2618 0910 5445     		cmp	r4, r10
 2619 0912 EBD9     		bls	.L80
 174:Modules/include/MAVLink/common/../mavlink_sha256.h ****         }
 2620              		.loc 4 174 15 view .LVU977
 2621 0914 5446     		mov	r4, r10
 2622              	.LVL252:
 174:Modules/include/MAVLink/common/../mavlink_sha256.h ****         }
 2623              		.loc 4 174 15 view .LVU978
 2624 0916 E9E7     		b	.L80
ARM GAS  C:\Users\luoha\AppData\Local\Temp\cctfed2n.s 			page 84


 2625              	.LVL253:
 2626              	.L173:
 2627              	.LBB302:
 184:Modules/include/MAVLink/common/../mavlink_sha256.h ****                 const uint8_t *p1 = (const uint8_t *)&u[i];
 2628              		.loc 4 184 13 view .LVU979
 2629 0918 0023     		movs	r3, #0
 2630              	.LVL254:
 2631              	.L81:
 184:Modules/include/MAVLink/common/../mavlink_sha256.h ****                 const uint8_t *p1 = (const uint8_t *)&u[i];
 2632              		.loc 4 184 18 is_stmt 1 view .LVU980
 184:Modules/include/MAVLink/common/../mavlink_sha256.h ****                 const uint8_t *p1 = (const uint8_t *)&u[i];
 2633              		.loc 4 184 6 is_stmt 0 view .LVU981
 2634 091a 0F2B     		cmp	r3, #15
 2635 091c 1ADC     		bgt	.L175
 2636              	.LBB303:
 185:Modules/include/MAVLink/common/../mavlink_sha256.h ****                 uint8_t *p2 = (uint8_t *)&current[i];
 2637              		.loc 4 185 17 is_stmt 1 view .LVU982
 185:Modules/include/MAVLink/common/../mavlink_sha256.h ****                 uint8_t *p2 = (uint8_t *)&current[i];
 2638              		.loc 4 185 32 is_stmt 0 view .LVU983
 2639 091e 3EA8     		add	r0, sp, #248
 2640 0920 00EB8301 		add	r1, r0, r3, lsl #2
 2641              	.LVL255:
 186:Modules/include/MAVLink/common/../mavlink_sha256.h ****                 p2[0] = p1[3];
 2642              		.loc 4 186 17 is_stmt 1 view .LVU984
 186:Modules/include/MAVLink/common/../mavlink_sha256.h ****                 p2[0] = p1[3];
 2643              		.loc 4 186 26 is_stmt 0 view .LVU985
 2644 0924 22AC     		add	r4, sp, #136
 2645 0926 04EB8302 		add	r2, r4, r3, lsl #2
 2646              	.LVL256:
 187:Modules/include/MAVLink/common/../mavlink_sha256.h ****                 p2[1] = p1[2];
 2647              		.loc 4 187 17 is_stmt 1 view .LVU986
 187:Modules/include/MAVLink/common/../mavlink_sha256.h ****                 p2[1] = p1[2];
 2648              		.loc 4 187 23 is_stmt 0 view .LVU987
 2649 092a CD78     		ldrb	r5, [r1, #3]	@ zero_extendqisi2
 2650 092c 04F82350 		strb	r5, [r4, r3, lsl #2]
 188:Modules/include/MAVLink/common/../mavlink_sha256.h ****                 p2[2] = p1[1];
 2651              		.loc 4 188 17 is_stmt 1 view .LVU988
 188:Modules/include/MAVLink/common/../mavlink_sha256.h ****                 p2[2] = p1[1];
 2652              		.loc 4 188 23 is_stmt 0 view .LVU989
 2653 0930 8C78     		ldrb	r4, [r1, #2]	@ zero_extendqisi2
 2654 0932 5470     		strb	r4, [r2, #1]
 189:Modules/include/MAVLink/common/../mavlink_sha256.h ****                 p2[3] = p1[0];
 2655              		.loc 4 189 17 is_stmt 1 view .LVU990
 189:Modules/include/MAVLink/common/../mavlink_sha256.h ****                 p2[3] = p1[0];
 2656              		.loc 4 189 23 is_stmt 0 view .LVU991
 2657 0934 4978     		ldrb	r1, [r1, #1]	@ zero_extendqisi2
 2658              	.LVL257:
 189:Modules/include/MAVLink/common/../mavlink_sha256.h ****                 p2[3] = p1[0];
 2659              		.loc 4 189 23 view .LVU992
 2660 0936 9170     		strb	r1, [r2, #2]
 190:Modules/include/MAVLink/common/../mavlink_sha256.h **** 	    }
 2661              		.loc 4 190 17 is_stmt 1 view .LVU993
 190:Modules/include/MAVLink/common/../mavlink_sha256.h **** 	    }
 2662              		.loc 4 190 27 is_stmt 0 view .LVU994
 2663 0938 10F82310 		ldrb	r1, [r0, r3, lsl #2]	@ zero_extendqisi2
 190:Modules/include/MAVLink/common/../mavlink_sha256.h **** 	    }
 2664              		.loc 4 190 23 view .LVU995
ARM GAS  C:\Users\luoha\AppData\Local\Temp\cctfed2n.s 			page 85


 2665 093c D170     		strb	r1, [r2, #3]
 2666              	.LBE303:
 184:Modules/include/MAVLink/common/../mavlink_sha256.h ****                 const uint8_t *p1 = (const uint8_t *)&u[i];
 2667              		.loc 4 184 26 is_stmt 1 view .LVU996
 184:Modules/include/MAVLink/common/../mavlink_sha256.h ****                 const uint8_t *p1 = (const uint8_t *)&u[i];
 2668              		.loc 4 184 27 is_stmt 0 view .LVU997
 2669 093e 0133     		adds	r3, r3, #1
 2670              	.LVL258:
 184:Modules/include/MAVLink/common/../mavlink_sha256.h ****                 const uint8_t *p1 = (const uint8_t *)&u[i];
 2671              		.loc 4 184 27 view .LVU998
 2672 0940 EBE7     		b	.L81
 2673              	.L193:
 2674 0942 00BF     		.align	2
 2675              	.L192:
 2676 0944 00000000 		.word	.LANCHOR5
 2677 0948 00000000 		.word	.LANCHOR1
 2678 094c 02000000 		.word	.LANCHOR1+2
 2679 0950 14010000 		.word	.LANCHOR1+276
 2680              	.LVL259:
 2681              	.L175:
 192:Modules/include/MAVLink/common/../mavlink_sha256.h **** 	    offset = 0;
 2682              		.loc 4 192 6 is_stmt 1 view .LVU999
 2683              	.LBB304:
 2684              	.LBI304:
 114:Modules/include/MAVLink/common/../mavlink_sha256.h **** {
 2685              		.loc 4 114 20 view .LVU1000
 2686              	.LBB305:
 116:Modules/include/MAVLink/common/../mavlink_sha256.h ****     uint32_t data[64];
 2687              		.loc 4 116 5 view .LVU1001
 117:Modules/include/MAVLink/common/../mavlink_sha256.h ****     int i;
 2688              		.loc 4 117 5 view .LVU1002
 118:Modules/include/MAVLink/common/../mavlink_sha256.h **** 
 2689              		.loc 4 118 5 view .LVU1003
 120:Modules/include/MAVLink/common/../mavlink_sha256.h ****     BB = B;
 2690              		.loc 4 120 5 view .LVU1004
 120:Modules/include/MAVLink/common/../mavlink_sha256.h ****     BB = B;
 2691              		.loc 4 120 8 is_stmt 0 view .LVU1005
 2692 0954 369B     		ldr	r3, [sp, #216]
 2693              	.LVL260:
 120:Modules/include/MAVLink/common/../mavlink_sha256.h ****     BB = B;
 2694              		.loc 4 120 8 view .LVU1006
 2695 0956 0493     		str	r3, [sp, #16]
 2696              	.LVL261:
 121:Modules/include/MAVLink/common/../mavlink_sha256.h ****     CC = C;
 2697              		.loc 4 121 5 is_stmt 1 view .LVU1007
 121:Modules/include/MAVLink/common/../mavlink_sha256.h ****     CC = C;
 2698              		.loc 4 121 8 is_stmt 0 view .LVU1008
 2699 0958 379B     		ldr	r3, [sp, #220]
 2700              	.LVL262:
 121:Modules/include/MAVLink/common/../mavlink_sha256.h ****     CC = C;
 2701              		.loc 4 121 8 view .LVU1009
 2702 095a 0593     		str	r3, [sp, #20]
 2703              	.LVL263:
 122:Modules/include/MAVLink/common/../mavlink_sha256.h ****     DD = D;
 2704              		.loc 4 122 5 is_stmt 1 view .LVU1010
 122:Modules/include/MAVLink/common/../mavlink_sha256.h ****     DD = D;
 2705              		.loc 4 122 8 is_stmt 0 view .LVU1011
ARM GAS  C:\Users\luoha\AppData\Local\Temp\cctfed2n.s 			page 86


 2706 095c 389B     		ldr	r3, [sp, #224]
 2707              	.LVL264:
 122:Modules/include/MAVLink/common/../mavlink_sha256.h ****     DD = D;
 2708              		.loc 4 122 8 view .LVU1012
 2709 095e 0693     		str	r3, [sp, #24]
 2710              	.LVL265:
 123:Modules/include/MAVLink/common/../mavlink_sha256.h ****     EE = E;
 2711              		.loc 4 123 5 is_stmt 1 view .LVU1013
 123:Modules/include/MAVLink/common/../mavlink_sha256.h ****     EE = E;
 2712              		.loc 4 123 8 is_stmt 0 view .LVU1014
 2713 0960 399B     		ldr	r3, [sp, #228]
 2714              	.LVL266:
 123:Modules/include/MAVLink/common/../mavlink_sha256.h ****     EE = E;
 2715              		.loc 4 123 8 view .LVU1015
 2716 0962 0793     		str	r3, [sp, #28]
 2717              	.LVL267:
 124:Modules/include/MAVLink/common/../mavlink_sha256.h ****     FF = F;
 2718              		.loc 4 124 5 is_stmt 1 view .LVU1016
 124:Modules/include/MAVLink/common/../mavlink_sha256.h ****     FF = F;
 2719              		.loc 4 124 8 is_stmt 0 view .LVU1017
 2720 0964 3A9B     		ldr	r3, [sp, #232]
 2721              	.LVL268:
 124:Modules/include/MAVLink/common/../mavlink_sha256.h ****     FF = F;
 2722              		.loc 4 124 8 view .LVU1018
 2723 0966 0893     		str	r3, [sp, #32]
 2724              	.LVL269:
 125:Modules/include/MAVLink/common/../mavlink_sha256.h ****     GG = G;
 2725              		.loc 4 125 5 is_stmt 1 view .LVU1019
 125:Modules/include/MAVLink/common/../mavlink_sha256.h ****     GG = G;
 2726              		.loc 4 125 8 is_stmt 0 view .LVU1020
 2727 0968 3B9B     		ldr	r3, [sp, #236]
 2728              	.LVL270:
 125:Modules/include/MAVLink/common/../mavlink_sha256.h ****     GG = G;
 2729              		.loc 4 125 8 view .LVU1021
 2730 096a 0993     		str	r3, [sp, #36]
 2731              	.LVL271:
 126:Modules/include/MAVLink/common/../mavlink_sha256.h ****     HH = H;
 2732              		.loc 4 126 5 is_stmt 1 view .LVU1022
 126:Modules/include/MAVLink/common/../mavlink_sha256.h ****     HH = H;
 2733              		.loc 4 126 8 is_stmt 0 view .LVU1023
 2734 096c 3C9B     		ldr	r3, [sp, #240]
 2735              	.LVL272:
 126:Modules/include/MAVLink/common/../mavlink_sha256.h ****     HH = H;
 2736              		.loc 4 126 8 view .LVU1024
 2737 096e 0A93     		str	r3, [sp, #40]
 2738              	.LVL273:
 127:Modules/include/MAVLink/common/../mavlink_sha256.h **** 
 2739              		.loc 4 127 5 is_stmt 1 view .LVU1025
 127:Modules/include/MAVLink/common/../mavlink_sha256.h **** 
 2740              		.loc 4 127 8 is_stmt 0 view .LVU1026
 2741 0970 3D9B     		ldr	r3, [sp, #244]
 2742              	.LVL274:
 127:Modules/include/MAVLink/common/../mavlink_sha256.h **** 
 2743              		.loc 4 127 8 view .LVU1027
 2744 0972 0B93     		str	r3, [sp, #44]
 2745              	.LVL275:
 129:Modules/include/MAVLink/common/../mavlink_sha256.h **** 	data[i] = in[i];
ARM GAS  C:\Users\luoha\AppData\Local\Temp\cctfed2n.s 			page 87


 2746              		.loc 4 129 5 is_stmt 1 view .LVU1028
 129:Modules/include/MAVLink/common/../mavlink_sha256.h **** 	data[i] = in[i];
 2747              		.loc 4 129 12 is_stmt 0 view .LVU1029
 2748 0974 0023     		movs	r3, #0
 2749              	.LVL276:
 2750              	.L84:
 129:Modules/include/MAVLink/common/../mavlink_sha256.h **** 	data[i] = in[i];
 2751              		.loc 4 129 17 is_stmt 1 view .LVU1030
 129:Modules/include/MAVLink/common/../mavlink_sha256.h **** 	data[i] = in[i];
 2752              		.loc 4 129 5 is_stmt 0 view .LVU1031
 2753 0976 0F2B     		cmp	r3, #15
 2754 0978 0ADC     		bgt	.L176
 130:Modules/include/MAVLink/common/../mavlink_sha256.h ****     for (i = 16; i < 64; ++i)
 2755              		.loc 4 130 2 is_stmt 1 view .LVU1032
 130:Modules/include/MAVLink/common/../mavlink_sha256.h ****     for (i = 16; i < 64; ++i)
 2756              		.loc 4 130 14 is_stmt 0 view .LVU1033
 2757 097a 8EAA     		add	r2, sp, #568
 2758 097c 02EB8302 		add	r2, r2, r3, lsl #2
 2759 0980 A2F5D872 		sub	r2, r2, #432
 2760 0984 1168     		ldr	r1, [r2]
 130:Modules/include/MAVLink/common/../mavlink_sha256.h ****     for (i = 16; i < 64; ++i)
 2761              		.loc 4 130 10 view .LVU1034
 2762 0986 4EAA     		add	r2, sp, #312
 2763 0988 42F82310 		str	r1, [r2, r3, lsl #2]
 129:Modules/include/MAVLink/common/../mavlink_sha256.h **** 	data[i] = in[i];
 2764              		.loc 4 129 25 is_stmt 1 view .LVU1035
 2765 098c 0133     		adds	r3, r3, #1
 2766              	.LVL277:
 129:Modules/include/MAVLink/common/../mavlink_sha256.h **** 	data[i] = in[i];
 2767              		.loc 4 129 25 is_stmt 0 view .LVU1036
 2768 098e F2E7     		b	.L84
 2769              	.L176:
 131:Modules/include/MAVLink/common/../mavlink_sha256.h **** 	data[i] = sigma1(data[i-2]) + data[i-7] + 
 2770              		.loc 4 131 12 view .LVU1037
 2771 0990 1022     		movs	r2, #16
 2772 0992 20E0     		b	.L86
 2773              	.LVL278:
 2774              	.L87:
 132:Modules/include/MAVLink/common/../mavlink_sha256.h **** 	    sigma0(data[i-15]) + data[i - 16];
 2775              		.loc 4 132 2 is_stmt 1 view .LVU1038
 132:Modules/include/MAVLink/common/../mavlink_sha256.h **** 	    sigma0(data[i-15]) + data[i - 16];
 2776              		.loc 4 132 12 is_stmt 0 view .LVU1039
 2777 0994 931E     		subs	r3, r2, #2
 2778 0996 4EA9     		add	r1, sp, #312
 2779 0998 51F82300 		ldr	r0, [r1, r3, lsl #2]
 2780 099c 4FEAF043 		ror	r3, r0, #19
 2781 09a0 83EA7043 		eor	r3, r3, r0, ror #17
 2782 09a4 83EA9023 		eor	r3, r3, r0, lsr #10
 132:Modules/include/MAVLink/common/../mavlink_sha256.h **** 	    sigma0(data[i-15]) + data[i - 16];
 2783              		.loc 4 132 38 view .LVU1040
 2784 09a8 D01F     		subs	r0, r2, #7
 132:Modules/include/MAVLink/common/../mavlink_sha256.h **** 	    sigma0(data[i-15]) + data[i - 16];
 2785              		.loc 4 132 36 view .LVU1041
 2786 09aa 51F82000 		ldr	r0, [r1, r0, lsl #2]
 132:Modules/include/MAVLink/common/../mavlink_sha256.h **** 	    sigma0(data[i-15]) + data[i - 16];
 2787              		.loc 4 132 30 view .LVU1042
 2788 09ae 0344     		add	r3, r3, r0
ARM GAS  C:\Users\luoha\AppData\Local\Temp\cctfed2n.s 			page 88


 133:Modules/include/MAVLink/common/../mavlink_sha256.h **** 
 2789              		.loc 4 133 6 view .LVU1043
 2790 09b0 A2F10F00 		sub	r0, r2, #15
 2791 09b4 51F82040 		ldr	r4, [r1, r0, lsl #2]
 2792 09b8 4FEAB440 		ror	r0, r4, #18
 2793 09bc 80EAF410 		eor	r0, r0, r4, ror #7
 2794 09c0 80EAD400 		eor	r0, r0, r4, lsr #3
 132:Modules/include/MAVLink/common/../mavlink_sha256.h **** 	    sigma0(data[i-15]) + data[i - 16];
 2795              		.loc 4 132 42 view .LVU1044
 2796 09c4 0344     		add	r3, r3, r0
 133:Modules/include/MAVLink/common/../mavlink_sha256.h **** 
 2797              		.loc 4 133 34 view .LVU1045
 2798 09c6 A2F11000 		sub	r0, r2, #16
 133:Modules/include/MAVLink/common/../mavlink_sha256.h **** 
 2799              		.loc 4 133 31 view .LVU1046
 2800 09ca 51F82000 		ldr	r0, [r1, r0, lsl #2]
 133:Modules/include/MAVLink/common/../mavlink_sha256.h **** 
 2801              		.loc 4 133 25 view .LVU1047
 2802 09ce 0344     		add	r3, r3, r0
 132:Modules/include/MAVLink/common/../mavlink_sha256.h **** 	    sigma0(data[i-15]) + data[i - 16];
 2803              		.loc 4 132 10 view .LVU1048
 2804 09d0 41F82230 		str	r3, [r1, r2, lsl #2]
 131:Modules/include/MAVLink/common/../mavlink_sha256.h **** 	data[i] = sigma1(data[i-2]) + data[i-7] + 
 2805              		.loc 4 131 26 is_stmt 1 view .LVU1049
 2806 09d4 0132     		adds	r2, r2, #1
 2807              	.LVL279:
 2808              	.L86:
 131:Modules/include/MAVLink/common/../mavlink_sha256.h **** 	data[i] = sigma1(data[i-2]) + data[i-7] + 
 2809              		.loc 4 131 18 view .LVU1050
 131:Modules/include/MAVLink/common/../mavlink_sha256.h **** 	data[i] = sigma1(data[i-2]) + data[i-7] + 
 2810              		.loc 4 131 5 is_stmt 0 view .LVU1051
 2811 09d6 3F2A     		cmp	r2, #63
 2812 09d8 DCDD     		ble	.L87
 127:Modules/include/MAVLink/common/../mavlink_sha256.h **** 
 2813              		.loc 4 127 8 view .LVU1052
 2814 09da DDF82C90 		ldr	r9, [sp, #44]
 126:Modules/include/MAVLink/common/../mavlink_sha256.h ****     HH = H;
 2815              		.loc 4 126 8 view .LVU1053
 2816 09de DDF828C0 		ldr	ip, [sp, #40]
 125:Modules/include/MAVLink/common/../mavlink_sha256.h ****     GG = G;
 2817              		.loc 4 125 8 view .LVU1054
 2818 09e2 DDF824E0 		ldr	lr, [sp, #36]
 124:Modules/include/MAVLink/common/../mavlink_sha256.h ****     FF = F;
 2819              		.loc 4 124 8 view .LVU1055
 2820 09e6 0899     		ldr	r1, [sp, #32]
 123:Modules/include/MAVLink/common/../mavlink_sha256.h ****     EE = E;
 2821              		.loc 4 123 8 view .LVU1056
 2822 09e8 DDF81C80 		ldr	r8, [sp, #28]
 122:Modules/include/MAVLink/common/../mavlink_sha256.h ****     DD = D;
 2823              		.loc 4 122 8 view .LVU1057
 2824 09ec 069E     		ldr	r6, [sp, #24]
 121:Modules/include/MAVLink/common/../mavlink_sha256.h ****     CC = C;
 2825              		.loc 4 121 8 view .LVU1058
 2826 09ee 059F     		ldr	r7, [sp, #20]
 120:Modules/include/MAVLink/common/../mavlink_sha256.h ****     BB = B;
 2827              		.loc 4 120 8 view .LVU1059
 2828 09f0 0498     		ldr	r0, [sp, #16]
ARM GAS  C:\Users\luoha\AppData\Local\Temp\cctfed2n.s 			page 89


 135:Modules/include/MAVLink/common/../mavlink_sha256.h **** 	uint32_t T1, T2;
 2829              		.loc 4 135 12 view .LVU1060
 2830 09f2 0025     		movs	r5, #0
 2831 09f4 2CE0     		b	.L88
 2832              	.LVL280:
 2833              	.L89:
 2834              	.LBB306:
 136:Modules/include/MAVLink/common/../mavlink_sha256.h **** 
 2835              		.loc 4 136 2 is_stmt 1 view .LVU1061
 138:Modules/include/MAVLink/common/../mavlink_sha256.h **** 	T2 = Sigma0(AA) + Maj(AA,BB,CC);
 2836              		.loc 4 138 2 view .LVU1062
 138:Modules/include/MAVLink/common/../mavlink_sha256.h **** 	T2 = Sigma0(AA) + Maj(AA,BB,CC);
 2837              		.loc 4 138 12 is_stmt 0 view .LVU1063
 2838 09f6 4FEAF123 		ror	r3, r1, #11
 2839 09fa 83EAB113 		eor	r3, r3, r1, ror #6
 2840 09fe 83EA7163 		eor	r3, r3, r1, ror #25
 138:Modules/include/MAVLink/common/../mavlink_sha256.h **** 	T2 = Sigma0(AA) + Maj(AA,BB,CC);
 2841              		.loc 4 138 10 view .LVU1064
 2842 0a02 4B44     		add	r3, r3, r9
 138:Modules/include/MAVLink/common/../mavlink_sha256.h **** 	T2 = Sigma0(AA) + Maj(AA,BB,CC);
 2843              		.loc 4 138 25 view .LVU1065
 2844 0a04 01EA0E02 		and	r2, r1, lr
 2845 0a08 2CEA0104 		bic	r4, ip, r1
 2846 0a0c 6240     		eors	r2, r2, r4
 138:Modules/include/MAVLink/common/../mavlink_sha256.h **** 	T2 = Sigma0(AA) + Maj(AA,BB,CC);
 2847              		.loc 4 138 23 view .LVU1066
 2848 0a0e 1344     		add	r3, r3, r2
 138:Modules/include/MAVLink/common/../mavlink_sha256.h **** 	T2 = Sigma0(AA) + Maj(AA,BB,CC);
 2849              		.loc 4 138 69 view .LVU1067
 2850 0a10 C54A     		ldr	r2, .L194
 2851 0a12 52F82520 		ldr	r2, [r2, r5, lsl #2]
 138:Modules/include/MAVLink/common/../mavlink_sha256.h **** 	T2 = Sigma0(AA) + Maj(AA,BB,CC);
 2852              		.loc 4 138 40 view .LVU1068
 2853 0a16 1344     		add	r3, r3, r2
 138:Modules/include/MAVLink/common/../mavlink_sha256.h **** 	T2 = Sigma0(AA) + Maj(AA,BB,CC);
 2854              		.loc 4 138 79 view .LVU1069
 2855 0a18 4EAA     		add	r2, sp, #312
 2856 0a1a 52F82520 		ldr	r2, [r2, r5, lsl #2]
 138:Modules/include/MAVLink/common/../mavlink_sha256.h **** 	T2 = Sigma0(AA) + Maj(AA,BB,CC);
 2857              		.loc 4 138 5 view .LVU1070
 2858 0a1e 1344     		add	r3, r3, r2
 2859              	.LVL281:
 139:Modules/include/MAVLink/common/../mavlink_sha256.h **** 			     
 2860              		.loc 4 139 2 is_stmt 1 view .LVU1071
 139:Modules/include/MAVLink/common/../mavlink_sha256.h **** 			     
 2861              		.loc 4 139 7 is_stmt 0 view .LVU1072
 2862 0a20 4FEA7032 		ror	r2, r0, #13
 2863 0a24 82EAB002 		eor	r2, r2, r0, ror #2
 2864 0a28 82EAB052 		eor	r2, r2, r0, ror #22
 139:Modules/include/MAVLink/common/../mavlink_sha256.h **** 			     
 2865              		.loc 4 139 20 view .LVU1073
 2866 0a2c 87EA0604 		eor	r4, r7, r6
 2867 0a30 0440     		ands	r4, r4, r0
 2868 0a32 07EA0609 		and	r9, r7, r6
 2869              	.LVL282:
 139:Modules/include/MAVLink/common/../mavlink_sha256.h **** 			     
 2870              		.loc 4 139 20 view .LVU1074
ARM GAS  C:\Users\luoha\AppData\Local\Temp\cctfed2n.s 			page 90


 2871 0a36 84EA0904 		eor	r4, r4, r9
 139:Modules/include/MAVLink/common/../mavlink_sha256.h **** 			     
 2872              		.loc 4 139 5 view .LVU1075
 2873 0a3a 2244     		add	r2, r2, r4
 2874              	.LVL283:
 141:Modules/include/MAVLink/common/../mavlink_sha256.h **** 	GG = FF;
 2875              		.loc 4 141 2 is_stmt 1 view .LVU1076
 142:Modules/include/MAVLink/common/../mavlink_sha256.h **** 	FF = EE;
 2876              		.loc 4 142 2 view .LVU1077
 143:Modules/include/MAVLink/common/../mavlink_sha256.h **** 	EE = DD + T1;
 2877              		.loc 4 143 2 view .LVU1078
 144:Modules/include/MAVLink/common/../mavlink_sha256.h **** 	DD = CC;
 2878              		.loc 4 144 2 view .LVU1079
 145:Modules/include/MAVLink/common/../mavlink_sha256.h **** 	CC = BB;
 2879              		.loc 4 145 2 view .LVU1080
 146:Modules/include/MAVLink/common/../mavlink_sha256.h **** 	BB = AA;
 2880              		.loc 4 146 2 view .LVU1081
 147:Modules/include/MAVLink/common/../mavlink_sha256.h **** 	AA = T1 + T2;
 2881              		.loc 4 147 2 view .LVU1082
 148:Modules/include/MAVLink/common/../mavlink_sha256.h ****     }
 2882              		.loc 4 148 2 view .LVU1083
 148:Modules/include/MAVLink/common/../mavlink_sha256.h ****     }
 2883              		.loc 4 148 2 is_stmt 0 view .LVU1084
 2884              	.LBE306:
 135:Modules/include/MAVLink/common/../mavlink_sha256.h **** 	uint32_t T1, T2;
 2885              		.loc 4 135 25 is_stmt 1 view .LVU1085
 135:Modules/include/MAVLink/common/../mavlink_sha256.h **** 	uint32_t T1, T2;
 2886              		.loc 4 135 26 is_stmt 0 view .LVU1086
 2887 0a3c 0135     		adds	r5, r5, #1
 2888              	.LVL284:
 2889              	.LBB307:
 141:Modules/include/MAVLink/common/../mavlink_sha256.h **** 	GG = FF;
 2890              		.loc 4 141 5 view .LVU1087
 2891 0a3e E146     		mov	r9, ip
 142:Modules/include/MAVLink/common/../mavlink_sha256.h **** 	FF = EE;
 2892              		.loc 4 142 5 view .LVU1088
 2893 0a40 F446     		mov	ip, lr
 2894              	.LVL285:
 143:Modules/include/MAVLink/common/../mavlink_sha256.h **** 	EE = DD + T1;
 2895              		.loc 4 143 5 view .LVU1089
 2896 0a42 8E46     		mov	lr, r1
 2897              	.LVL286:
 144:Modules/include/MAVLink/common/../mavlink_sha256.h **** 	DD = CC;
 2898              		.loc 4 144 5 view .LVU1090
 2899 0a44 03EB0801 		add	r1, r3, r8
 2900              	.LVL287:
 145:Modules/include/MAVLink/common/../mavlink_sha256.h **** 	CC = BB;
 2901              		.loc 4 145 5 view .LVU1091
 2902 0a48 B046     		mov	r8, r6
 146:Modules/include/MAVLink/common/../mavlink_sha256.h **** 	BB = AA;
 2903              		.loc 4 146 5 view .LVU1092
 2904 0a4a 3E46     		mov	r6, r7
 2905              	.LVL288:
 147:Modules/include/MAVLink/common/../mavlink_sha256.h **** 	AA = T1 + T2;
 2906              		.loc 4 147 5 view .LVU1093
 2907 0a4c 0746     		mov	r7, r0
 2908              	.LVL289:
ARM GAS  C:\Users\luoha\AppData\Local\Temp\cctfed2n.s 			page 91


 148:Modules/include/MAVLink/common/../mavlink_sha256.h ****     }
 2909              		.loc 4 148 5 view .LVU1094
 2910 0a4e 9818     		adds	r0, r3, r2
 2911              	.LVL290:
 2912              	.L88:
 148:Modules/include/MAVLink/common/../mavlink_sha256.h ****     }
 2913              		.loc 4 148 5 view .LVU1095
 2914              	.LBE307:
 135:Modules/include/MAVLink/common/../mavlink_sha256.h **** 	uint32_t T1, T2;
 2915              		.loc 4 135 17 is_stmt 1 view .LVU1096
 135:Modules/include/MAVLink/common/../mavlink_sha256.h **** 	uint32_t T1, T2;
 2916              		.loc 4 135 5 is_stmt 0 view .LVU1097
 2917 0a50 3F2D     		cmp	r5, #63
 2918 0a52 D0DD     		ble	.L89
 151:Modules/include/MAVLink/common/../mavlink_sha256.h ****     B += BB;
 2919              		.loc 4 151 5 is_stmt 1 view .LVU1098
 151:Modules/include/MAVLink/common/../mavlink_sha256.h ****     B += BB;
 2920              		.loc 4 151 7 is_stmt 0 view .LVU1099
 2921 0a54 049B     		ldr	r3, [sp, #16]
 2922 0a56 0344     		add	r3, r3, r0
 2923 0a58 3693     		str	r3, [sp, #216]
 152:Modules/include/MAVLink/common/../mavlink_sha256.h ****     C += CC;
 2924              		.loc 4 152 5 is_stmt 1 view .LVU1100
 152:Modules/include/MAVLink/common/../mavlink_sha256.h ****     C += CC;
 2925              		.loc 4 152 7 is_stmt 0 view .LVU1101
 2926 0a5a 059B     		ldr	r3, [sp, #20]
 2927 0a5c 3B44     		add	r3, r3, r7
 2928 0a5e 3793     		str	r3, [sp, #220]
 153:Modules/include/MAVLink/common/../mavlink_sha256.h ****     D += DD;
 2929              		.loc 4 153 5 is_stmt 1 view .LVU1102
 153:Modules/include/MAVLink/common/../mavlink_sha256.h ****     D += DD;
 2930              		.loc 4 153 7 is_stmt 0 view .LVU1103
 2931 0a60 069B     		ldr	r3, [sp, #24]
 2932 0a62 3344     		add	r3, r3, r6
 2933 0a64 3893     		str	r3, [sp, #224]
 154:Modules/include/MAVLink/common/../mavlink_sha256.h ****     E += EE;
 2934              		.loc 4 154 5 is_stmt 1 view .LVU1104
 154:Modules/include/MAVLink/common/../mavlink_sha256.h ****     E += EE;
 2935              		.loc 4 154 7 is_stmt 0 view .LVU1105
 2936 0a66 079B     		ldr	r3, [sp, #28]
 2937 0a68 4344     		add	r3, r3, r8
 2938 0a6a 3993     		str	r3, [sp, #228]
 155:Modules/include/MAVLink/common/../mavlink_sha256.h ****     F += FF;
 2939              		.loc 4 155 5 is_stmt 1 view .LVU1106
 155:Modules/include/MAVLink/common/../mavlink_sha256.h ****     F += FF;
 2940              		.loc 4 155 7 is_stmt 0 view .LVU1107
 2941 0a6c 089B     		ldr	r3, [sp, #32]
 2942 0a6e 0B44     		add	r3, r3, r1
 2943 0a70 3A93     		str	r3, [sp, #232]
 156:Modules/include/MAVLink/common/../mavlink_sha256.h ****     G += GG;
 2944              		.loc 4 156 5 is_stmt 1 view .LVU1108
 156:Modules/include/MAVLink/common/../mavlink_sha256.h ****     G += GG;
 2945              		.loc 4 156 7 is_stmt 0 view .LVU1109
 2946 0a72 099B     		ldr	r3, [sp, #36]
 2947 0a74 7344     		add	r3, r3, lr
 2948 0a76 3B93     		str	r3, [sp, #236]
 157:Modules/include/MAVLink/common/../mavlink_sha256.h ****     H += HH;
ARM GAS  C:\Users\luoha\AppData\Local\Temp\cctfed2n.s 			page 92


 2949              		.loc 4 157 5 is_stmt 1 view .LVU1110
 157:Modules/include/MAVLink/common/../mavlink_sha256.h ****     H += HH;
 2950              		.loc 4 157 7 is_stmt 0 view .LVU1111
 2951 0a78 0A9B     		ldr	r3, [sp, #40]
 2952 0a7a 6344     		add	r3, r3, ip
 2953 0a7c 3C93     		str	r3, [sp, #240]
 158:Modules/include/MAVLink/common/../mavlink_sha256.h **** }
 2954              		.loc 4 158 5 is_stmt 1 view .LVU1112
 158:Modules/include/MAVLink/common/../mavlink_sha256.h **** }
 2955              		.loc 4 158 7 is_stmt 0 view .LVU1113
 2956 0a7e 0B9B     		ldr	r3, [sp, #44]
 2957 0a80 4B44     		add	r3, r3, r9
 2958 0a82 3D93     		str	r3, [sp, #244]
 2959              	.LVL291:
 158:Modules/include/MAVLink/common/../mavlink_sha256.h **** }
 2960              		.loc 4 158 7 view .LVU1114
 2961              	.LBE305:
 2962              	.LBE304:
 2963              		.loc 4 193 6 is_stmt 1 view .LVU1115
 2964              		.loc 4 193 13 is_stmt 0 view .LVU1116
 2965 0a84 039D     		ldr	r5, [sp, #12]
 2966 0a86 3DE7     		b	.L79
 2967              	.LVL292:
 2968              	.L174:
 2969              		.loc 4 193 13 view .LVU1117
 2970 0a88 DDF834B0 		ldr	fp, [sp, #52]
 2971              	.LVL293:
 2972              		.loc 4 193 13 view .LVU1118
 2973 0a8c CDF82CA0 		str	r10, [sp, #44]
 2974 0a90 DDF838A0 		ldr	r10, [sp, #56]
 2975              	.LVL294:
 2976              		.loc 4 193 13 view .LVU1119
 2977              	.LBE302:
 2978              	.LBE308:
 2979              	.LBE300:
 2980              	.LBE299:
 138:Modules/include/MAVLink/common/../mavlink_helpers.h **** 	mavlink_sha256_final_48(&ctx, signature);
 2981              		.loc 2 138 2 is_stmt 1 view .LVU1120
 2982              	.LBB309:
 2983              	.LBI309:
 161:Modules/include/MAVLink/common/../mavlink_sha256.h **** {
 2984              		.loc 4 161 21 view .LVU1121
 2985              	.LBB310:
 163:Modules/include/MAVLink/common/../mavlink_sha256.h ****     uint32_t old_sz = m->sz[0];
 2986              		.loc 4 163 5 view .LVU1122
 164:Modules/include/MAVLink/common/../mavlink_sha256.h ****     uint32_t offset;
 2987              		.loc 4 164 5 view .LVU1123
 164:Modules/include/MAVLink/common/../mavlink_sha256.h ****     uint32_t offset;
 2988              		.loc 4 164 14 is_stmt 0 view .LVU1124
 2989 0a94 349D     		ldr	r5, [sp, #208]
 2990              	.LVL295:
 165:Modules/include/MAVLink/common/../mavlink_sha256.h **** 
 2991              		.loc 4 165 5 is_stmt 1 view .LVU1125
 167:Modules/include/MAVLink/common/../mavlink_sha256.h ****     if (m->sz[0] < old_sz)
 2992              		.loc 4 167 5 view .LVU1126
 167:Modules/include/MAVLink/common/../mavlink_sha256.h ****     if (m->sz[0] < old_sz)
 2993              		.loc 4 167 14 is_stmt 0 view .LVU1127
ARM GAS  C:\Users\luoha\AppData\Local\Temp\cctfed2n.s 			page 93


 2994 0a96 05F13803 		add	r3, r5, #56
 2995 0a9a 3493     		str	r3, [sp, #208]
 168:Modules/include/MAVLink/common/../mavlink_sha256.h **** 	++m->sz[1];
 2996              		.loc 4 168 5 is_stmt 1 view .LVU1128
 168:Modules/include/MAVLink/common/../mavlink_sha256.h **** 	++m->sz[1];
 2997              		.loc 4 168 8 is_stmt 0 view .LVU1129
 2998 0a9c 9D42     		cmp	r5, r3
 2999 0a9e 02D9     		bls	.L91
 169:Modules/include/MAVLink/common/../mavlink_sha256.h ****     offset = (old_sz / 8) % 64;
 3000              		.loc 4 169 2 is_stmt 1 view .LVU1130
 169:Modules/include/MAVLink/common/../mavlink_sha256.h ****     offset = (old_sz / 8) % 64;
 3001              		.loc 4 169 9 is_stmt 0 view .LVU1131
 3002 0aa0 359B     		ldr	r3, [sp, #212]
 169:Modules/include/MAVLink/common/../mavlink_sha256.h ****     offset = (old_sz / 8) % 64;
 3003              		.loc 4 169 2 view .LVU1132
 3004 0aa2 0133     		adds	r3, r3, #1
 3005 0aa4 3593     		str	r3, [sp, #212]
 3006              	.L91:
 170:Modules/include/MAVLink/common/../mavlink_sha256.h ****     while(len > 0){
 3007              		.loc 4 170 5 is_stmt 1 view .LVU1133
 170:Modules/include/MAVLink/common/../mavlink_sha256.h ****     while(len > 0){
 3008              		.loc 4 170 12 is_stmt 0 view .LVU1134
 3009 0aa6 C5F3C505 		ubfx	r5, r5, #3, #6
 3010              	.LVL296:
 171:Modules/include/MAVLink/common/../mavlink_sha256.h **** 	uint32_t l = 64 - offset;
 3011              		.loc 4 171 5 is_stmt 1 view .LVU1135
 163:Modules/include/MAVLink/common/../mavlink_sha256.h ****     uint32_t old_sz = m->sz[0];
 3012              		.loc 4 163 26 is_stmt 0 view .LVU1136
 3013 0aaa A04B     		ldr	r3, .L194+4
 171:Modules/include/MAVLink/common/../mavlink_sha256.h **** 	uint32_t l = 64 - offset;
 3014              		.loc 4 171 10 view .LVU1137
 3015 0aac 0722     		movs	r2, #7
 3016 0aae CDF834B0 		str	fp, [sp, #52]
 3017 0ab2 CDF838A0 		str	r10, [sp, #56]
 3018 0ab6 9246     		mov	r10, r2
 3019 0ab8 9B46     		mov	fp, r3
 3020 0aba 0BE0     		b	.L92
 3021              	.LVL297:
 3022              	.L93:
 3023              	.LBB311:
 176:Modules/include/MAVLink/common/../mavlink_sha256.h **** 	offset += l;
 3024              		.loc 4 176 2 is_stmt 1 view .LVU1138
 3025 0abc 2246     		mov	r2, r4
 3026 0abe 5946     		mov	r1, fp
 3027 0ac0 3EAB     		add	r3, sp, #248
 3028 0ac2 5819     		adds	r0, r3, r5
 3029 0ac4 FFF7FEFF 		bl	memcpy
 3030              	.LVL298:
 177:Modules/include/MAVLink/common/../mavlink_sha256.h **** 	p += l;
 3031              		.loc 4 177 2 view .LVU1139
 177:Modules/include/MAVLink/common/../mavlink_sha256.h **** 	p += l;
 3032              		.loc 4 177 9 is_stmt 0 view .LVU1140
 3033 0ac8 2544     		add	r5, r5, r4
 3034              	.LVL299:
 178:Modules/include/MAVLink/common/../mavlink_sha256.h **** 	len -= l;
 3035              		.loc 4 178 2 is_stmt 1 view .LVU1141
 178:Modules/include/MAVLink/common/../mavlink_sha256.h **** 	len -= l;
ARM GAS  C:\Users\luoha\AppData\Local\Temp\cctfed2n.s 			page 94


 3036              		.loc 4 178 4 is_stmt 0 view .LVU1142
 3037 0aca A344     		add	fp, fp, r4
 3038              	.LVL300:
 179:Modules/include/MAVLink/common/../mavlink_sha256.h **** 	if(offset == 64){
 3039              		.loc 4 179 2 is_stmt 1 view .LVU1143
 179:Modules/include/MAVLink/common/../mavlink_sha256.h **** 	if(offset == 64){
 3040              		.loc 4 179 6 is_stmt 0 view .LVU1144
 3041 0acc AAEB040A 		sub	r10, r10, r4
 3042              	.LVL301:
 180:Modules/include/MAVLink/common/../mavlink_sha256.h **** 	    int i;
 3043              		.loc 4 180 2 is_stmt 1 view .LVU1145
 180:Modules/include/MAVLink/common/../mavlink_sha256.h **** 	    int i;
 3044              		.loc 4 180 4 is_stmt 0 view .LVU1146
 3045 0ad0 402D     		cmp	r5, #64
 3046 0ad2 09D0     		beq	.L177
 3047              	.LVL302:
 3048              	.L92:
 180:Modules/include/MAVLink/common/../mavlink_sha256.h **** 	    int i;
 3049              		.loc 4 180 4 view .LVU1147
 3050              	.LBE311:
 171:Modules/include/MAVLink/common/../mavlink_sha256.h **** 	uint32_t l = 64 - offset;
 3051              		.loc 4 171 10 is_stmt 1 view .LVU1148
 3052 0ad4 BAF1000F 		cmp	r10, #0
 3053 0ad8 00F0B580 		beq	.L178
 3054              	.LBB318:
 172:Modules/include/MAVLink/common/../mavlink_sha256.h ****         if (len < l) {
 3055              		.loc 4 172 2 view .LVU1149
 172:Modules/include/MAVLink/common/../mavlink_sha256.h ****         if (len < l) {
 3056              		.loc 4 172 11 is_stmt 0 view .LVU1150
 3057 0adc C5F14004 		rsb	r4, r5, #64
 3058              	.LVL303:
 173:Modules/include/MAVLink/common/../mavlink_sha256.h ****             l = len;
 3059              		.loc 4 173 9 is_stmt 1 view .LVU1151
 173:Modules/include/MAVLink/common/../mavlink_sha256.h ****             l = len;
 3060              		.loc 4 173 12 is_stmt 0 view .LVU1152
 3061 0ae0 5445     		cmp	r4, r10
 3062 0ae2 EBD9     		bls	.L93
 174:Modules/include/MAVLink/common/../mavlink_sha256.h ****         }
 3063              		.loc 4 174 15 view .LVU1153
 3064 0ae4 5446     		mov	r4, r10
 3065              	.LVL304:
 174:Modules/include/MAVLink/common/../mavlink_sha256.h ****         }
 3066              		.loc 4 174 15 view .LVU1154
 3067 0ae6 E9E7     		b	.L93
 3068              	.LVL305:
 3069              	.L177:
 3070              	.LBB312:
 184:Modules/include/MAVLink/common/../mavlink_sha256.h ****                 const uint8_t *p1 = (const uint8_t *)&u[i];
 3071              		.loc 4 184 13 view .LVU1155
 3072 0ae8 0023     		movs	r3, #0
 3073              	.LVL306:
 3074              	.L94:
 184:Modules/include/MAVLink/common/../mavlink_sha256.h ****                 const uint8_t *p1 = (const uint8_t *)&u[i];
 3075              		.loc 4 184 18 is_stmt 1 view .LVU1156
 184:Modules/include/MAVLink/common/../mavlink_sha256.h ****                 const uint8_t *p1 = (const uint8_t *)&u[i];
 3076              		.loc 4 184 6 is_stmt 0 view .LVU1157
 3077 0aea 0F2B     		cmp	r3, #15
ARM GAS  C:\Users\luoha\AppData\Local\Temp\cctfed2n.s 			page 95


 3078 0aec 11DC     		bgt	.L179
 3079              	.LBB313:
 185:Modules/include/MAVLink/common/../mavlink_sha256.h ****                 uint8_t *p2 = (uint8_t *)&current[i];
 3080              		.loc 4 185 17 is_stmt 1 view .LVU1158
 185:Modules/include/MAVLink/common/../mavlink_sha256.h ****                 uint8_t *p2 = (uint8_t *)&current[i];
 3081              		.loc 4 185 32 is_stmt 0 view .LVU1159
 3082 0aee 3EA8     		add	r0, sp, #248
 3083 0af0 00EB8301 		add	r1, r0, r3, lsl #2
 3084              	.LVL307:
 186:Modules/include/MAVLink/common/../mavlink_sha256.h ****                 p2[0] = p1[3];
 3085              		.loc 4 186 17 is_stmt 1 view .LVU1160
 186:Modules/include/MAVLink/common/../mavlink_sha256.h ****                 p2[0] = p1[3];
 3086              		.loc 4 186 26 is_stmt 0 view .LVU1161
 3087 0af4 22AC     		add	r4, sp, #136
 3088 0af6 04EB8302 		add	r2, r4, r3, lsl #2
 3089              	.LVL308:
 187:Modules/include/MAVLink/common/../mavlink_sha256.h ****                 p2[1] = p1[2];
 3090              		.loc 4 187 17 is_stmt 1 view .LVU1162
 187:Modules/include/MAVLink/common/../mavlink_sha256.h ****                 p2[1] = p1[2];
 3091              		.loc 4 187 23 is_stmt 0 view .LVU1163
 3092 0afa CD78     		ldrb	r5, [r1, #3]	@ zero_extendqisi2
 3093 0afc 04F82350 		strb	r5, [r4, r3, lsl #2]
 188:Modules/include/MAVLink/common/../mavlink_sha256.h ****                 p2[2] = p1[1];
 3094              		.loc 4 188 17 is_stmt 1 view .LVU1164
 188:Modules/include/MAVLink/common/../mavlink_sha256.h ****                 p2[2] = p1[1];
 3095              		.loc 4 188 23 is_stmt 0 view .LVU1165
 3096 0b00 8C78     		ldrb	r4, [r1, #2]	@ zero_extendqisi2
 3097 0b02 5470     		strb	r4, [r2, #1]
 189:Modules/include/MAVLink/common/../mavlink_sha256.h ****                 p2[3] = p1[0];
 3098              		.loc 4 189 17 is_stmt 1 view .LVU1166
 189:Modules/include/MAVLink/common/../mavlink_sha256.h ****                 p2[3] = p1[0];
 3099              		.loc 4 189 23 is_stmt 0 view .LVU1167
 3100 0b04 4978     		ldrb	r1, [r1, #1]	@ zero_extendqisi2
 3101              	.LVL309:
 189:Modules/include/MAVLink/common/../mavlink_sha256.h ****                 p2[3] = p1[0];
 3102              		.loc 4 189 23 view .LVU1168
 3103 0b06 9170     		strb	r1, [r2, #2]
 190:Modules/include/MAVLink/common/../mavlink_sha256.h **** 	    }
 3104              		.loc 4 190 17 is_stmt 1 view .LVU1169
 190:Modules/include/MAVLink/common/../mavlink_sha256.h **** 	    }
 3105              		.loc 4 190 27 is_stmt 0 view .LVU1170
 3106 0b08 10F82310 		ldrb	r1, [r0, r3, lsl #2]	@ zero_extendqisi2
 190:Modules/include/MAVLink/common/../mavlink_sha256.h **** 	    }
 3107              		.loc 4 190 23 view .LVU1171
 3108 0b0c D170     		strb	r1, [r2, #3]
 3109              	.LBE313:
 184:Modules/include/MAVLink/common/../mavlink_sha256.h ****                 const uint8_t *p1 = (const uint8_t *)&u[i];
 3110              		.loc 4 184 26 is_stmt 1 view .LVU1172
 184:Modules/include/MAVLink/common/../mavlink_sha256.h ****                 const uint8_t *p1 = (const uint8_t *)&u[i];
 3111              		.loc 4 184 27 is_stmt 0 view .LVU1173
 3112 0b0e 0133     		adds	r3, r3, #1
 3113              	.LVL310:
 184:Modules/include/MAVLink/common/../mavlink_sha256.h ****                 const uint8_t *p1 = (const uint8_t *)&u[i];
 3114              		.loc 4 184 27 view .LVU1174
 3115 0b10 EBE7     		b	.L94
 3116              	.LVL311:
 3117              	.L179:
ARM GAS  C:\Users\luoha\AppData\Local\Temp\cctfed2n.s 			page 96


 192:Modules/include/MAVLink/common/../mavlink_sha256.h **** 	    offset = 0;
 3118              		.loc 4 192 6 is_stmt 1 view .LVU1175
 3119              	.LBB314:
 3120              	.LBI314:
 114:Modules/include/MAVLink/common/../mavlink_sha256.h **** {
 3121              		.loc 4 114 20 view .LVU1176
 3122              	.LBB315:
 116:Modules/include/MAVLink/common/../mavlink_sha256.h ****     uint32_t data[64];
 3123              		.loc 4 116 5 view .LVU1177
 117:Modules/include/MAVLink/common/../mavlink_sha256.h ****     int i;
 3124              		.loc 4 117 5 view .LVU1178
 118:Modules/include/MAVLink/common/../mavlink_sha256.h **** 
 3125              		.loc 4 118 5 view .LVU1179
 120:Modules/include/MAVLink/common/../mavlink_sha256.h ****     BB = B;
 3126              		.loc 4 120 5 view .LVU1180
 120:Modules/include/MAVLink/common/../mavlink_sha256.h ****     BB = B;
 3127              		.loc 4 120 8 is_stmt 0 view .LVU1181
 3128 0b12 369B     		ldr	r3, [sp, #216]
 3129              	.LVL312:
 120:Modules/include/MAVLink/common/../mavlink_sha256.h ****     BB = B;
 3130              		.loc 4 120 8 view .LVU1182
 3131 0b14 0393     		str	r3, [sp, #12]
 3132              	.LVL313:
 121:Modules/include/MAVLink/common/../mavlink_sha256.h ****     CC = C;
 3133              		.loc 4 121 5 is_stmt 1 view .LVU1183
 121:Modules/include/MAVLink/common/../mavlink_sha256.h ****     CC = C;
 3134              		.loc 4 121 8 is_stmt 0 view .LVU1184
 3135 0b16 379B     		ldr	r3, [sp, #220]
 3136              	.LVL314:
 121:Modules/include/MAVLink/common/../mavlink_sha256.h ****     CC = C;
 3137              		.loc 4 121 8 view .LVU1185
 3138 0b18 0493     		str	r3, [sp, #16]
 3139              	.LVL315:
 122:Modules/include/MAVLink/common/../mavlink_sha256.h ****     DD = D;
 3140              		.loc 4 122 5 is_stmt 1 view .LVU1186
 122:Modules/include/MAVLink/common/../mavlink_sha256.h ****     DD = D;
 3141              		.loc 4 122 8 is_stmt 0 view .LVU1187
 3142 0b1a 389B     		ldr	r3, [sp, #224]
 3143              	.LVL316:
 122:Modules/include/MAVLink/common/../mavlink_sha256.h ****     DD = D;
 3144              		.loc 4 122 8 view .LVU1188
 3145 0b1c 0593     		str	r3, [sp, #20]
 3146              	.LVL317:
 123:Modules/include/MAVLink/common/../mavlink_sha256.h ****     EE = E;
 3147              		.loc 4 123 5 is_stmt 1 view .LVU1189
 123:Modules/include/MAVLink/common/../mavlink_sha256.h ****     EE = E;
 3148              		.loc 4 123 8 is_stmt 0 view .LVU1190
 3149 0b1e 399B     		ldr	r3, [sp, #228]
 3150              	.LVL318:
 123:Modules/include/MAVLink/common/../mavlink_sha256.h ****     EE = E;
 3151              		.loc 4 123 8 view .LVU1191
 3152 0b20 0693     		str	r3, [sp, #24]
 3153              	.LVL319:
 124:Modules/include/MAVLink/common/../mavlink_sha256.h ****     FF = F;
 3154              		.loc 4 124 5 is_stmt 1 view .LVU1192
 124:Modules/include/MAVLink/common/../mavlink_sha256.h ****     FF = F;
 3155              		.loc 4 124 8 is_stmt 0 view .LVU1193
ARM GAS  C:\Users\luoha\AppData\Local\Temp\cctfed2n.s 			page 97


 3156 0b22 3A9B     		ldr	r3, [sp, #232]
 3157              	.LVL320:
 124:Modules/include/MAVLink/common/../mavlink_sha256.h ****     FF = F;
 3158              		.loc 4 124 8 view .LVU1194
 3159 0b24 0793     		str	r3, [sp, #28]
 3160              	.LVL321:
 125:Modules/include/MAVLink/common/../mavlink_sha256.h ****     GG = G;
 3161              		.loc 4 125 5 is_stmt 1 view .LVU1195
 125:Modules/include/MAVLink/common/../mavlink_sha256.h ****     GG = G;
 3162              		.loc 4 125 8 is_stmt 0 view .LVU1196
 3163 0b26 3B9B     		ldr	r3, [sp, #236]
 3164              	.LVL322:
 125:Modules/include/MAVLink/common/../mavlink_sha256.h ****     GG = G;
 3165              		.loc 4 125 8 view .LVU1197
 3166 0b28 0893     		str	r3, [sp, #32]
 3167              	.LVL323:
 126:Modules/include/MAVLink/common/../mavlink_sha256.h ****     HH = H;
 3168              		.loc 4 126 5 is_stmt 1 view .LVU1198
 126:Modules/include/MAVLink/common/../mavlink_sha256.h ****     HH = H;
 3169              		.loc 4 126 8 is_stmt 0 view .LVU1199
 3170 0b2a 3C9B     		ldr	r3, [sp, #240]
 3171              	.LVL324:
 126:Modules/include/MAVLink/common/../mavlink_sha256.h ****     HH = H;
 3172              		.loc 4 126 8 view .LVU1200
 3173 0b2c 0993     		str	r3, [sp, #36]
 3174              	.LVL325:
 127:Modules/include/MAVLink/common/../mavlink_sha256.h **** 
 3175              		.loc 4 127 5 is_stmt 1 view .LVU1201
 127:Modules/include/MAVLink/common/../mavlink_sha256.h **** 
 3176              		.loc 4 127 8 is_stmt 0 view .LVU1202
 3177 0b2e 3D9B     		ldr	r3, [sp, #244]
 3178              	.LVL326:
 127:Modules/include/MAVLink/common/../mavlink_sha256.h **** 
 3179              		.loc 4 127 8 view .LVU1203
 3180 0b30 0A93     		str	r3, [sp, #40]
 3181              	.LVL327:
 129:Modules/include/MAVLink/common/../mavlink_sha256.h **** 	data[i] = in[i];
 3182              		.loc 4 129 5 is_stmt 1 view .LVU1204
 129:Modules/include/MAVLink/common/../mavlink_sha256.h **** 	data[i] = in[i];
 3183              		.loc 4 129 12 is_stmt 0 view .LVU1205
 3184 0b32 0023     		movs	r3, #0
 3185              	.LVL328:
 3186              	.L97:
 129:Modules/include/MAVLink/common/../mavlink_sha256.h **** 	data[i] = in[i];
 3187              		.loc 4 129 17 is_stmt 1 view .LVU1206
 129:Modules/include/MAVLink/common/../mavlink_sha256.h **** 	data[i] = in[i];
 3188              		.loc 4 129 5 is_stmt 0 view .LVU1207
 3189 0b34 0F2B     		cmp	r3, #15
 3190 0b36 0ADC     		bgt	.L180
 130:Modules/include/MAVLink/common/../mavlink_sha256.h ****     for (i = 16; i < 64; ++i)
 3191              		.loc 4 130 2 is_stmt 1 view .LVU1208
 130:Modules/include/MAVLink/common/../mavlink_sha256.h ****     for (i = 16; i < 64; ++i)
 3192              		.loc 4 130 14 is_stmt 0 view .LVU1209
 3193 0b38 8EAA     		add	r2, sp, #568
 3194 0b3a 02EB8302 		add	r2, r2, r3, lsl #2
 3195 0b3e A2F5D872 		sub	r2, r2, #432
 3196 0b42 1168     		ldr	r1, [r2]
ARM GAS  C:\Users\luoha\AppData\Local\Temp\cctfed2n.s 			page 98


 130:Modules/include/MAVLink/common/../mavlink_sha256.h ****     for (i = 16; i < 64; ++i)
 3197              		.loc 4 130 10 view .LVU1210
 3198 0b44 4EAA     		add	r2, sp, #312
 3199 0b46 42F82310 		str	r1, [r2, r3, lsl #2]
 129:Modules/include/MAVLink/common/../mavlink_sha256.h **** 	data[i] = in[i];
 3200              		.loc 4 129 25 is_stmt 1 view .LVU1211
 3201 0b4a 0133     		adds	r3, r3, #1
 3202              	.LVL329:
 129:Modules/include/MAVLink/common/../mavlink_sha256.h **** 	data[i] = in[i];
 3203              		.loc 4 129 25 is_stmt 0 view .LVU1212
 3204 0b4c F2E7     		b	.L97
 3205              	.L180:
 131:Modules/include/MAVLink/common/../mavlink_sha256.h **** 	data[i] = sigma1(data[i-2]) + data[i-7] + 
 3206              		.loc 4 131 12 view .LVU1213
 3207 0b4e 1022     		movs	r2, #16
 3208 0b50 20E0     		b	.L99
 3209              	.LVL330:
 3210              	.L100:
 132:Modules/include/MAVLink/common/../mavlink_sha256.h **** 	    sigma0(data[i-15]) + data[i - 16];
 3211              		.loc 4 132 2 is_stmt 1 view .LVU1214
 132:Modules/include/MAVLink/common/../mavlink_sha256.h **** 	    sigma0(data[i-15]) + data[i - 16];
 3212              		.loc 4 132 12 is_stmt 0 view .LVU1215
 3213 0b52 931E     		subs	r3, r2, #2
 3214 0b54 4EA9     		add	r1, sp, #312
 3215 0b56 51F82300 		ldr	r0, [r1, r3, lsl #2]
 3216 0b5a 4FEAF043 		ror	r3, r0, #19
 3217 0b5e 83EA7043 		eor	r3, r3, r0, ror #17
 3218 0b62 83EA9023 		eor	r3, r3, r0, lsr #10
 132:Modules/include/MAVLink/common/../mavlink_sha256.h **** 	    sigma0(data[i-15]) + data[i - 16];
 3219              		.loc 4 132 38 view .LVU1216
 3220 0b66 D01F     		subs	r0, r2, #7
 132:Modules/include/MAVLink/common/../mavlink_sha256.h **** 	    sigma0(data[i-15]) + data[i - 16];
 3221              		.loc 4 132 36 view .LVU1217
 3222 0b68 51F82000 		ldr	r0, [r1, r0, lsl #2]
 132:Modules/include/MAVLink/common/../mavlink_sha256.h **** 	    sigma0(data[i-15]) + data[i - 16];
 3223              		.loc 4 132 30 view .LVU1218
 3224 0b6c 0344     		add	r3, r3, r0
 133:Modules/include/MAVLink/common/../mavlink_sha256.h **** 
 3225              		.loc 4 133 6 view .LVU1219
 3226 0b6e A2F10F00 		sub	r0, r2, #15
 3227 0b72 51F82040 		ldr	r4, [r1, r0, lsl #2]
 3228 0b76 4FEAB440 		ror	r0, r4, #18
 3229 0b7a 80EAF410 		eor	r0, r0, r4, ror #7
 3230 0b7e 80EAD400 		eor	r0, r0, r4, lsr #3
 132:Modules/include/MAVLink/common/../mavlink_sha256.h **** 	    sigma0(data[i-15]) + data[i - 16];
 3231              		.loc 4 132 42 view .LVU1220
 3232 0b82 0344     		add	r3, r3, r0
 133:Modules/include/MAVLink/common/../mavlink_sha256.h **** 
 3233              		.loc 4 133 34 view .LVU1221
 3234 0b84 A2F11000 		sub	r0, r2, #16
 133:Modules/include/MAVLink/common/../mavlink_sha256.h **** 
 3235              		.loc 4 133 31 view .LVU1222
 3236 0b88 51F82000 		ldr	r0, [r1, r0, lsl #2]
 133:Modules/include/MAVLink/common/../mavlink_sha256.h **** 
 3237              		.loc 4 133 25 view .LVU1223
 3238 0b8c 0344     		add	r3, r3, r0
 132:Modules/include/MAVLink/common/../mavlink_sha256.h **** 	    sigma0(data[i-15]) + data[i - 16];
ARM GAS  C:\Users\luoha\AppData\Local\Temp\cctfed2n.s 			page 99


 3239              		.loc 4 132 10 view .LVU1224
 3240 0b8e 41F82230 		str	r3, [r1, r2, lsl #2]
 131:Modules/include/MAVLink/common/../mavlink_sha256.h **** 	data[i] = sigma1(data[i-2]) + data[i-7] + 
 3241              		.loc 4 131 26 is_stmt 1 view .LVU1225
 3242 0b92 0132     		adds	r2, r2, #1
 3243              	.LVL331:
 3244              	.L99:
 131:Modules/include/MAVLink/common/../mavlink_sha256.h **** 	data[i] = sigma1(data[i-2]) + data[i-7] + 
 3245              		.loc 4 131 18 view .LVU1226
 131:Modules/include/MAVLink/common/../mavlink_sha256.h **** 	data[i] = sigma1(data[i-2]) + data[i-7] + 
 3246              		.loc 4 131 5 is_stmt 0 view .LVU1227
 3247 0b94 3F2A     		cmp	r2, #63
 3248 0b96 DCDD     		ble	.L100
 127:Modules/include/MAVLink/common/../mavlink_sha256.h **** 
 3249              		.loc 4 127 8 view .LVU1228
 3250 0b98 DDF82890 		ldr	r9, [sp, #40]
 126:Modules/include/MAVLink/common/../mavlink_sha256.h ****     HH = H;
 3251              		.loc 4 126 8 view .LVU1229
 3252 0b9c DDF824C0 		ldr	ip, [sp, #36]
 125:Modules/include/MAVLink/common/../mavlink_sha256.h ****     GG = G;
 3253              		.loc 4 125 8 view .LVU1230
 3254 0ba0 DDF820E0 		ldr	lr, [sp, #32]
 124:Modules/include/MAVLink/common/../mavlink_sha256.h ****     FF = F;
 3255              		.loc 4 124 8 view .LVU1231
 3256 0ba4 0799     		ldr	r1, [sp, #28]
 123:Modules/include/MAVLink/common/../mavlink_sha256.h ****     EE = E;
 3257              		.loc 4 123 8 view .LVU1232
 3258 0ba6 DDF81880 		ldr	r8, [sp, #24]
 122:Modules/include/MAVLink/common/../mavlink_sha256.h ****     DD = D;
 3259              		.loc 4 122 8 view .LVU1233
 3260 0baa 059E     		ldr	r6, [sp, #20]
 121:Modules/include/MAVLink/common/../mavlink_sha256.h ****     CC = C;
 3261              		.loc 4 121 8 view .LVU1234
 3262 0bac 049F     		ldr	r7, [sp, #16]
 120:Modules/include/MAVLink/common/../mavlink_sha256.h ****     BB = B;
 3263              		.loc 4 120 8 view .LVU1235
 3264 0bae 0398     		ldr	r0, [sp, #12]
 135:Modules/include/MAVLink/common/../mavlink_sha256.h **** 	uint32_t T1, T2;
 3265              		.loc 4 135 12 view .LVU1236
 3266 0bb0 0025     		movs	r5, #0
 3267 0bb2 2CE0     		b	.L101
 3268              	.LVL332:
 3269              	.L102:
 3270              	.LBB316:
 136:Modules/include/MAVLink/common/../mavlink_sha256.h **** 
 3271              		.loc 4 136 2 is_stmt 1 view .LVU1237
 138:Modules/include/MAVLink/common/../mavlink_sha256.h **** 	T2 = Sigma0(AA) + Maj(AA,BB,CC);
 3272              		.loc 4 138 2 view .LVU1238
 138:Modules/include/MAVLink/common/../mavlink_sha256.h **** 	T2 = Sigma0(AA) + Maj(AA,BB,CC);
 3273              		.loc 4 138 12 is_stmt 0 view .LVU1239
 3274 0bb4 4FEAF123 		ror	r3, r1, #11
 3275 0bb8 83EAB113 		eor	r3, r3, r1, ror #6
 3276 0bbc 83EA7163 		eor	r3, r3, r1, ror #25
 138:Modules/include/MAVLink/common/../mavlink_sha256.h **** 	T2 = Sigma0(AA) + Maj(AA,BB,CC);
 3277              		.loc 4 138 10 view .LVU1240
 3278 0bc0 4B44     		add	r3, r3, r9
 138:Modules/include/MAVLink/common/../mavlink_sha256.h **** 	T2 = Sigma0(AA) + Maj(AA,BB,CC);
ARM GAS  C:\Users\luoha\AppData\Local\Temp\cctfed2n.s 			page 100


 3279              		.loc 4 138 25 view .LVU1241
 3280 0bc2 01EA0E02 		and	r2, r1, lr
 3281 0bc6 2CEA0104 		bic	r4, ip, r1
 3282 0bca 6240     		eors	r2, r2, r4
 138:Modules/include/MAVLink/common/../mavlink_sha256.h **** 	T2 = Sigma0(AA) + Maj(AA,BB,CC);
 3283              		.loc 4 138 23 view .LVU1242
 3284 0bcc 1344     		add	r3, r3, r2
 138:Modules/include/MAVLink/common/../mavlink_sha256.h **** 	T2 = Sigma0(AA) + Maj(AA,BB,CC);
 3285              		.loc 4 138 69 view .LVU1243
 3286 0bce 564A     		ldr	r2, .L194
 3287 0bd0 52F82520 		ldr	r2, [r2, r5, lsl #2]
 138:Modules/include/MAVLink/common/../mavlink_sha256.h **** 	T2 = Sigma0(AA) + Maj(AA,BB,CC);
 3288              		.loc 4 138 40 view .LVU1244
 3289 0bd4 1344     		add	r3, r3, r2
 138:Modules/include/MAVLink/common/../mavlink_sha256.h **** 	T2 = Sigma0(AA) + Maj(AA,BB,CC);
 3290              		.loc 4 138 79 view .LVU1245
 3291 0bd6 4EAA     		add	r2, sp, #312
 3292 0bd8 52F82520 		ldr	r2, [r2, r5, lsl #2]
 138:Modules/include/MAVLink/common/../mavlink_sha256.h **** 	T2 = Sigma0(AA) + Maj(AA,BB,CC);
 3293              		.loc 4 138 5 view .LVU1246
 3294 0bdc 1344     		add	r3, r3, r2
 3295              	.LVL333:
 139:Modules/include/MAVLink/common/../mavlink_sha256.h **** 			     
 3296              		.loc 4 139 2 is_stmt 1 view .LVU1247
 139:Modules/include/MAVLink/common/../mavlink_sha256.h **** 			     
 3297              		.loc 4 139 7 is_stmt 0 view .LVU1248
 3298 0bde 4FEA7032 		ror	r2, r0, #13
 3299 0be2 82EAB002 		eor	r2, r2, r0, ror #2
 3300 0be6 82EAB052 		eor	r2, r2, r0, ror #22
 139:Modules/include/MAVLink/common/../mavlink_sha256.h **** 			     
 3301              		.loc 4 139 20 view .LVU1249
 3302 0bea 87EA0604 		eor	r4, r7, r6
 3303 0bee 0440     		ands	r4, r4, r0
 3304 0bf0 07EA0609 		and	r9, r7, r6
 3305              	.LVL334:
 139:Modules/include/MAVLink/common/../mavlink_sha256.h **** 			     
 3306              		.loc 4 139 20 view .LVU1250
 3307 0bf4 84EA0904 		eor	r4, r4, r9
 139:Modules/include/MAVLink/common/../mavlink_sha256.h **** 			     
 3308              		.loc 4 139 5 view .LVU1251
 3309 0bf8 2244     		add	r2, r2, r4
 3310              	.LVL335:
 141:Modules/include/MAVLink/common/../mavlink_sha256.h **** 	GG = FF;
 3311              		.loc 4 141 2 is_stmt 1 view .LVU1252
 142:Modules/include/MAVLink/common/../mavlink_sha256.h **** 	FF = EE;
 3312              		.loc 4 142 2 view .LVU1253
 143:Modules/include/MAVLink/common/../mavlink_sha256.h **** 	EE = DD + T1;
 3313              		.loc 4 143 2 view .LVU1254
 144:Modules/include/MAVLink/common/../mavlink_sha256.h **** 	DD = CC;
 3314              		.loc 4 144 2 view .LVU1255
 145:Modules/include/MAVLink/common/../mavlink_sha256.h **** 	CC = BB;
 3315              		.loc 4 145 2 view .LVU1256
 146:Modules/include/MAVLink/common/../mavlink_sha256.h **** 	BB = AA;
 3316              		.loc 4 146 2 view .LVU1257
 147:Modules/include/MAVLink/common/../mavlink_sha256.h **** 	AA = T1 + T2;
 3317              		.loc 4 147 2 view .LVU1258
 148:Modules/include/MAVLink/common/../mavlink_sha256.h ****     }
ARM GAS  C:\Users\luoha\AppData\Local\Temp\cctfed2n.s 			page 101


 3318              		.loc 4 148 2 view .LVU1259
 148:Modules/include/MAVLink/common/../mavlink_sha256.h ****     }
 3319              		.loc 4 148 2 is_stmt 0 view .LVU1260
 3320              	.LBE316:
 135:Modules/include/MAVLink/common/../mavlink_sha256.h **** 	uint32_t T1, T2;
 3321              		.loc 4 135 25 is_stmt 1 view .LVU1261
 135:Modules/include/MAVLink/common/../mavlink_sha256.h **** 	uint32_t T1, T2;
 3322              		.loc 4 135 26 is_stmt 0 view .LVU1262
 3323 0bfa 0135     		adds	r5, r5, #1
 3324              	.LVL336:
 3325              	.LBB317:
 141:Modules/include/MAVLink/common/../mavlink_sha256.h **** 	GG = FF;
 3326              		.loc 4 141 5 view .LVU1263
 3327 0bfc E146     		mov	r9, ip
 142:Modules/include/MAVLink/common/../mavlink_sha256.h **** 	FF = EE;
 3328              		.loc 4 142 5 view .LVU1264
 3329 0bfe F446     		mov	ip, lr
 3330              	.LVL337:
 143:Modules/include/MAVLink/common/../mavlink_sha256.h **** 	EE = DD + T1;
 3331              		.loc 4 143 5 view .LVU1265
 3332 0c00 8E46     		mov	lr, r1
 3333              	.LVL338:
 144:Modules/include/MAVLink/common/../mavlink_sha256.h **** 	DD = CC;
 3334              		.loc 4 144 5 view .LVU1266
 3335 0c02 03EB0801 		add	r1, r3, r8
 3336              	.LVL339:
 145:Modules/include/MAVLink/common/../mavlink_sha256.h **** 	CC = BB;
 3337              		.loc 4 145 5 view .LVU1267
 3338 0c06 B046     		mov	r8, r6
 146:Modules/include/MAVLink/common/../mavlink_sha256.h **** 	BB = AA;
 3339              		.loc 4 146 5 view .LVU1268
 3340 0c08 3E46     		mov	r6, r7
 3341              	.LVL340:
 147:Modules/include/MAVLink/common/../mavlink_sha256.h **** 	AA = T1 + T2;
 3342              		.loc 4 147 5 view .LVU1269
 3343 0c0a 0746     		mov	r7, r0
 3344              	.LVL341:
 148:Modules/include/MAVLink/common/../mavlink_sha256.h ****     }
 3345              		.loc 4 148 5 view .LVU1270
 3346 0c0c 9818     		adds	r0, r3, r2
 3347              	.LVL342:
 3348              	.L101:
 148:Modules/include/MAVLink/common/../mavlink_sha256.h ****     }
 3349              		.loc 4 148 5 view .LVU1271
 3350              	.LBE317:
 135:Modules/include/MAVLink/common/../mavlink_sha256.h **** 	uint32_t T1, T2;
 3351              		.loc 4 135 17 is_stmt 1 view .LVU1272
 135:Modules/include/MAVLink/common/../mavlink_sha256.h **** 	uint32_t T1, T2;
 3352              		.loc 4 135 5 is_stmt 0 view .LVU1273
 3353 0c0e 3F2D     		cmp	r5, #63
 3354 0c10 D0DD     		ble	.L102
 151:Modules/include/MAVLink/common/../mavlink_sha256.h ****     B += BB;
 3355              		.loc 4 151 5 is_stmt 1 view .LVU1274
 151:Modules/include/MAVLink/common/../mavlink_sha256.h ****     B += BB;
 3356              		.loc 4 151 7 is_stmt 0 view .LVU1275
 3357 0c12 039B     		ldr	r3, [sp, #12]
 3358 0c14 0344     		add	r3, r3, r0
ARM GAS  C:\Users\luoha\AppData\Local\Temp\cctfed2n.s 			page 102


 3359 0c16 3693     		str	r3, [sp, #216]
 152:Modules/include/MAVLink/common/../mavlink_sha256.h ****     C += CC;
 3360              		.loc 4 152 5 is_stmt 1 view .LVU1276
 152:Modules/include/MAVLink/common/../mavlink_sha256.h ****     C += CC;
 3361              		.loc 4 152 7 is_stmt 0 view .LVU1277
 3362 0c18 049B     		ldr	r3, [sp, #16]
 3363 0c1a 3B44     		add	r3, r3, r7
 3364 0c1c 3793     		str	r3, [sp, #220]
 153:Modules/include/MAVLink/common/../mavlink_sha256.h ****     D += DD;
 3365              		.loc 4 153 5 is_stmt 1 view .LVU1278
 153:Modules/include/MAVLink/common/../mavlink_sha256.h ****     D += DD;
 3366              		.loc 4 153 7 is_stmt 0 view .LVU1279
 3367 0c1e 059B     		ldr	r3, [sp, #20]
 3368 0c20 3344     		add	r3, r3, r6
 3369 0c22 3893     		str	r3, [sp, #224]
 154:Modules/include/MAVLink/common/../mavlink_sha256.h ****     E += EE;
 3370              		.loc 4 154 5 is_stmt 1 view .LVU1280
 154:Modules/include/MAVLink/common/../mavlink_sha256.h ****     E += EE;
 3371              		.loc 4 154 7 is_stmt 0 view .LVU1281
 3372 0c24 069B     		ldr	r3, [sp, #24]
 3373 0c26 4344     		add	r3, r3, r8
 3374 0c28 3993     		str	r3, [sp, #228]
 155:Modules/include/MAVLink/common/../mavlink_sha256.h ****     F += FF;
 3375              		.loc 4 155 5 is_stmt 1 view .LVU1282
 155:Modules/include/MAVLink/common/../mavlink_sha256.h ****     F += FF;
 3376              		.loc 4 155 7 is_stmt 0 view .LVU1283
 3377 0c2a 079B     		ldr	r3, [sp, #28]
 3378 0c2c 0B44     		add	r3, r3, r1
 3379 0c2e 3A93     		str	r3, [sp, #232]
 156:Modules/include/MAVLink/common/../mavlink_sha256.h ****     G += GG;
 3380              		.loc 4 156 5 is_stmt 1 view .LVU1284
 156:Modules/include/MAVLink/common/../mavlink_sha256.h ****     G += GG;
 3381              		.loc 4 156 7 is_stmt 0 view .LVU1285
 3382 0c30 089B     		ldr	r3, [sp, #32]
 3383 0c32 7344     		add	r3, r3, lr
 3384 0c34 3B93     		str	r3, [sp, #236]
 157:Modules/include/MAVLink/common/../mavlink_sha256.h ****     H += HH;
 3385              		.loc 4 157 5 is_stmt 1 view .LVU1286
 157:Modules/include/MAVLink/common/../mavlink_sha256.h ****     H += HH;
 3386              		.loc 4 157 7 is_stmt 0 view .LVU1287
 3387 0c36 099B     		ldr	r3, [sp, #36]
 3388 0c38 6344     		add	r3, r3, ip
 3389 0c3a 3C93     		str	r3, [sp, #240]
 158:Modules/include/MAVLink/common/../mavlink_sha256.h **** }
 3390              		.loc 4 158 5 is_stmt 1 view .LVU1288
 158:Modules/include/MAVLink/common/../mavlink_sha256.h **** }
 3391              		.loc 4 158 7 is_stmt 0 view .LVU1289
 3392 0c3c 0A9B     		ldr	r3, [sp, #40]
 3393 0c3e 4B44     		add	r3, r3, r9
 3394 0c40 3D93     		str	r3, [sp, #244]
 3395              	.LVL343:
 158:Modules/include/MAVLink/common/../mavlink_sha256.h **** }
 3396              		.loc 4 158 7 view .LVU1290
 3397              	.LBE315:
 3398              	.LBE314:
 3399              		.loc 4 193 6 is_stmt 1 view .LVU1291
 3400              		.loc 4 193 13 is_stmt 0 view .LVU1292
ARM GAS  C:\Users\luoha\AppData\Local\Temp\cctfed2n.s 			page 103


 3401 0c42 0B9D     		ldr	r5, [sp, #44]
 3402 0c44 46E7     		b	.L92
 3403              	.LVL344:
 3404              	.L178:
 3405              		.loc 4 193 13 view .LVU1293
 3406 0c46 DDF834B0 		ldr	fp, [sp, #52]
 3407              	.LVL345:
 3408              		.loc 4 193 13 view .LVU1294
 3409 0c4a CDF82CA0 		str	r10, [sp, #44]
 3410 0c4e DDF838A0 		ldr	r10, [sp, #56]
 3411              	.LVL346:
 3412              		.loc 4 193 13 view .LVU1295
 3413              	.LBE312:
 3414              	.LBE318:
 3415              	.LBE310:
 3416              	.LBE309:
 139:Modules/include/MAVLink/common/../mavlink_helpers.h **** 	if (memcmp(signature, incoming_signature, 6) != 0) {
 3417              		.loc 2 139 2 is_stmt 1 view .LVU1296
 3418              	.LBB319:
 3419              	.LBI319:
 194:Modules/include/MAVLink/common/../mavlink_sha256.h **** 	}
 195:Modules/include/MAVLink/common/../mavlink_sha256.h ****     }
 196:Modules/include/MAVLink/common/../mavlink_sha256.h **** }
 197:Modules/include/MAVLink/common/../mavlink_sha256.h **** 
 198:Modules/include/MAVLink/common/../mavlink_sha256.h **** /*
 199:Modules/include/MAVLink/common/../mavlink_sha256.h ****   get first 48 bits of final sha256 hash
 200:Modules/include/MAVLink/common/../mavlink_sha256.h ****  */
 201:Modules/include/MAVLink/common/../mavlink_sha256.h **** MAVLINK_HELPER void mavlink_sha256_final_48(mavlink_sha256_ctx *m, uint8_t result[6])
 3420              		.loc 4 201 21 view .LVU1297
 3421              	.LBB320:
 202:Modules/include/MAVLink/common/../mavlink_sha256.h **** {
 203:Modules/include/MAVLink/common/../mavlink_sha256.h ****     unsigned char zeros[72];
 3422              		.loc 4 203 5 view .LVU1298
 204:Modules/include/MAVLink/common/../mavlink_sha256.h ****     unsigned offset = (m->sz[0] / 8) % 64;
 3423              		.loc 4 204 5 view .LVU1299
 3424              		.loc 4 204 29 is_stmt 0 view .LVU1300
 3425 0c52 349B     		ldr	r3, [sp, #208]
 3426              		.loc 4 204 33 view .LVU1301
 3427 0c54 DC08     		lsrs	r4, r3, #3
 3428              	.LVL347:
 205:Modules/include/MAVLink/common/../mavlink_sha256.h ****     unsigned int dstart = (120 - offset - 1) % 64 + 1;
 3429              		.loc 4 205 5 is_stmt 1 view .LVU1302
 3430 0c56 C4F17704 		rsb	r4, r4, #119
 3431              	.LVL348:
 3432              		.loc 4 205 5 is_stmt 0 view .LVU1303
 3433 0c5a 04F03F04 		and	r4, r4, #63
 3434              		.loc 4 205 18 view .LVU1304
 3435 0c5e 671C     		adds	r7, r4, #1
 3436              	.LVL349:
 206:Modules/include/MAVLink/common/../mavlink_sha256.h ****     uint8_t *p = (uint8_t *)&m->counter[0];
 3437              		.loc 4 206 5 is_stmt 1 view .LVU1305
 207:Modules/include/MAVLink/common/../mavlink_sha256.h ****     
 208:Modules/include/MAVLink/common/../mavlink_sha256.h ****     *zeros = 0x80;
 3438              		.loc 4 208 5 view .LVU1306
 3439              		.loc 4 208 12 is_stmt 0 view .LVU1307
 3440 0c60 22AE     		add	r6, sp, #136
 3441 0c62 8023     		movs	r3, #128
ARM GAS  C:\Users\luoha\AppData\Local\Temp\cctfed2n.s 			page 104


 3442              	.LVL350:
 3443              		.loc 4 208 12 view .LVU1308
 3444 0c64 8DF88830 		strb	r3, [sp, #136]
 209:Modules/include/MAVLink/common/../mavlink_sha256.h ****     memset (zeros + 1, 0, sizeof(zeros) - 1);
 3445              		.loc 4 209 5 is_stmt 1 view .LVU1309
 3446 0c68 4722     		movs	r2, #71
 3447 0c6a 0021     		movs	r1, #0
 3448 0c6c 0DF18900 		add	r0, sp, #137
 3449 0c70 FFF7FEFF 		bl	memset
 3450              	.LVL351:
 210:Modules/include/MAVLink/common/../mavlink_sha256.h ****     zeros[dstart+7] = (m->sz[0] >> 0) & 0xff;
 3451              		.loc 4 210 5 view .LVU1310
 3452              		.loc 4 210 33 is_stmt 0 view .LVU1311
 3453 0c74 349D     		ldr	r5, [sp, #208]
 3454              		.loc 4 210 17 view .LVU1312
 3455 0c76 04F10803 		add	r3, r4, #8
 3456              		.loc 4 210 21 view .LVU1313
 3457 0c7a F554     		strb	r5, [r6, r3]
 211:Modules/include/MAVLink/common/../mavlink_sha256.h ****     zeros[dstart+6] = (m->sz[0] >> 8) & 0xff;
 3458              		.loc 4 211 5 is_stmt 1 view .LVU1314
 3459              		.loc 4 211 33 is_stmt 0 view .LVU1315
 3460 0c7c 2A0A     		lsrs	r2, r5, #8
 3461              		.loc 4 211 17 view .LVU1316
 3462 0c7e E31D     		adds	r3, r4, #7
 3463              		.loc 4 211 21 view .LVU1317
 3464 0c80 F254     		strb	r2, [r6, r3]
 212:Modules/include/MAVLink/common/../mavlink_sha256.h ****     zeros[dstart+5] = (m->sz[0] >> 16) & 0xff;
 3465              		.loc 4 212 5 is_stmt 1 view .LVU1318
 3466              		.loc 4 212 33 is_stmt 0 view .LVU1319
 3467 0c82 2A0C     		lsrs	r2, r5, #16
 3468              		.loc 4 212 17 view .LVU1320
 3469 0c84 A31D     		adds	r3, r4, #6
 3470              		.loc 4 212 21 view .LVU1321
 3471 0c86 F254     		strb	r2, [r6, r3]
 213:Modules/include/MAVLink/common/../mavlink_sha256.h ****     zeros[dstart+4] = (m->sz[0] >> 24) & 0xff;
 3472              		.loc 4 213 5 is_stmt 1 view .LVU1322
 3473              		.loc 4 213 33 is_stmt 0 view .LVU1323
 3474 0c88 2A0E     		lsrs	r2, r5, #24
 3475              		.loc 4 213 17 view .LVU1324
 3476 0c8a 631D     		adds	r3, r4, #5
 3477              		.loc 4 213 21 view .LVU1325
 3478 0c8c F254     		strb	r2, [r6, r3]
 214:Modules/include/MAVLink/common/../mavlink_sha256.h ****     zeros[dstart+3] = (m->sz[1] >> 0) & 0xff;
 3479              		.loc 4 214 5 is_stmt 1 view .LVU1326
 3480              		.loc 4 214 33 is_stmt 0 view .LVU1327
 3481 0c8e 359B     		ldr	r3, [sp, #212]
 3482              		.loc 4 214 17 view .LVU1328
 3483 0c90 221D     		adds	r2, r4, #4
 3484              		.loc 4 214 21 view .LVU1329
 3485 0c92 B354     		strb	r3, [r6, r2]
 215:Modules/include/MAVLink/common/../mavlink_sha256.h ****     zeros[dstart+2] = (m->sz[1] >> 8) & 0xff;
 3486              		.loc 4 215 5 is_stmt 1 view .LVU1330
 3487              		.loc 4 215 33 is_stmt 0 view .LVU1331
 3488 0c94 190A     		lsrs	r1, r3, #8
 3489              		.loc 4 215 17 view .LVU1332
 3490 0c96 E21C     		adds	r2, r4, #3
 3491              		.loc 4 215 21 view .LVU1333
ARM GAS  C:\Users\luoha\AppData\Local\Temp\cctfed2n.s 			page 105


 3492 0c98 B154     		strb	r1, [r6, r2]
 216:Modules/include/MAVLink/common/../mavlink_sha256.h ****     zeros[dstart+1] = (m->sz[1] >> 16) & 0xff;
 3493              		.loc 4 216 5 is_stmt 1 view .LVU1334
 3494              		.loc 4 216 33 is_stmt 0 view .LVU1335
 3495 0c9a 190C     		lsrs	r1, r3, #16
 3496              		.loc 4 216 17 view .LVU1336
 3497 0c9c A21C     		adds	r2, r4, #2
 3498              		.loc 4 216 21 view .LVU1337
 3499 0c9e B154     		strb	r1, [r6, r2]
 217:Modules/include/MAVLink/common/../mavlink_sha256.h ****     zeros[dstart+0] = (m->sz[1] >> 24) & 0xff;
 3500              		.loc 4 217 5 is_stmt 1 view .LVU1338
 3501              		.loc 4 217 33 is_stmt 0 view .LVU1339
 3502 0ca0 1B0E     		lsrs	r3, r3, #24
 3503              		.loc 4 217 21 view .LVU1340
 3504 0ca2 F355     		strb	r3, [r6, r7]
 218:Modules/include/MAVLink/common/../mavlink_sha256.h **** 
 219:Modules/include/MAVLink/common/../mavlink_sha256.h ****     mavlink_sha256_update(m, zeros, dstart + 8);
 3505              		.loc 4 219 5 is_stmt 1 view .LVU1341
 3506              		.loc 4 219 44 is_stmt 0 view .LVU1342
 3507 0ca4 04F10903 		add	r3, r4, #9
 3508 0ca8 1A46     		mov	r2, r3
 3509              	.LVL352:
 3510              	.LBB321:
 3511              	.LBI321:
 161:Modules/include/MAVLink/common/../mavlink_sha256.h **** {
 3512              		.loc 4 161 21 is_stmt 1 view .LVU1343
 3513              	.LBB322:
 163:Modules/include/MAVLink/common/../mavlink_sha256.h ****     uint32_t old_sz = m->sz[0];
 3514              		.loc 4 163 5 view .LVU1344
 164:Modules/include/MAVLink/common/../mavlink_sha256.h ****     uint32_t offset;
 3515              		.loc 4 164 5 view .LVU1345
 165:Modules/include/MAVLink/common/../mavlink_sha256.h **** 
 3516              		.loc 4 165 5 view .LVU1346
 167:Modules/include/MAVLink/common/../mavlink_sha256.h ****     if (m->sz[0] < old_sz)
 3517              		.loc 4 167 5 view .LVU1347
 167:Modules/include/MAVLink/common/../mavlink_sha256.h ****     if (m->sz[0] < old_sz)
 3518              		.loc 4 167 14 is_stmt 0 view .LVU1348
 3519 0caa 05EBC303 		add	r3, r5, r3, lsl #3
 3520 0cae 3493     		str	r3, [sp, #208]
 168:Modules/include/MAVLink/common/../mavlink_sha256.h **** 	++m->sz[1];
 3521              		.loc 4 168 5 is_stmt 1 view .LVU1349
 168:Modules/include/MAVLink/common/../mavlink_sha256.h **** 	++m->sz[1];
 3522              		.loc 4 168 8 is_stmt 0 view .LVU1350
 3523 0cb0 9D42     		cmp	r5, r3
 3524 0cb2 02D9     		bls	.L104
 169:Modules/include/MAVLink/common/../mavlink_sha256.h ****     offset = (old_sz / 8) % 64;
 3525              		.loc 4 169 2 is_stmt 1 view .LVU1351
 169:Modules/include/MAVLink/common/../mavlink_sha256.h ****     offset = (old_sz / 8) % 64;
 3526              		.loc 4 169 9 is_stmt 0 view .LVU1352
 3527 0cb4 359B     		ldr	r3, [sp, #212]
 169:Modules/include/MAVLink/common/../mavlink_sha256.h ****     offset = (old_sz / 8) % 64;
 3528              		.loc 4 169 2 view .LVU1353
 3529 0cb6 0133     		adds	r3, r3, #1
 3530 0cb8 3593     		str	r3, [sp, #212]
 3531              	.L104:
 170:Modules/include/MAVLink/common/../mavlink_sha256.h ****     while(len > 0){
 3532              		.loc 4 170 5 is_stmt 1 view .LVU1354
ARM GAS  C:\Users\luoha\AppData\Local\Temp\cctfed2n.s 			page 106


 170:Modules/include/MAVLink/common/../mavlink_sha256.h ****     while(len > 0){
 3533              		.loc 4 170 12 is_stmt 0 view .LVU1355
 3534 0cba C5F3C505 		ubfx	r5, r5, #3, #6
 3535              	.LVL353:
 171:Modules/include/MAVLink/common/../mavlink_sha256.h **** 	uint32_t l = 64 - offset;
 3536              		.loc 4 171 5 is_stmt 1 view .LVU1356
 163:Modules/include/MAVLink/common/../mavlink_sha256.h ****     uint32_t old_sz = m->sz[0];
 3537              		.loc 4 163 26 is_stmt 0 view .LVU1357
 3538 0cbe 22AB     		add	r3, sp, #136
 3539 0cc0 CDF834B0 		str	fp, [sp, #52]
 3540 0cc4 CDF838A0 		str	r10, [sp, #56]
 3541 0cc8 9246     		mov	r10, r2
 3542 0cca 9B46     		mov	fp, r3
 171:Modules/include/MAVLink/common/../mavlink_sha256.h **** 	uint32_t l = 64 - offset;
 3543              		.loc 4 171 10 view .LVU1358
 3544 0ccc 0BE0     		b	.L105
 3545              	.LVL354:
 3546              	.L106:
 3547              	.LBB323:
 176:Modules/include/MAVLink/common/../mavlink_sha256.h **** 	offset += l;
 3548              		.loc 4 176 2 is_stmt 1 view .LVU1359
 3549 0cce 2246     		mov	r2, r4
 3550 0cd0 5946     		mov	r1, fp
 3551 0cd2 3EAB     		add	r3, sp, #248
 3552 0cd4 5819     		adds	r0, r3, r5
 3553 0cd6 FFF7FEFF 		bl	memcpy
 3554              	.LVL355:
 177:Modules/include/MAVLink/common/../mavlink_sha256.h **** 	p += l;
 3555              		.loc 4 177 2 view .LVU1360
 177:Modules/include/MAVLink/common/../mavlink_sha256.h **** 	p += l;
 3556              		.loc 4 177 9 is_stmt 0 view .LVU1361
 3557 0cda 2544     		add	r5, r5, r4
 3558              	.LVL356:
 178:Modules/include/MAVLink/common/../mavlink_sha256.h **** 	len -= l;
 3559              		.loc 4 178 2 is_stmt 1 view .LVU1362
 178:Modules/include/MAVLink/common/../mavlink_sha256.h **** 	len -= l;
 3560              		.loc 4 178 4 is_stmt 0 view .LVU1363
 3561 0cdc A344     		add	fp, fp, r4
 3562              	.LVL357:
 179:Modules/include/MAVLink/common/../mavlink_sha256.h **** 	if(offset == 64){
 3563              		.loc 4 179 2 is_stmt 1 view .LVU1364
 179:Modules/include/MAVLink/common/../mavlink_sha256.h **** 	if(offset == 64){
 3564              		.loc 4 179 6 is_stmt 0 view .LVU1365
 3565 0cde AAEB040A 		sub	r10, r10, r4
 3566              	.LVL358:
 180:Modules/include/MAVLink/common/../mavlink_sha256.h **** 	    int i;
 3567              		.loc 4 180 2 is_stmt 1 view .LVU1366
 180:Modules/include/MAVLink/common/../mavlink_sha256.h **** 	    int i;
 3568              		.loc 4 180 4 is_stmt 0 view .LVU1367
 3569 0ce2 402D     		cmp	r5, #64
 3570 0ce4 09D0     		beq	.L181
 3571              	.LVL359:
 3572              	.L105:
 180:Modules/include/MAVLink/common/../mavlink_sha256.h **** 	    int i;
 3573              		.loc 4 180 4 view .LVU1368
 3574              	.LBE323:
 171:Modules/include/MAVLink/common/../mavlink_sha256.h **** 	uint32_t l = 64 - offset;
ARM GAS  C:\Users\luoha\AppData\Local\Temp\cctfed2n.s 			page 107


 3575              		.loc 4 171 10 is_stmt 1 view .LVU1369
 3576 0ce6 BAF1000F 		cmp	r10, #0
 3577 0cea 00F0BB80 		beq	.L182
 3578              	.LBB330:
 172:Modules/include/MAVLink/common/../mavlink_sha256.h ****         if (len < l) {
 3579              		.loc 4 172 2 view .LVU1370
 172:Modules/include/MAVLink/common/../mavlink_sha256.h ****         if (len < l) {
 3580              		.loc 4 172 11 is_stmt 0 view .LVU1371
 3581 0cee C5F14004 		rsb	r4, r5, #64
 3582              	.LVL360:
 173:Modules/include/MAVLink/common/../mavlink_sha256.h ****             l = len;
 3583              		.loc 4 173 9 is_stmt 1 view .LVU1372
 173:Modules/include/MAVLink/common/../mavlink_sha256.h ****             l = len;
 3584              		.loc 4 173 12 is_stmt 0 view .LVU1373
 3585 0cf2 5445     		cmp	r4, r10
 3586 0cf4 EBD9     		bls	.L106
 174:Modules/include/MAVLink/common/../mavlink_sha256.h ****         }
 3587              		.loc 4 174 15 view .LVU1374
 3588 0cf6 5446     		mov	r4, r10
 3589              	.LVL361:
 174:Modules/include/MAVLink/common/../mavlink_sha256.h ****         }
 3590              		.loc 4 174 15 view .LVU1375
 3591 0cf8 E9E7     		b	.L106
 3592              	.LVL362:
 3593              	.L181:
 3594              	.LBB324:
 184:Modules/include/MAVLink/common/../mavlink_sha256.h ****                 const uint8_t *p1 = (const uint8_t *)&u[i];
 3595              		.loc 4 184 13 view .LVU1376
 3596 0cfa 0023     		movs	r3, #0
 3597              	.LVL363:
 3598              	.L107:
 184:Modules/include/MAVLink/common/../mavlink_sha256.h ****                 const uint8_t *p1 = (const uint8_t *)&u[i];
 3599              		.loc 4 184 18 is_stmt 1 view .LVU1377
 184:Modules/include/MAVLink/common/../mavlink_sha256.h ****                 const uint8_t *p1 = (const uint8_t *)&u[i];
 3600              		.loc 4 184 6 is_stmt 0 view .LVU1378
 3601 0cfc 0F2B     		cmp	r3, #15
 3602 0cfe 17DC     		bgt	.L183
 3603              	.LBB325:
 185:Modules/include/MAVLink/common/../mavlink_sha256.h ****                 uint8_t *p2 = (uint8_t *)&current[i];
 3604              		.loc 4 185 17 is_stmt 1 view .LVU1379
 185:Modules/include/MAVLink/common/../mavlink_sha256.h ****                 uint8_t *p2 = (uint8_t *)&current[i];
 3605              		.loc 4 185 32 is_stmt 0 view .LVU1380
 3606 0d00 3EA8     		add	r0, sp, #248
 3607 0d02 00EB8301 		add	r1, r0, r3, lsl #2
 3608              	.LVL364:
 186:Modules/include/MAVLink/common/../mavlink_sha256.h ****                 p2[0] = p1[3];
 3609              		.loc 4 186 17 is_stmt 1 view .LVU1381
 186:Modules/include/MAVLink/common/../mavlink_sha256.h ****                 p2[0] = p1[3];
 3610              		.loc 4 186 26 is_stmt 0 view .LVU1382
 3611 0d06 12AA     		add	r2, sp, #72
 3612              	.LVL365:
 186:Modules/include/MAVLink/common/../mavlink_sha256.h ****                 p2[0] = p1[3];
 3613              		.loc 4 186 26 view .LVU1383
 3614 0d08 02EB8302 		add	r2, r2, r3, lsl #2
 3615              	.LVL366:
 187:Modules/include/MAVLink/common/../mavlink_sha256.h ****                 p2[1] = p1[2];
 3616              		.loc 4 187 17 is_stmt 1 view .LVU1384
ARM GAS  C:\Users\luoha\AppData\Local\Temp\cctfed2n.s 			page 108


 187:Modules/include/MAVLink/common/../mavlink_sha256.h ****                 p2[1] = p1[2];
 3617              		.loc 4 187 23 is_stmt 0 view .LVU1385
 3618 0d0c CC78     		ldrb	r4, [r1, #3]	@ zero_extendqisi2
 3619 0d0e 12AD     		add	r5, sp, #72
 3620              	.LVL367:
 187:Modules/include/MAVLink/common/../mavlink_sha256.h ****                 p2[1] = p1[2];
 3621              		.loc 4 187 23 view .LVU1386
 3622 0d10 05F82340 		strb	r4, [r5, r3, lsl #2]
 188:Modules/include/MAVLink/common/../mavlink_sha256.h ****                 p2[2] = p1[1];
 3623              		.loc 4 188 17 is_stmt 1 view .LVU1387
 188:Modules/include/MAVLink/common/../mavlink_sha256.h ****                 p2[2] = p1[1];
 3624              		.loc 4 188 23 is_stmt 0 view .LVU1388
 3625 0d14 8C78     		ldrb	r4, [r1, #2]	@ zero_extendqisi2
 3626 0d16 5470     		strb	r4, [r2, #1]
 189:Modules/include/MAVLink/common/../mavlink_sha256.h ****                 p2[3] = p1[0];
 3627              		.loc 4 189 17 is_stmt 1 view .LVU1389
 189:Modules/include/MAVLink/common/../mavlink_sha256.h ****                 p2[3] = p1[0];
 3628              		.loc 4 189 23 is_stmt 0 view .LVU1390
 3629 0d18 4978     		ldrb	r1, [r1, #1]	@ zero_extendqisi2
 3630              	.LVL368:
 189:Modules/include/MAVLink/common/../mavlink_sha256.h ****                 p2[3] = p1[0];
 3631              		.loc 4 189 23 view .LVU1391
 3632 0d1a 9170     		strb	r1, [r2, #2]
 190:Modules/include/MAVLink/common/../mavlink_sha256.h **** 	    }
 3633              		.loc 4 190 17 is_stmt 1 view .LVU1392
 190:Modules/include/MAVLink/common/../mavlink_sha256.h **** 	    }
 3634              		.loc 4 190 27 is_stmt 0 view .LVU1393
 3635 0d1c 10F82310 		ldrb	r1, [r0, r3, lsl #2]	@ zero_extendqisi2
 190:Modules/include/MAVLink/common/../mavlink_sha256.h **** 	    }
 3636              		.loc 4 190 23 view .LVU1394
 3637 0d20 D170     		strb	r1, [r2, #3]
 3638              	.LBE325:
 184:Modules/include/MAVLink/common/../mavlink_sha256.h ****                 const uint8_t *p1 = (const uint8_t *)&u[i];
 3639              		.loc 4 184 26 is_stmt 1 view .LVU1395
 184:Modules/include/MAVLink/common/../mavlink_sha256.h ****                 const uint8_t *p1 = (const uint8_t *)&u[i];
 3640              		.loc 4 184 27 is_stmt 0 view .LVU1396
 3641 0d22 0133     		adds	r3, r3, #1
 3642              	.LVL369:
 184:Modules/include/MAVLink/common/../mavlink_sha256.h ****                 const uint8_t *p1 = (const uint8_t *)&u[i];
 3643              		.loc 4 184 27 view .LVU1397
 3644 0d24 EAE7     		b	.L107
 3645              	.L195:
 3646 0d26 00BF     		.align	2
 3647              	.L194:
 3648 0d28 00000000 		.word	.LANCHOR5
 3649 0d2c 16010000 		.word	.LANCHOR1+278
 3650              	.LVL370:
 3651              	.L183:
 192:Modules/include/MAVLink/common/../mavlink_sha256.h **** 	    offset = 0;
 3652              		.loc 4 192 6 is_stmt 1 view .LVU1398
 3653              	.LBB326:
 3654              	.LBI326:
 114:Modules/include/MAVLink/common/../mavlink_sha256.h **** {
 3655              		.loc 4 114 20 view .LVU1399
 3656              	.LBB327:
 116:Modules/include/MAVLink/common/../mavlink_sha256.h ****     uint32_t data[64];
 3657              		.loc 4 116 5 view .LVU1400
ARM GAS  C:\Users\luoha\AppData\Local\Temp\cctfed2n.s 			page 109


 117:Modules/include/MAVLink/common/../mavlink_sha256.h ****     int i;
 3658              		.loc 4 117 5 view .LVU1401
 118:Modules/include/MAVLink/common/../mavlink_sha256.h **** 
 3659              		.loc 4 118 5 view .LVU1402
 120:Modules/include/MAVLink/common/../mavlink_sha256.h ****     BB = B;
 3660              		.loc 4 120 5 view .LVU1403
 120:Modules/include/MAVLink/common/../mavlink_sha256.h ****     BB = B;
 3661              		.loc 4 120 8 is_stmt 0 view .LVU1404
 3662 0d30 369B     		ldr	r3, [sp, #216]
 3663              	.LVL371:
 120:Modules/include/MAVLink/common/../mavlink_sha256.h ****     BB = B;
 3664              		.loc 4 120 8 view .LVU1405
 3665 0d32 0393     		str	r3, [sp, #12]
 3666              	.LVL372:
 121:Modules/include/MAVLink/common/../mavlink_sha256.h ****     CC = C;
 3667              		.loc 4 121 5 is_stmt 1 view .LVU1406
 121:Modules/include/MAVLink/common/../mavlink_sha256.h ****     CC = C;
 3668              		.loc 4 121 8 is_stmt 0 view .LVU1407
 3669 0d34 379B     		ldr	r3, [sp, #220]
 3670              	.LVL373:
 121:Modules/include/MAVLink/common/../mavlink_sha256.h ****     CC = C;
 3671              		.loc 4 121 8 view .LVU1408
 3672 0d36 0493     		str	r3, [sp, #16]
 3673              	.LVL374:
 122:Modules/include/MAVLink/common/../mavlink_sha256.h ****     DD = D;
 3674              		.loc 4 122 5 is_stmt 1 view .LVU1409
 122:Modules/include/MAVLink/common/../mavlink_sha256.h ****     DD = D;
 3675              		.loc 4 122 8 is_stmt 0 view .LVU1410
 3676 0d38 389B     		ldr	r3, [sp, #224]
 3677              	.LVL375:
 122:Modules/include/MAVLink/common/../mavlink_sha256.h ****     DD = D;
 3678              		.loc 4 122 8 view .LVU1411
 3679 0d3a 0593     		str	r3, [sp, #20]
 3680              	.LVL376:
 123:Modules/include/MAVLink/common/../mavlink_sha256.h ****     EE = E;
 3681              		.loc 4 123 5 is_stmt 1 view .LVU1412
 123:Modules/include/MAVLink/common/../mavlink_sha256.h ****     EE = E;
 3682              		.loc 4 123 8 is_stmt 0 view .LVU1413
 3683 0d3c 399B     		ldr	r3, [sp, #228]
 3684              	.LVL377:
 123:Modules/include/MAVLink/common/../mavlink_sha256.h ****     EE = E;
 3685              		.loc 4 123 8 view .LVU1414
 3686 0d3e 0693     		str	r3, [sp, #24]
 3687              	.LVL378:
 124:Modules/include/MAVLink/common/../mavlink_sha256.h ****     FF = F;
 3688              		.loc 4 124 5 is_stmt 1 view .LVU1415
 124:Modules/include/MAVLink/common/../mavlink_sha256.h ****     FF = F;
 3689              		.loc 4 124 8 is_stmt 0 view .LVU1416
 3690 0d40 3A9B     		ldr	r3, [sp, #232]
 3691              	.LVL379:
 124:Modules/include/MAVLink/common/../mavlink_sha256.h ****     FF = F;
 3692              		.loc 4 124 8 view .LVU1417
 3693 0d42 0793     		str	r3, [sp, #28]
 3694              	.LVL380:
 125:Modules/include/MAVLink/common/../mavlink_sha256.h ****     GG = G;
 3695              		.loc 4 125 5 is_stmt 1 view .LVU1418
 125:Modules/include/MAVLink/common/../mavlink_sha256.h ****     GG = G;
ARM GAS  C:\Users\luoha\AppData\Local\Temp\cctfed2n.s 			page 110


 3696              		.loc 4 125 8 is_stmt 0 view .LVU1419
 3697 0d44 3B9B     		ldr	r3, [sp, #236]
 3698              	.LVL381:
 125:Modules/include/MAVLink/common/../mavlink_sha256.h ****     GG = G;
 3699              		.loc 4 125 8 view .LVU1420
 3700 0d46 0893     		str	r3, [sp, #32]
 3701              	.LVL382:
 126:Modules/include/MAVLink/common/../mavlink_sha256.h ****     HH = H;
 3702              		.loc 4 126 5 is_stmt 1 view .LVU1421
 126:Modules/include/MAVLink/common/../mavlink_sha256.h ****     HH = H;
 3703              		.loc 4 126 8 is_stmt 0 view .LVU1422
 3704 0d48 3C9B     		ldr	r3, [sp, #240]
 3705              	.LVL383:
 126:Modules/include/MAVLink/common/../mavlink_sha256.h ****     HH = H;
 3706              		.loc 4 126 8 view .LVU1423
 3707 0d4a 0993     		str	r3, [sp, #36]
 3708              	.LVL384:
 127:Modules/include/MAVLink/common/../mavlink_sha256.h **** 
 3709              		.loc 4 127 5 is_stmt 1 view .LVU1424
 127:Modules/include/MAVLink/common/../mavlink_sha256.h **** 
 3710              		.loc 4 127 8 is_stmt 0 view .LVU1425
 3711 0d4c 3D9B     		ldr	r3, [sp, #244]
 3712              	.LVL385:
 127:Modules/include/MAVLink/common/../mavlink_sha256.h **** 
 3713              		.loc 4 127 8 view .LVU1426
 3714 0d4e 0A93     		str	r3, [sp, #40]
 3715              	.LVL386:
 129:Modules/include/MAVLink/common/../mavlink_sha256.h **** 	data[i] = in[i];
 3716              		.loc 4 129 5 is_stmt 1 view .LVU1427
 129:Modules/include/MAVLink/common/../mavlink_sha256.h **** 	data[i] = in[i];
 3717              		.loc 4 129 12 is_stmt 0 view .LVU1428
 3718 0d50 0023     		movs	r3, #0
 3719              	.LVL387:
 3720              	.L110:
 129:Modules/include/MAVLink/common/../mavlink_sha256.h **** 	data[i] = in[i];
 3721              		.loc 4 129 17 is_stmt 1 view .LVU1429
 129:Modules/include/MAVLink/common/../mavlink_sha256.h **** 	data[i] = in[i];
 3722              		.loc 4 129 5 is_stmt 0 view .LVU1430
 3723 0d52 0F2B     		cmp	r3, #15
 3724 0d54 0ADC     		bgt	.L184
 130:Modules/include/MAVLink/common/../mavlink_sha256.h ****     for (i = 16; i < 64; ++i)
 3725              		.loc 4 130 2 is_stmt 1 view .LVU1431
 130:Modules/include/MAVLink/common/../mavlink_sha256.h ****     for (i = 16; i < 64; ++i)
 3726              		.loc 4 130 14 is_stmt 0 view .LVU1432
 3727 0d56 8EAA     		add	r2, sp, #568
 3728 0d58 02EB8302 		add	r2, r2, r3, lsl #2
 3729 0d5c A2F5F872 		sub	r2, r2, #496
 3730 0d60 1168     		ldr	r1, [r2]
 130:Modules/include/MAVLink/common/../mavlink_sha256.h ****     for (i = 16; i < 64; ++i)
 3731              		.loc 4 130 10 view .LVU1433
 3732 0d62 4EAA     		add	r2, sp, #312
 3733 0d64 42F82310 		str	r1, [r2, r3, lsl #2]
 129:Modules/include/MAVLink/common/../mavlink_sha256.h **** 	data[i] = in[i];
 3734              		.loc 4 129 25 is_stmt 1 view .LVU1434
 3735 0d68 0133     		adds	r3, r3, #1
 3736              	.LVL388:
 129:Modules/include/MAVLink/common/../mavlink_sha256.h **** 	data[i] = in[i];
ARM GAS  C:\Users\luoha\AppData\Local\Temp\cctfed2n.s 			page 111


 3737              		.loc 4 129 25 is_stmt 0 view .LVU1435
 3738 0d6a F2E7     		b	.L110
 3739              	.L184:
 131:Modules/include/MAVLink/common/../mavlink_sha256.h **** 	data[i] = sigma1(data[i-2]) + data[i-7] + 
 3740              		.loc 4 131 12 view .LVU1436
 3741 0d6c 1022     		movs	r2, #16
 3742 0d6e 20E0     		b	.L112
 3743              	.LVL389:
 3744              	.L113:
 132:Modules/include/MAVLink/common/../mavlink_sha256.h **** 	    sigma0(data[i-15]) + data[i - 16];
 3745              		.loc 4 132 2 is_stmt 1 view .LVU1437
 132:Modules/include/MAVLink/common/../mavlink_sha256.h **** 	    sigma0(data[i-15]) + data[i - 16];
 3746              		.loc 4 132 12 is_stmt 0 view .LVU1438
 3747 0d70 931E     		subs	r3, r2, #2
 3748 0d72 4EA9     		add	r1, sp, #312
 3749 0d74 51F82300 		ldr	r0, [r1, r3, lsl #2]
 3750 0d78 4FEAF043 		ror	r3, r0, #19
 3751 0d7c 83EA7043 		eor	r3, r3, r0, ror #17
 3752 0d80 83EA9023 		eor	r3, r3, r0, lsr #10
 132:Modules/include/MAVLink/common/../mavlink_sha256.h **** 	    sigma0(data[i-15]) + data[i - 16];
 3753              		.loc 4 132 38 view .LVU1439
 3754 0d84 D01F     		subs	r0, r2, #7
 132:Modules/include/MAVLink/common/../mavlink_sha256.h **** 	    sigma0(data[i-15]) + data[i - 16];
 3755              		.loc 4 132 36 view .LVU1440
 3756 0d86 51F82000 		ldr	r0, [r1, r0, lsl #2]
 132:Modules/include/MAVLink/common/../mavlink_sha256.h **** 	    sigma0(data[i-15]) + data[i - 16];
 3757              		.loc 4 132 30 view .LVU1441
 3758 0d8a 0344     		add	r3, r3, r0
 133:Modules/include/MAVLink/common/../mavlink_sha256.h **** 
 3759              		.loc 4 133 6 view .LVU1442
 3760 0d8c A2F10F00 		sub	r0, r2, #15
 3761 0d90 51F82040 		ldr	r4, [r1, r0, lsl #2]
 3762 0d94 4FEAB440 		ror	r0, r4, #18
 3763 0d98 80EAF410 		eor	r0, r0, r4, ror #7
 3764 0d9c 80EAD400 		eor	r0, r0, r4, lsr #3
 132:Modules/include/MAVLink/common/../mavlink_sha256.h **** 	    sigma0(data[i-15]) + data[i - 16];
 3765              		.loc 4 132 42 view .LVU1443
 3766 0da0 0344     		add	r3, r3, r0
 133:Modules/include/MAVLink/common/../mavlink_sha256.h **** 
 3767              		.loc 4 133 34 view .LVU1444
 3768 0da2 A2F11000 		sub	r0, r2, #16
 133:Modules/include/MAVLink/common/../mavlink_sha256.h **** 
 3769              		.loc 4 133 31 view .LVU1445
 3770 0da6 51F82000 		ldr	r0, [r1, r0, lsl #2]
 133:Modules/include/MAVLink/common/../mavlink_sha256.h **** 
 3771              		.loc 4 133 25 view .LVU1446
 3772 0daa 0344     		add	r3, r3, r0
 132:Modules/include/MAVLink/common/../mavlink_sha256.h **** 	    sigma0(data[i-15]) + data[i - 16];
 3773              		.loc 4 132 10 view .LVU1447
 3774 0dac 41F82230 		str	r3, [r1, r2, lsl #2]
 131:Modules/include/MAVLink/common/../mavlink_sha256.h **** 	data[i] = sigma1(data[i-2]) + data[i-7] + 
 3775              		.loc 4 131 26 is_stmt 1 view .LVU1448
 3776 0db0 0132     		adds	r2, r2, #1
 3777              	.LVL390:
 3778              	.L112:
 131:Modules/include/MAVLink/common/../mavlink_sha256.h **** 	data[i] = sigma1(data[i-2]) + data[i-7] + 
 3779              		.loc 4 131 18 view .LVU1449
ARM GAS  C:\Users\luoha\AppData\Local\Temp\cctfed2n.s 			page 112


 131:Modules/include/MAVLink/common/../mavlink_sha256.h **** 	data[i] = sigma1(data[i-2]) + data[i-7] + 
 3780              		.loc 4 131 5 is_stmt 0 view .LVU1450
 3781 0db2 3F2A     		cmp	r2, #63
 3782 0db4 DCDD     		ble	.L113
 127:Modules/include/MAVLink/common/../mavlink_sha256.h **** 
 3783              		.loc 4 127 8 view .LVU1451
 3784 0db6 DDF82890 		ldr	r9, [sp, #40]
 126:Modules/include/MAVLink/common/../mavlink_sha256.h ****     HH = H;
 3785              		.loc 4 126 8 view .LVU1452
 3786 0dba DDF824C0 		ldr	ip, [sp, #36]
 125:Modules/include/MAVLink/common/../mavlink_sha256.h ****     GG = G;
 3787              		.loc 4 125 8 view .LVU1453
 3788 0dbe DDF820E0 		ldr	lr, [sp, #32]
 124:Modules/include/MAVLink/common/../mavlink_sha256.h ****     FF = F;
 3789              		.loc 4 124 8 view .LVU1454
 3790 0dc2 0799     		ldr	r1, [sp, #28]
 123:Modules/include/MAVLink/common/../mavlink_sha256.h ****     EE = E;
 3791              		.loc 4 123 8 view .LVU1455
 3792 0dc4 DDF81880 		ldr	r8, [sp, #24]
 122:Modules/include/MAVLink/common/../mavlink_sha256.h ****     DD = D;
 3793              		.loc 4 122 8 view .LVU1456
 3794 0dc8 059E     		ldr	r6, [sp, #20]
 121:Modules/include/MAVLink/common/../mavlink_sha256.h ****     CC = C;
 3795              		.loc 4 121 8 view .LVU1457
 3796 0dca 049F     		ldr	r7, [sp, #16]
 120:Modules/include/MAVLink/common/../mavlink_sha256.h ****     BB = B;
 3797              		.loc 4 120 8 view .LVU1458
 3798 0dcc 0398     		ldr	r0, [sp, #12]
 135:Modules/include/MAVLink/common/../mavlink_sha256.h **** 	uint32_t T1, T2;
 3799              		.loc 4 135 12 view .LVU1459
 3800 0dce 0025     		movs	r5, #0
 3801 0dd0 2CE0     		b	.L114
 3802              	.LVL391:
 3803              	.L115:
 3804              	.LBB328:
 136:Modules/include/MAVLink/common/../mavlink_sha256.h **** 
 3805              		.loc 4 136 2 is_stmt 1 view .LVU1460
 138:Modules/include/MAVLink/common/../mavlink_sha256.h **** 	T2 = Sigma0(AA) + Maj(AA,BB,CC);
 3806              		.loc 4 138 2 view .LVU1461
 138:Modules/include/MAVLink/common/../mavlink_sha256.h **** 	T2 = Sigma0(AA) + Maj(AA,BB,CC);
 3807              		.loc 4 138 12 is_stmt 0 view .LVU1462
 3808 0dd2 4FEAF123 		ror	r3, r1, #11
 3809 0dd6 83EAB113 		eor	r3, r3, r1, ror #6
 3810 0dda 83EA7163 		eor	r3, r3, r1, ror #25
 138:Modules/include/MAVLink/common/../mavlink_sha256.h **** 	T2 = Sigma0(AA) + Maj(AA,BB,CC);
 3811              		.loc 4 138 10 view .LVU1463
 3812 0dde 4B44     		add	r3, r3, r9
 138:Modules/include/MAVLink/common/../mavlink_sha256.h **** 	T2 = Sigma0(AA) + Maj(AA,BB,CC);
 3813              		.loc 4 138 25 view .LVU1464
 3814 0de0 01EA0E02 		and	r2, r1, lr
 3815 0de4 2CEA0104 		bic	r4, ip, r1
 3816 0de8 6240     		eors	r2, r2, r4
 138:Modules/include/MAVLink/common/../mavlink_sha256.h **** 	T2 = Sigma0(AA) + Maj(AA,BB,CC);
 3817              		.loc 4 138 23 view .LVU1465
 3818 0dea 1344     		add	r3, r3, r2
 138:Modules/include/MAVLink/common/../mavlink_sha256.h **** 	T2 = Sigma0(AA) + Maj(AA,BB,CC);
 3819              		.loc 4 138 69 view .LVU1466
ARM GAS  C:\Users\luoha\AppData\Local\Temp\cctfed2n.s 			page 113


 3820 0dec AD4A     		ldr	r2, .L196
 3821 0dee 52F82520 		ldr	r2, [r2, r5, lsl #2]
 138:Modules/include/MAVLink/common/../mavlink_sha256.h **** 	T2 = Sigma0(AA) + Maj(AA,BB,CC);
 3822              		.loc 4 138 40 view .LVU1467
 3823 0df2 1344     		add	r3, r3, r2
 138:Modules/include/MAVLink/common/../mavlink_sha256.h **** 	T2 = Sigma0(AA) + Maj(AA,BB,CC);
 3824              		.loc 4 138 79 view .LVU1468
 3825 0df4 4EAA     		add	r2, sp, #312
 3826 0df6 52F82520 		ldr	r2, [r2, r5, lsl #2]
 138:Modules/include/MAVLink/common/../mavlink_sha256.h **** 	T2 = Sigma0(AA) + Maj(AA,BB,CC);
 3827              		.loc 4 138 5 view .LVU1469
 3828 0dfa 1344     		add	r3, r3, r2
 3829              	.LVL392:
 139:Modules/include/MAVLink/common/../mavlink_sha256.h **** 			     
 3830              		.loc 4 139 2 is_stmt 1 view .LVU1470
 139:Modules/include/MAVLink/common/../mavlink_sha256.h **** 			     
 3831              		.loc 4 139 7 is_stmt 0 view .LVU1471
 3832 0dfc 4FEA7032 		ror	r2, r0, #13
 3833 0e00 82EAB002 		eor	r2, r2, r0, ror #2
 3834 0e04 82EAB052 		eor	r2, r2, r0, ror #22
 139:Modules/include/MAVLink/common/../mavlink_sha256.h **** 			     
 3835              		.loc 4 139 20 view .LVU1472
 3836 0e08 87EA0604 		eor	r4, r7, r6
 3837 0e0c 0440     		ands	r4, r4, r0
 3838 0e0e 07EA0609 		and	r9, r7, r6
 3839              	.LVL393:
 139:Modules/include/MAVLink/common/../mavlink_sha256.h **** 			     
 3840              		.loc 4 139 20 view .LVU1473
 3841 0e12 84EA0904 		eor	r4, r4, r9
 139:Modules/include/MAVLink/common/../mavlink_sha256.h **** 			     
 3842              		.loc 4 139 5 view .LVU1474
 3843 0e16 2244     		add	r2, r2, r4
 3844              	.LVL394:
 141:Modules/include/MAVLink/common/../mavlink_sha256.h **** 	GG = FF;
 3845              		.loc 4 141 2 is_stmt 1 view .LVU1475
 142:Modules/include/MAVLink/common/../mavlink_sha256.h **** 	FF = EE;
 3846              		.loc 4 142 2 view .LVU1476
 143:Modules/include/MAVLink/common/../mavlink_sha256.h **** 	EE = DD + T1;
 3847              		.loc 4 143 2 view .LVU1477
 144:Modules/include/MAVLink/common/../mavlink_sha256.h **** 	DD = CC;
 3848              		.loc 4 144 2 view .LVU1478
 145:Modules/include/MAVLink/common/../mavlink_sha256.h **** 	CC = BB;
 3849              		.loc 4 145 2 view .LVU1479
 146:Modules/include/MAVLink/common/../mavlink_sha256.h **** 	BB = AA;
 3850              		.loc 4 146 2 view .LVU1480
 147:Modules/include/MAVLink/common/../mavlink_sha256.h **** 	AA = T1 + T2;
 3851              		.loc 4 147 2 view .LVU1481
 148:Modules/include/MAVLink/common/../mavlink_sha256.h ****     }
 3852              		.loc 4 148 2 view .LVU1482
 148:Modules/include/MAVLink/common/../mavlink_sha256.h ****     }
 3853              		.loc 4 148 2 is_stmt 0 view .LVU1483
 3854              	.LBE328:
 135:Modules/include/MAVLink/common/../mavlink_sha256.h **** 	uint32_t T1, T2;
 3855              		.loc 4 135 25 is_stmt 1 view .LVU1484
 135:Modules/include/MAVLink/common/../mavlink_sha256.h **** 	uint32_t T1, T2;
 3856              		.loc 4 135 26 is_stmt 0 view .LVU1485
 3857 0e18 0135     		adds	r5, r5, #1
ARM GAS  C:\Users\luoha\AppData\Local\Temp\cctfed2n.s 			page 114


 3858              	.LVL395:
 3859              	.LBB329:
 141:Modules/include/MAVLink/common/../mavlink_sha256.h **** 	GG = FF;
 3860              		.loc 4 141 5 view .LVU1486
 3861 0e1a E146     		mov	r9, ip
 142:Modules/include/MAVLink/common/../mavlink_sha256.h **** 	FF = EE;
 3862              		.loc 4 142 5 view .LVU1487
 3863 0e1c F446     		mov	ip, lr
 3864              	.LVL396:
 143:Modules/include/MAVLink/common/../mavlink_sha256.h **** 	EE = DD + T1;
 3865              		.loc 4 143 5 view .LVU1488
 3866 0e1e 8E46     		mov	lr, r1
 3867              	.LVL397:
 144:Modules/include/MAVLink/common/../mavlink_sha256.h **** 	DD = CC;
 3868              		.loc 4 144 5 view .LVU1489
 3869 0e20 03EB0801 		add	r1, r3, r8
 3870              	.LVL398:
 145:Modules/include/MAVLink/common/../mavlink_sha256.h **** 	CC = BB;
 3871              		.loc 4 145 5 view .LVU1490
 3872 0e24 B046     		mov	r8, r6
 146:Modules/include/MAVLink/common/../mavlink_sha256.h **** 	BB = AA;
 3873              		.loc 4 146 5 view .LVU1491
 3874 0e26 3E46     		mov	r6, r7
 3875              	.LVL399:
 147:Modules/include/MAVLink/common/../mavlink_sha256.h **** 	AA = T1 + T2;
 3876              		.loc 4 147 5 view .LVU1492
 3877 0e28 0746     		mov	r7, r0
 3878              	.LVL400:
 148:Modules/include/MAVLink/common/../mavlink_sha256.h ****     }
 3879              		.loc 4 148 5 view .LVU1493
 3880 0e2a 9818     		adds	r0, r3, r2
 3881              	.LVL401:
 3882              	.L114:
 148:Modules/include/MAVLink/common/../mavlink_sha256.h ****     }
 3883              		.loc 4 148 5 view .LVU1494
 3884              	.LBE329:
 135:Modules/include/MAVLink/common/../mavlink_sha256.h **** 	uint32_t T1, T2;
 3885              		.loc 4 135 17 is_stmt 1 view .LVU1495
 135:Modules/include/MAVLink/common/../mavlink_sha256.h **** 	uint32_t T1, T2;
 3886              		.loc 4 135 5 is_stmt 0 view .LVU1496
 3887 0e2c 3F2D     		cmp	r5, #63
 3888 0e2e D0DD     		ble	.L115
 151:Modules/include/MAVLink/common/../mavlink_sha256.h ****     B += BB;
 3889              		.loc 4 151 5 is_stmt 1 view .LVU1497
 151:Modules/include/MAVLink/common/../mavlink_sha256.h ****     B += BB;
 3890              		.loc 4 151 7 is_stmt 0 view .LVU1498
 3891 0e30 039B     		ldr	r3, [sp, #12]
 3892 0e32 0344     		add	r3, r3, r0
 3893 0e34 3693     		str	r3, [sp, #216]
 152:Modules/include/MAVLink/common/../mavlink_sha256.h ****     C += CC;
 3894              		.loc 4 152 5 is_stmt 1 view .LVU1499
 152:Modules/include/MAVLink/common/../mavlink_sha256.h ****     C += CC;
 3895              		.loc 4 152 7 is_stmt 0 view .LVU1500
 3896 0e36 049B     		ldr	r3, [sp, #16]
 3897 0e38 3B44     		add	r3, r3, r7
 3898 0e3a 3793     		str	r3, [sp, #220]
 153:Modules/include/MAVLink/common/../mavlink_sha256.h ****     D += DD;
ARM GAS  C:\Users\luoha\AppData\Local\Temp\cctfed2n.s 			page 115


 3899              		.loc 4 153 5 is_stmt 1 view .LVU1501
 153:Modules/include/MAVLink/common/../mavlink_sha256.h ****     D += DD;
 3900              		.loc 4 153 7 is_stmt 0 view .LVU1502
 3901 0e3c 059B     		ldr	r3, [sp, #20]
 3902 0e3e 3344     		add	r3, r3, r6
 3903 0e40 3893     		str	r3, [sp, #224]
 154:Modules/include/MAVLink/common/../mavlink_sha256.h ****     E += EE;
 3904              		.loc 4 154 5 is_stmt 1 view .LVU1503
 154:Modules/include/MAVLink/common/../mavlink_sha256.h ****     E += EE;
 3905              		.loc 4 154 7 is_stmt 0 view .LVU1504
 3906 0e42 069B     		ldr	r3, [sp, #24]
 3907 0e44 4344     		add	r3, r3, r8
 3908 0e46 3993     		str	r3, [sp, #228]
 155:Modules/include/MAVLink/common/../mavlink_sha256.h ****     F += FF;
 3909              		.loc 4 155 5 is_stmt 1 view .LVU1505
 155:Modules/include/MAVLink/common/../mavlink_sha256.h ****     F += FF;
 3910              		.loc 4 155 7 is_stmt 0 view .LVU1506
 3911 0e48 079B     		ldr	r3, [sp, #28]
 3912 0e4a 0B44     		add	r3, r3, r1
 3913 0e4c 3A93     		str	r3, [sp, #232]
 156:Modules/include/MAVLink/common/../mavlink_sha256.h ****     G += GG;
 3914              		.loc 4 156 5 is_stmt 1 view .LVU1507
 156:Modules/include/MAVLink/common/../mavlink_sha256.h ****     G += GG;
 3915              		.loc 4 156 7 is_stmt 0 view .LVU1508
 3916 0e4e 089B     		ldr	r3, [sp, #32]
 3917 0e50 7344     		add	r3, r3, lr
 3918 0e52 3B93     		str	r3, [sp, #236]
 157:Modules/include/MAVLink/common/../mavlink_sha256.h ****     H += HH;
 3919              		.loc 4 157 5 is_stmt 1 view .LVU1509
 157:Modules/include/MAVLink/common/../mavlink_sha256.h ****     H += HH;
 3920              		.loc 4 157 7 is_stmt 0 view .LVU1510
 3921 0e54 099B     		ldr	r3, [sp, #36]
 3922 0e56 6344     		add	r3, r3, ip
 3923 0e58 3C93     		str	r3, [sp, #240]
 158:Modules/include/MAVLink/common/../mavlink_sha256.h **** }
 3924              		.loc 4 158 5 is_stmt 1 view .LVU1511
 158:Modules/include/MAVLink/common/../mavlink_sha256.h **** }
 3925              		.loc 4 158 7 is_stmt 0 view .LVU1512
 3926 0e5a 0A9B     		ldr	r3, [sp, #40]
 3927 0e5c 4B44     		add	r3, r3, r9
 3928 0e5e 3D93     		str	r3, [sp, #244]
 3929              	.LVL402:
 158:Modules/include/MAVLink/common/../mavlink_sha256.h **** }
 3930              		.loc 4 158 7 view .LVU1513
 3931              	.LBE327:
 3932              	.LBE326:
 193:Modules/include/MAVLink/common/../mavlink_sha256.h **** 	}
 3933              		.loc 4 193 6 is_stmt 1 view .LVU1514
 193:Modules/include/MAVLink/common/../mavlink_sha256.h **** 	}
 3934              		.loc 4 193 13 is_stmt 0 view .LVU1515
 3935 0e60 0B9D     		ldr	r5, [sp, #44]
 3936 0e62 40E7     		b	.L105
 3937              	.LVL403:
 3938              	.L182:
 193:Modules/include/MAVLink/common/../mavlink_sha256.h **** 	}
 3939              		.loc 4 193 13 view .LVU1516
 3940 0e64 DDF834B0 		ldr	fp, [sp, #52]
ARM GAS  C:\Users\luoha\AppData\Local\Temp\cctfed2n.s 			page 116


 3941              	.LVL404:
 193:Modules/include/MAVLink/common/../mavlink_sha256.h **** 	}
 3942              		.loc 4 193 13 view .LVU1517
 3943 0e68 DDF838A0 		ldr	r10, [sp, #56]
 3944              	.LVL405:
 193:Modules/include/MAVLink/common/../mavlink_sha256.h **** 	}
 3945              		.loc 4 193 13 view .LVU1518
 3946              	.LBE324:
 3947              	.LBE330:
 3948              	.LBE322:
 3949              	.LBE321:
 220:Modules/include/MAVLink/common/../mavlink_sha256.h **** 
 221:Modules/include/MAVLink/common/../mavlink_sha256.h ****     // this ordering makes the result consistent with taking the first
 222:Modules/include/MAVLink/common/../mavlink_sha256.h ****     // 6 bytes of more conventional sha256 functions. It assumes
 223:Modules/include/MAVLink/common/../mavlink_sha256.h ****     // little-endian ordering of m->counter
 224:Modules/include/MAVLink/common/../mavlink_sha256.h ****     result[0] = p[3];
 3950              		.loc 4 224 5 is_stmt 1 view .LVU1519
 3951              		.loc 4 224 15 is_stmt 0 view .LVU1520
 3952 0e6c 9DF8DB30 		ldrb	r3, [sp, #219]	@ zero_extendqisi2
 3953 0e70 8DF84830 		strb	r3, [sp, #72]
 225:Modules/include/MAVLink/common/../mavlink_sha256.h ****     result[1] = p[2];
 3954              		.loc 4 225 5 is_stmt 1 view .LVU1521
 3955              		.loc 4 225 15 is_stmt 0 view .LVU1522
 3956 0e74 9DF8DA30 		ldrb	r3, [sp, #218]	@ zero_extendqisi2
 3957 0e78 8DF84930 		strb	r3, [sp, #73]
 226:Modules/include/MAVLink/common/../mavlink_sha256.h ****     result[2] = p[1];
 3958              		.loc 4 226 5 is_stmt 1 view .LVU1523
 3959              		.loc 4 226 15 is_stmt 0 view .LVU1524
 3960 0e7c 9DF8D930 		ldrb	r3, [sp, #217]	@ zero_extendqisi2
 3961 0e80 8DF84A30 		strb	r3, [sp, #74]
 227:Modules/include/MAVLink/common/../mavlink_sha256.h ****     result[3] = p[0];
 3962              		.loc 4 227 5 is_stmt 1 view .LVU1525
 3963              		.loc 4 227 18 is_stmt 0 view .LVU1526
 3964 0e84 9DF8D830 		ldrb	r3, [sp, #216]	@ zero_extendqisi2
 3965              		.loc 4 227 15 view .LVU1527
 3966 0e88 8DF84B30 		strb	r3, [sp, #75]
 228:Modules/include/MAVLink/common/../mavlink_sha256.h ****     result[4] = p[7];
 3967              		.loc 4 228 5 is_stmt 1 view .LVU1528
 3968              		.loc 4 228 15 is_stmt 0 view .LVU1529
 3969 0e8c 9DF8DF30 		ldrb	r3, [sp, #223]	@ zero_extendqisi2
 3970 0e90 8DF84C30 		strb	r3, [sp, #76]
 229:Modules/include/MAVLink/common/../mavlink_sha256.h ****     result[5] = p[6];
 3971              		.loc 4 229 5 is_stmt 1 view .LVU1530
 3972              		.loc 4 229 15 is_stmt 0 view .LVU1531
 3973 0e94 9DF8DE30 		ldrb	r3, [sp, #222]	@ zero_extendqisi2
 3974 0e98 8DF84D30 		strb	r3, [sp, #77]
 3975              	.LVL406:
 3976              		.loc 4 229 15 view .LVU1532
 3977              	.LBE320:
 3978              	.LBE319:
 140:Modules/include/MAVLink/common/../mavlink_helpers.h **** 		return false;
 3979              		.loc 2 140 2 is_stmt 1 view .LVU1533
 140:Modules/include/MAVLink/common/../mavlink_helpers.h **** 		return false;
 3980              		.loc 2 140 6 is_stmt 0 view .LVU1534
 3981 0e9c 0622     		movs	r2, #6
 3982 0e9e 8249     		ldr	r1, .L196+4
 3983 0ea0 12A8     		add	r0, sp, #72
ARM GAS  C:\Users\luoha\AppData\Local\Temp\cctfed2n.s 			page 117


 3984 0ea2 FFF7FEFF 		bl	memcmp
 3985              	.LVL407:
 140:Modules/include/MAVLink/common/../mavlink_helpers.h **** 		return false;
 3986              		.loc 2 140 5 view .LVU1535
 3987 0ea6 E0B1     		cbz	r0, .L185
 141:Modules/include/MAVLink/common/../mavlink_helpers.h **** 	}
 3988              		.loc 2 141 10 view .LVU1536
 3989 0ea8 0024     		movs	r4, #0
 3990              	.LVL408:
 3991              	.L51:
 141:Modules/include/MAVLink/common/../mavlink_helpers.h **** 	}
 3992              		.loc 2 141 10 view .LVU1537
 3993              	.LBE274:
 3994              	.LBE273:
 785:Modules/include/MAVLink/common/../mavlink_helpers.h **** 			   	(status->signing->accept_unsigned_callback &&
 3995              		.loc 2 785 4 is_stmt 1 view .LVU1538
 785:Modules/include/MAVLink/common/../mavlink_helpers.h **** 			   	(status->signing->accept_unsigned_callback &&
 3996              		.loc 2 785 7 is_stmt 0 view .LVU1539
 3997 0eaa 4CB9     		cbnz	r4, .L124
 786:Modules/include/MAVLink/common/../mavlink_helpers.h **** 			   	 status->signing->accept_unsigned_callback(status, rxmsg->msgid))) {
 3998              		.loc 2 786 15 view .LVU1540
 3999 0eac 7F4B     		ldr	r3, .L196+8
 4000 0eae 1B69     		ldr	r3, [r3, #16]
 786:Modules/include/MAVLink/common/../mavlink_helpers.h **** 			   	 status->signing->accept_unsigned_callback(status, rxmsg->msgid))) {
 4001              		.loc 2 786 24 view .LVU1541
 4002 0eb0 1B6B     		ldr	r3, [r3, #48]
 785:Modules/include/MAVLink/common/../mavlink_helpers.h **** 			   	(status->signing->accept_unsigned_callback &&
 4003              		.loc 2 785 16 view .LVU1542
 4004 0eb2 2BB1     		cbz	r3, .L124
 787:Modules/include/MAVLink/common/../mavlink_helpers.h **** 				// accepted via application level override
 4005              		.loc 2 787 64 view .LVU1543
 4006 0eb4 7E4A     		ldr	r2, .L196+12
 4007 0eb6 9168     		ldr	r1, [r2, #8]
 787:Modules/include/MAVLink/common/../mavlink_helpers.h **** 				// accepted via application level override
 4008              		.loc 2 787 9 view .LVU1544
 4009 0eb8 090A     		lsrs	r1, r1, #8
 4010 0eba 7C48     		ldr	r0, .L196+8
 4011 0ebc 9847     		blx	r3
 4012              	.LVL409:
 786:Modules/include/MAVLink/common/../mavlink_helpers.h **** 			   	 status->signing->accept_unsigned_callback(status, rxmsg->msgid))) {
 4013              		.loc 2 786 51 view .LVU1545
 4014 0ebe 10B9     		cbnz	r0, .L125
 4015              	.L124:
 791:Modules/include/MAVLink/common/../mavlink_helpers.h **** 				status->msg_received = MAVLINK_FRAMING_OK;
 4016              		.loc 2 791 4 is_stmt 1 view .LVU1546
 791:Modules/include/MAVLink/common/../mavlink_helpers.h **** 				status->msg_received = MAVLINK_FRAMING_OK;
 4017              		.loc 2 791 7 is_stmt 0 view .LVU1547
 4018 0ec0 002C     		cmp	r4, #0
 4019 0ec2 00F09B80 		beq	.L126
 4020              	.L125:
 4021              	.LVL410:
 792:Modules/include/MAVLink/common/../mavlink_helpers.h **** 			} else {
 4022              		.loc 2 792 5 is_stmt 1 view .LVU1548
 792:Modules/include/MAVLink/common/../mavlink_helpers.h **** 			} else {
 4023              		.loc 2 792 26 is_stmt 0 view .LVU1549
 4024 0ec6 794B     		ldr	r3, .L196+8
 4025 0ec8 0122     		movs	r2, #1
ARM GAS  C:\Users\luoha\AppData\Local\Temp\cctfed2n.s 			page 118


 4026 0eca 1A70     		strb	r2, [r3]
 4027              	.L127:
 796:Modules/include/MAVLink/common/../mavlink_helpers.h **** 			if (r_message !=NULL) {
 4028              		.loc 2 796 4 is_stmt 1 view .LVU1550
 796:Modules/include/MAVLink/common/../mavlink_helpers.h **** 			if (r_message !=NULL) {
 4029              		.loc 2 796 24 is_stmt 0 view .LVU1551
 4030 0ecc 774B     		ldr	r3, .L196+8
 4031 0ece 0122     		movs	r2, #1
 4032 0ed0 DA70     		strb	r2, [r3, #3]
 797:Modules/include/MAVLink/common/../mavlink_helpers.h **** 				memcpy(r_message, rxmsg, sizeof(mavlink_message_t));
 4033              		.loc 2 797 4 is_stmt 1 view .LVU1552
 798:Modules/include/MAVLink/common/../mavlink_helpers.h **** 			}
 4034              		.loc 2 798 5 view .LVU1553
 4035 0ed2 40F22312 		movw	r2, #291
 4036 0ed6 7649     		ldr	r1, .L196+12
 4037 0ed8 7648     		ldr	r0, .L196+16
 4038 0eda FFF7FEFF 		bl	memcpy
 4039              	.LVL411:
 4040 0ede FFF71CB9 		b	.L15
 4041              	.LVL412:
 4042              	.L185:
 4043              	.LBB334:
 4044              	.LBB333:
 145:Modules/include/MAVLink/common/../mavlink_helpers.h **** 	    uint64_t t64;
 4045              		.loc 2 145 2 view .LVU1554
 149:Modules/include/MAVLink/common/../mavlink_helpers.h **** 	tstamp.t64 = 0;
 4046              		.loc 2 149 2 view .LVU1555
 149:Modules/include/MAVLink/common/../mavlink_helpers.h **** 	tstamp.t64 = 0;
 4047              		.loc 2 149 10 is_stmt 0 view .LVU1556
 4048 0ee2 7349     		ldr	r1, .L196+12
 4049 0ee4 91F81651 		ldrb	r5, [r1, #278]	@ zero_extendqisi2
 4050              	.LVL413:
 150:Modules/include/MAVLink/common/../mavlink_helpers.h **** 	memcpy(tstamp.t8, psig+1, 6);
 4051              		.loc 2 150 2 is_stmt 1 view .LVU1557
 150:Modules/include/MAVLink/common/../mavlink_helpers.h **** 	memcpy(tstamp.t8, psig+1, 6);
 4052              		.loc 2 150 13 is_stmt 0 view .LVU1558
 4053 0ee8 0022     		movs	r2, #0
 4054 0eea 0023     		movs	r3, #0
 4055 0eec CDE92223 		strd	r2, [sp, #136]
 151:Modules/include/MAVLink/common/../mavlink_helpers.h **** 
 4056              		.loc 2 151 2 is_stmt 1 view .LVU1559
 4057 0ef0 D1F81701 		ldr	r0, [r1, #279]	@ unaligned
 4058 0ef4 2290     		str	r0, [sp, #136]
 4059 0ef6 B1F81B31 		ldrh	r3, [r1, #283]	@ unaligned
 4060 0efa ADF88C30 		strh	r3, [sp, #140]	@ unaligned
 153:Modules/include/MAVLink/common/../mavlink_helpers.h **** 		return false;
 4061              		.loc 2 153 2 view .LVU1560
 153:Modules/include/MAVLink/common/../mavlink_helpers.h **** 		return false;
 4062              		.loc 2 153 5 is_stmt 0 view .LVU1561
 4063 0efe 0C98     		ldr	r0, [sp, #48]
 4064 0f00 0028     		cmp	r0, #0
 4065 0f02 73D0     		beq	.L149
 158:Modules/include/MAVLink/common/../mavlink_helpers.h **** 		if (msg->sysid == signing_streams->stream[i].sysid &&
 4066              		.loc 2 158 8 view .LVU1562
 4067 0f04 0024     		movs	r4, #0
 4068 0f06 01E0     		b	.L117
 4069              	.LVL414:
ARM GAS  C:\Users\luoha\AppData\Local\Temp\cctfed2n.s 			page 119


 4070              	.L118:
 158:Modules/include/MAVLink/common/../mavlink_helpers.h **** 		if (msg->sysid == signing_streams->stream[i].sysid &&
 4071              		.loc 2 158 52 is_stmt 1 view .LVU1563
 158:Modules/include/MAVLink/common/../mavlink_helpers.h **** 		if (msg->sysid == signing_streams->stream[i].sysid &&
 4072              		.loc 2 158 53 is_stmt 0 view .LVU1564
 4073 0f08 0134     		adds	r4, r4, #1
 4074              	.LVL415:
 158:Modules/include/MAVLink/common/../mavlink_helpers.h **** 		if (msg->sysid == signing_streams->stream[i].sysid &&
 4075              		.loc 2 158 53 view .LVU1565
 4076 0f0a A4B2     		uxth	r4, r4
 4077              	.LVL416:
 4078              	.L117:
 158:Modules/include/MAVLink/common/../mavlink_helpers.h **** 		if (msg->sysid == signing_streams->stream[i].sysid &&
 4079              		.loc 2 158 12 is_stmt 1 view .LVU1566
 158:Modules/include/MAVLink/common/../mavlink_helpers.h **** 		if (msg->sysid == signing_streams->stream[i].sysid &&
 4080              		.loc 2 158 29 is_stmt 0 view .LVU1567
 4081 0f0c 0188     		ldrh	r1, [r0]
 158:Modules/include/MAVLink/common/../mavlink_helpers.h **** 		if (msg->sysid == signing_streams->stream[i].sysid &&
 4082              		.loc 2 158 2 view .LVU1568
 4083 0f0e 8C42     		cmp	r4, r1
 4084 0f10 15D2     		bcs	.L119
 159:Modules/include/MAVLink/common/../mavlink_helpers.h **** 		    msg->compid == signing_streams->stream[i].compid &&
 4085              		.loc 2 159 3 is_stmt 1 view .LVU1569
 159:Modules/include/MAVLink/common/../mavlink_helpers.h **** 		    msg->compid == signing_streams->stream[i].compid &&
 4086              		.loc 2 159 10 is_stmt 0 view .LVU1570
 4087 0f12 674B     		ldr	r3, .L196+12
 4088 0f14 DA79     		ldrb	r2, [r3, #7]	@ zero_extendqisi2
 159:Modules/include/MAVLink/common/../mavlink_helpers.h **** 		    msg->compid == signing_streams->stream[i].compid &&
 4089              		.loc 2 159 47 view .LVU1571
 4090 0f16 04EBC403 		add	r3, r4, r4, lsl #3
 4091 0f1a 0344     		add	r3, r3, r0
 4092 0f1c DB78     		ldrb	r3, [r3, #3]	@ zero_extendqisi2
 159:Modules/include/MAVLink/common/../mavlink_helpers.h **** 		    msg->compid == signing_streams->stream[i].compid &&
 4093              		.loc 2 159 6 view .LVU1572
 4094 0f1e 9A42     		cmp	r2, r3
 4095 0f20 F2D1     		bne	.L118
 160:Modules/include/MAVLink/common/../mavlink_helpers.h **** 		    link_id == signing_streams->stream[i].link_id) {
 4096              		.loc 2 160 10 view .LVU1573
 4097 0f22 634B     		ldr	r3, .L196+12
 4098 0f24 1A7A     		ldrb	r2, [r3, #8]	@ zero_extendqisi2
 160:Modules/include/MAVLink/common/../mavlink_helpers.h **** 		    link_id == signing_streams->stream[i].link_id) {
 4099              		.loc 2 160 48 view .LVU1574
 4100 0f26 04EBC403 		add	r3, r4, r4, lsl #3
 4101 0f2a 0344     		add	r3, r3, r0
 4102 0f2c 1B79     		ldrb	r3, [r3, #4]	@ zero_extendqisi2
 159:Modules/include/MAVLink/common/../mavlink_helpers.h **** 		    msg->compid == signing_streams->stream[i].compid &&
 4103              		.loc 2 159 54 view .LVU1575
 4104 0f2e 9A42     		cmp	r2, r3
 4105 0f30 EAD1     		bne	.L118
 161:Modules/include/MAVLink/common/../mavlink_helpers.h **** 			break;
 4106              		.loc 2 161 44 view .LVU1576
 4107 0f32 04EBC406 		add	r6, r4, r4, lsl #3
 4108 0f36 8319     		adds	r3, r0, r6
 4109 0f38 9B78     		ldrb	r3, [r3, #2]	@ zero_extendqisi2
 160:Modules/include/MAVLink/common/../mavlink_helpers.h **** 		    link_id == signing_streams->stream[i].link_id) {
 4110              		.loc 2 160 56 view .LVU1577
 4111 0f3a 9D42     		cmp	r5, r3
ARM GAS  C:\Users\luoha\AppData\Local\Temp\cctfed2n.s 			page 120


 4112 0f3c E4D1     		bne	.L118
 4113              	.L119:
 165:Modules/include/MAVLink/common/../mavlink_helpers.h **** 		if (signing_streams->num_signing_streams >= MAVLINK_MAX_SIGNING_STREAMS) {
 4114              		.loc 2 165 2 is_stmt 1 view .LVU1578
 165:Modules/include/MAVLink/common/../mavlink_helpers.h **** 		if (signing_streams->num_signing_streams >= MAVLINK_MAX_SIGNING_STREAMS) {
 4115              		.loc 2 165 5 is_stmt 0 view .LVU1579
 4116 0f3e 8C42     		cmp	r4, r1
 4117 0f40 21D1     		bne	.L121
 166:Modules/include/MAVLink/common/../mavlink_helpers.h **** 			// over max number of streams
 4118              		.loc 2 166 3 is_stmt 1 view .LVU1580
 166:Modules/include/MAVLink/common/../mavlink_helpers.h **** 			// over max number of streams
 4119              		.loc 2 166 6 is_stmt 0 view .LVU1581
 4120 0f42 0F29     		cmp	r1, #15
 4121 0f44 54D8     		bhi	.L150
 171:Modules/include/MAVLink/common/../mavlink_helpers.h **** 			return false;
 4122              		.loc 2 171 3 is_stmt 1 view .LVU1582
 171:Modules/include/MAVLink/common/../mavlink_helpers.h **** 			return false;
 4123              		.loc 2 171 13 is_stmt 0 view .LVU1583
 4124 0f46 229B     		ldr	r3, [sp, #136]
 4125 0f48 2398     		ldr	r0, [sp, #140]
 171:Modules/include/MAVLink/common/../mavlink_helpers.h **** 			return false;
 4126              		.loc 2 171 18 view .LVU1584
 4127 0f4a 5B4A     		ldr	r2, .L196+20
 4128 0f4c 9B18     		adds	r3, r3, r2
 4129 0f4e 1093     		str	r3, [sp, #64]
 4130 0f50 4FF00003 		mov	r3, #0
 4131 0f54 40EB0303 		adc	r3, r0, r3
 4132 0f58 1193     		str	r3, [sp, #68]
 171:Modules/include/MAVLink/common/../mavlink_helpers.h **** 			return false;
 4133              		.loc 2 171 41 view .LVU1585
 4134 0f5a 0F9B     		ldr	r3, [sp, #60]
 4135 0f5c D3E90223 		ldrd	r2, [r3, #8]
 171:Modules/include/MAVLink/common/../mavlink_helpers.h **** 			return false;
 4136              		.loc 2 171 6 view .LVU1586
 4137 0f60 DDE91067 		ldrd	r6, [sp, #64]
 4138 0f64 9F42     		cmp	r7, r3
 4139 0f66 08BF     		it	eq
 4140 0f68 9642     		cmpeq	r6, r2
 4141 0f6a 43D3     		bcc	.L151
 175:Modules/include/MAVLink/common/../mavlink_helpers.h **** 		signing_streams->stream[i].compid = msg->compid;
 4142              		.loc 2 175 3 is_stmt 1 view .LVU1587
 175:Modules/include/MAVLink/common/../mavlink_helpers.h **** 		signing_streams->stream[i].compid = msg->compid;
 4143              		.loc 2 175 41 is_stmt 0 view .LVU1588
 4144 0f6c 504A     		ldr	r2, .L196+12
 4145 0f6e D079     		ldrb	r0, [r2, #7]	@ zero_extendqisi2
 175:Modules/include/MAVLink/common/../mavlink_helpers.h **** 		signing_streams->stream[i].compid = msg->compid;
 4146              		.loc 2 175 36 view .LVU1589
 4147 0f70 04EBC403 		add	r3, r4, r4, lsl #3
 4148 0f74 0C9E     		ldr	r6, [sp, #48]
 4149 0f76 3344     		add	r3, r3, r6
 4150 0f78 D870     		strb	r0, [r3, #3]
 176:Modules/include/MAVLink/common/../mavlink_helpers.h **** 		signing_streams->stream[i].link_id = link_id;
 4151              		.loc 2 176 3 is_stmt 1 view .LVU1590
 176:Modules/include/MAVLink/common/../mavlink_helpers.h **** 		signing_streams->stream[i].link_id = link_id;
 4152              		.loc 2 176 42 is_stmt 0 view .LVU1591
 4153 0f7a 127A     		ldrb	r2, [r2, #8]	@ zero_extendqisi2
 176:Modules/include/MAVLink/common/../mavlink_helpers.h **** 		signing_streams->stream[i].link_id = link_id;
ARM GAS  C:\Users\luoha\AppData\Local\Temp\cctfed2n.s 			page 121


 4154              		.loc 2 176 37 view .LVU1592
 4155 0f7c 1A71     		strb	r2, [r3, #4]
 177:Modules/include/MAVLink/common/../mavlink_helpers.h **** 		signing_streams->num_signing_streams++;
 4156              		.loc 2 177 3 is_stmt 1 view .LVU1593
 177:Modules/include/MAVLink/common/../mavlink_helpers.h **** 		signing_streams->num_signing_streams++;
 4157              		.loc 2 177 38 is_stmt 0 view .LVU1594
 4158 0f7e 9D70     		strb	r5, [r3, #2]
 178:Modules/include/MAVLink/common/../mavlink_helpers.h **** 	} else {
 4159              		.loc 2 178 3 is_stmt 1 view .LVU1595
 178:Modules/include/MAVLink/common/../mavlink_helpers.h **** 	} else {
 4160              		.loc 2 178 39 is_stmt 0 view .LVU1596
 4161 0f80 0131     		adds	r1, r1, #1
 4162 0f82 3180     		strh	r1, [r6]	@ movhi
 4163 0f84 15E0     		b	.L122
 4164              	.L121:
 4165              	.LBB331:
 180:Modules/include/MAVLink/common/../mavlink_helpers.h **** 		last_tstamp.t64 = 0;
 4166              		.loc 2 180 3 is_stmt 1 view .LVU1597
 181:Modules/include/MAVLink/common/../mavlink_helpers.h **** 		memcpy(last_tstamp.t8, signing_streams->stream[i].timestamp_bytes, 6);
 4167              		.loc 2 181 3 view .LVU1598
 181:Modules/include/MAVLink/common/../mavlink_helpers.h **** 		memcpy(last_tstamp.t8, signing_streams->stream[i].timestamp_bytes, 6);
 4168              		.loc 2 181 19 is_stmt 0 view .LVU1599
 4169 0f86 0022     		movs	r2, #0
 4170 0f88 0023     		movs	r3, #0
 4171 0f8a CDE94E23 		strd	r2, [sp, #312]
 182:Modules/include/MAVLink/common/../mavlink_helpers.h **** 		if (tstamp.t64 <= last_tstamp.t64) {
 4172              		.loc 2 182 3 is_stmt 1 view .LVU1600
 182:Modules/include/MAVLink/common/../mavlink_helpers.h **** 		if (tstamp.t64 <= last_tstamp.t64) {
 4173              		.loc 2 182 52 is_stmt 0 view .LVU1601
 4174 0f8e 04EBC403 		add	r3, r4, r4, lsl #3
 4175 0f92 0C9A     		ldr	r2, [sp, #48]
 4176 0f94 1344     		add	r3, r3, r2
 182:Modules/include/MAVLink/common/../mavlink_helpers.h **** 		if (tstamp.t64 <= last_tstamp.t64) {
 4177              		.loc 2 182 3 view .LVU1602
 4178 0f96 53F8050F 		ldr	r0, [r3, #5]!	@ unaligned
 4179 0f9a 4E90     		str	r0, [sp, #312]
 4180 0f9c 9B88     		ldrh	r3, [r3, #4]	@ unaligned
 4181 0f9e ADF83C31 		strh	r3, [sp, #316]	@ unaligned
 183:Modules/include/MAVLink/common/../mavlink_helpers.h **** 			// repeating old timestamp
 4182              		.loc 2 183 3 is_stmt 1 view .LVU1603
 183:Modules/include/MAVLink/common/../mavlink_helpers.h **** 			// repeating old timestamp
 4183              		.loc 2 183 6 is_stmt 0 view .LVU1604
 4184 0fa2 DDE92223 		ldrd	r2, [sp, #136]
 4185 0fa6 DDE94E01 		ldrd	r0, [sp, #312]
 4186 0faa 9942     		cmp	r1, r3
 4187 0fac 08BF     		it	eq
 4188 0fae 9042     		cmpeq	r0, r2
 4189 0fb0 18D2     		bcs	.L186
 4190              	.L122:
 4191              	.LBE331:
 190:Modules/include/MAVLink/common/../mavlink_helpers.h **** 
 4192              		.loc 2 190 2 is_stmt 1 view .LVU1605
 190:Modules/include/MAVLink/common/../mavlink_helpers.h **** 
 4193              		.loc 2 190 35 is_stmt 0 view .LVU1606
 4194 0fb2 04EBC404 		add	r4, r4, r4, lsl #3
 4195              	.LVL417:
 190:Modules/include/MAVLink/common/../mavlink_helpers.h **** 
ARM GAS  C:\Users\luoha\AppData\Local\Temp\cctfed2n.s 			page 122


 4196              		.loc 2 190 35 view .LVU1607
 4197 0fb6 0C9B     		ldr	r3, [sp, #48]
 4198 0fb8 2344     		add	r3, r3, r4
 4199 0fba 1C46     		mov	r4, r3
 190:Modules/include/MAVLink/common/../mavlink_helpers.h **** 
 4200              		.loc 2 190 2 view .LVU1608
 4201 0fbc 3F4B     		ldr	r3, .L196+24
 4202 0fbe 1A68     		ldr	r2, [r3]	@ unaligned
 4203 0fc0 C4F80520 		str	r2, [r4, #5]	@ unaligned
 4204 0fc4 9B88     		ldrh	r3, [r3, #4]	@ unaligned
 4205 0fc6 A4F80930 		strh	r3, [r4, #9]	@ unaligned
 193:Modules/include/MAVLink/common/../mavlink_helpers.h **** 		signing->timestamp = tstamp.t64;
 4206              		.loc 2 193 2 is_stmt 1 view .LVU1609
 193:Modules/include/MAVLink/common/../mavlink_helpers.h **** 		signing->timestamp = tstamp.t64;
 4207              		.loc 2 193 12 is_stmt 0 view .LVU1610
 4208 0fca DDE92201 		ldrd	r0, [sp, #136]
 193:Modules/include/MAVLink/common/../mavlink_helpers.h **** 		signing->timestamp = tstamp.t64;
 4209              		.loc 2 193 26 view .LVU1611
 4210 0fce 0F9C     		ldr	r4, [sp, #60]
 4211 0fd0 D4E90223 		ldrd	r2, [r4, #8]
 193:Modules/include/MAVLink/common/../mavlink_helpers.h **** 		signing->timestamp = tstamp.t64;
 4212              		.loc 2 193 5 view .LVU1612
 4213 0fd4 8B42     		cmp	r3, r1
 4214 0fd6 08BF     		it	eq
 4215 0fd8 8242     		cmpeq	r2, r0
 4216 0fda 0DD2     		bcs	.L152
 194:Modules/include/MAVLink/common/../mavlink_helpers.h **** 	}
 4217              		.loc 2 194 3 is_stmt 1 view .LVU1613
 194:Modules/include/MAVLink/common/../mavlink_helpers.h **** 	}
 4218              		.loc 2 194 22 is_stmt 0 view .LVU1614
 4219 0fdc C4E90201 		strd	r0, [r4, #8]
 196:Modules/include/MAVLink/common/../mavlink_helpers.h **** }
 4220              		.loc 2 196 9 view .LVU1615
 4221 0fe0 0124     		movs	r4, #1
 4222 0fe2 62E7     		b	.L51
 4223              	.LVL418:
 4224              	.L186:
 4225              	.LBB332:
 185:Modules/include/MAVLink/common/../mavlink_helpers.h **** 		}
 4226              		.loc 2 185 4 is_stmt 1 view .LVU1616
 185:Modules/include/MAVLink/common/../mavlink_helpers.h **** 		}
 4227              		.loc 2 185 11 is_stmt 0 view .LVU1617
 4228 0fe4 0024     		movs	r4, #0
 4229              	.LVL419:
 185:Modules/include/MAVLink/common/../mavlink_helpers.h **** 		}
 4230              		.loc 2 185 11 view .LVU1618
 4231 0fe6 60E7     		b	.L51
 4232              	.LVL420:
 4233              	.L137:
 185:Modules/include/MAVLink/common/../mavlink_helpers.h **** 		}
 4234              		.loc 2 185 11 view .LVU1619
 4235              	.LBE332:
 125:Modules/include/MAVLink/common/../mavlink_helpers.h **** 	}
 4236              		.loc 2 125 10 view .LVU1620
 4237 0fe8 0124     		movs	r4, #1
 4238 0fea 5EE7     		b	.L51
 4239              	.LVL421:
ARM GAS  C:\Users\luoha\AppData\Local\Temp\cctfed2n.s 			page 123


 4240              	.L149:
 154:Modules/include/MAVLink/common/../mavlink_helpers.h **** 	}
 4241              		.loc 2 154 10 view .LVU1621
 4242 0fec 0024     		movs	r4, #0
 4243 0fee 5CE7     		b	.L51
 4244              	.LVL422:
 4245              	.L150:
 168:Modules/include/MAVLink/common/../mavlink_helpers.h **** 		}
 4246              		.loc 2 168 11 view .LVU1622
 4247 0ff0 0024     		movs	r4, #0
 4248              	.LVL423:
 168:Modules/include/MAVLink/common/../mavlink_helpers.h **** 		}
 4249              		.loc 2 168 11 view .LVU1623
 4250 0ff2 5AE7     		b	.L51
 4251              	.LVL424:
 4252              	.L151:
 172:Modules/include/MAVLink/common/../mavlink_helpers.h **** 		}
 4253              		.loc 2 172 11 view .LVU1624
 4254 0ff4 0024     		movs	r4, #0
 4255              	.LVL425:
 172:Modules/include/MAVLink/common/../mavlink_helpers.h **** 		}
 4256              		.loc 2 172 11 view .LVU1625
 4257 0ff6 58E7     		b	.L51
 4258              	.L152:
 196:Modules/include/MAVLink/common/../mavlink_helpers.h **** }
 4259              		.loc 2 196 9 view .LVU1626
 4260 0ff8 0124     		movs	r4, #1
 4261 0ffa 56E7     		b	.L51
 4262              	.LVL426:
 4263              	.L126:
 196:Modules/include/MAVLink/common/../mavlink_helpers.h **** }
 4264              		.loc 2 196 9 view .LVU1627
 4265              	.LBE333:
 4266              	.LBE334:
 794:Modules/include/MAVLink/common/../mavlink_helpers.h **** 			}
 4267              		.loc 2 794 5 is_stmt 1 view .LVU1628
 794:Modules/include/MAVLink/common/../mavlink_helpers.h **** 			}
 4268              		.loc 2 794 26 is_stmt 0 view .LVU1629
 4269 0ffc 2B4B     		ldr	r3, .L196+8
 4270 0ffe 0322     		movs	r2, #3
 4271 1000 1A70     		strb	r2, [r3]
 4272 1002 63E7     		b	.L127
 4273              	.LVL427:
 4274              	.L156:
 794:Modules/include/MAVLink/common/../mavlink_helpers.h **** 			}
 4275              		.loc 2 794 26 view .LVU1630
 4276              	.LBE272:
 813:Modules/include/MAVLink/common/../mavlink_helpers.h **** 		// Initial condition: If no packet has been received so far, drop count is undefined
 4277              		.loc 2 813 3 is_stmt 1 view .LVU1631
 813:Modules/include/MAVLink/common/../mavlink_helpers.h **** 		// Initial condition: If no packet has been received so far, drop count is undefined
 4278              		.loc 2 813 33 is_stmt 0 view .LVU1632
 4279 1004 2A4B     		ldr	r3, .L196+12
 4280 1006 9A79     		ldrb	r2, [r3, #6]	@ zero_extendqisi2
 813:Modules/include/MAVLink/common/../mavlink_helpers.h **** 		// Initial condition: If no packet has been received so far, drop count is undefined
 4281              		.loc 2 813 26 view .LVU1633
 4282 1008 284B     		ldr	r3, .L196+8
 4283 100a 5A71     		strb	r2, [r3, #5]
ARM GAS  C:\Users\luoha\AppData\Local\Temp\cctfed2n.s 			page 124


 815:Modules/include/MAVLink/common/../mavlink_helpers.h **** 		// Count this packet as received
 4284              		.loc 2 815 3 is_stmt 1 view .LVU1634
 815:Modules/include/MAVLink/common/../mavlink_helpers.h **** 		// Count this packet as received
 4285              		.loc 2 815 13 is_stmt 0 view .LVU1635
 4286 100c 1B89     		ldrh	r3, [r3, #8]
 815:Modules/include/MAVLink/common/../mavlink_helpers.h **** 		// Count this packet as received
 4287              		.loc 2 815 6 view .LVU1636
 4288 100e 13B9     		cbnz	r3, .L129
 815:Modules/include/MAVLink/common/../mavlink_helpers.h **** 		// Count this packet as received
 4289              		.loc 2 815 45 is_stmt 1 view .LVU1637
 815:Modules/include/MAVLink/common/../mavlink_helpers.h **** 		// Count this packet as received
 4290              		.loc 2 815 74 is_stmt 0 view .LVU1638
 4291 1010 264A     		ldr	r2, .L196+8
 4292 1012 0021     		movs	r1, #0
 4293 1014 5181     		strh	r1, [r2, #10]	@ movhi
 4294              	.L129:
 817:Modules/include/MAVLink/common/../mavlink_helpers.h **** 	}
 4295              		.loc 2 817 3 is_stmt 1 view .LVU1639
 817:Modules/include/MAVLink/common/../mavlink_helpers.h **** 	}
 4296              		.loc 2 817 34 is_stmt 0 view .LVU1640
 4297 1016 0133     		adds	r3, r3, #1
 4298 1018 244A     		ldr	r2, .L196+8
 4299 101a 1381     		strh	r3, [r2, #8]	@ movhi
 4300 101c FFF782B8 		b	.L128
 4301              	.L157:
 841:Modules/include/MAVLink/common/../mavlink_helpers.h ****                 r_message->checksum = rxmsg->ck[0] | (rxmsg->ck[1]<<8);
 4302              		.loc 2 841 13 is_stmt 1 view .LVU1641
 842:Modules/include/MAVLink/common/../mavlink_helpers.h ****             }
 4303              		.loc 2 842 17 view .LVU1642
 842:Modules/include/MAVLink/common/../mavlink_helpers.h ****             }
 4304              		.loc 2 842 48 is_stmt 0 view .LVU1643
 4305 1020 234A     		ldr	r2, .L196+12
 4306 1022 92F81431 		ldrb	r3, [r2, #276]	@ zero_extendqisi2
 842:Modules/include/MAVLink/common/../mavlink_helpers.h ****             }
 4307              		.loc 2 842 64 view .LVU1644
 4308 1026 92F81521 		ldrb	r2, [r2, #277]	@ zero_extendqisi2
 842:Modules/include/MAVLink/common/../mavlink_helpers.h ****             }
 4309              		.loc 2 842 52 view .LVU1645
 4310 102a 43EA0223 		orr	r3, r3, r2, lsl #8
 842:Modules/include/MAVLink/common/../mavlink_helpers.h ****             }
 4311              		.loc 2 842 37 view .LVU1646
 4312 102e 214A     		ldr	r2, .L196+16
 4313 1030 1380     		strh	r3, [r2]	@ movhi
 4314 1032 FFF790B8 		b	.L130
 4315              	.LVL428:
 4316              	.L158:
 842:Modules/include/MAVLink/common/../mavlink_helpers.h ****             }
 4317              		.loc 2 842 37 view .LVU1647
 4318              	.LBE337:
 4319              	.LBE340:
 4320              	.LBE344:
 4321              	.LBB345:
 973:Modules/include/MAVLink/common/../mavlink_helpers.h **** 	msg_received == MAVLINK_FRAMING_BAD_SIGNATURE) {
 974:Modules/include/MAVLink/common/../mavlink_helpers.h **** 	    // we got a bad CRC. Treat as a parse failure
 975:Modules/include/MAVLink/common/../mavlink_helpers.h **** 	    mavlink_message_t* rxmsg = mavlink_get_channel_buffer(chan);
 4322              		.loc 2 975 6 is_stmt 1 view .LVU1648
 4323              	.LBB346:
ARM GAS  C:\Users\luoha\AppData\Local\Temp\cctfed2n.s 			page 125


 4324              	.LBI346:
  39:Modules/include/MAVLink/common/../mavlink_helpers.h **** {
 4325              		.loc 2 39 35 view .LVU1649
 4326              	.LBE346:
 4327              	.LBE345:
 4328              	.LBE360:
 4329              	.LBE367:
 4330              	.LBE373:
  46:Modules/include/MAVLink/common/../mavlink_helpers.h **** #endif
 4331              		.loc 2 46 2 view .LVU1650
  48:Modules/include/MAVLink/common/../mavlink_helpers.h **** }
 4332              		.loc 2 48 2 view .LVU1651
 4333              	.LBB374:
 4334              	.LBB368:
 4335              	.LBB361:
 4336              	.LBB354:
 976:Modules/include/MAVLink/common/../mavlink_helpers.h **** 	    mavlink_status_t* status = mavlink_get_channel_status(chan);
 4337              		.loc 2 976 6 view .LVU1652
 4338              	.LBB347:
 4339              	.LBI347:
  23:Modules/include/MAVLink/common/../mavlink_helpers.h **** {
 4340              		.loc 2 23 34 view .LVU1653
 4341              	.LBE347:
 4342              	.LBE354:
 4343              	.LBE361:
 4344              	.LBE368:
 4345              	.LBE374:
  29:Modules/include/MAVLink/common/../mavlink_helpers.h **** #endif
 4346              		.loc 2 29 2 view .LVU1654
  31:Modules/include/MAVLink/common/../mavlink_helpers.h **** }
 4347              		.loc 2 31 2 view .LVU1655
 4348              	.LBB375:
 4349              	.LBB369:
 4350              	.LBB362:
 4351              	.LBB355:
 977:Modules/include/MAVLink/common/../mavlink_helpers.h **** 	    _mav_parse_error(status);
 4352              		.loc 2 977 6 view .LVU1656
 4353              	.LBB348:
 4354              	.LBI348:
 291:Modules/include/MAVLink/common/../mavlink_helpers.h **** {
 4355              		.loc 2 291 20 view .LVU1657
 4356              	.LBB349:
 293:Modules/include/MAVLink/common/../mavlink_helpers.h **** }
 4357              		.loc 2 293 5 view .LVU1658
 293:Modules/include/MAVLink/common/../mavlink_helpers.h **** }
 4358              		.loc 2 293 11 is_stmt 0 view .LVU1659
 4359 1036 1D4B     		ldr	r3, .L196+8
 4360 1038 9A78     		ldrb	r2, [r3, #2]	@ zero_extendqisi2
 4361              	.LVL429:
 293:Modules/include/MAVLink/common/../mavlink_helpers.h **** }
 4362              		.loc 2 293 24 view .LVU1660
 4363 103a 0132     		adds	r2, r2, #1
 4364 103c 9A70     		strb	r2, [r3, #2]
 4365              	.LVL430:
 293:Modules/include/MAVLink/common/../mavlink_helpers.h **** }
 4366              		.loc 2 293 24 view .LVU1661
 4367              	.LBE349:
ARM GAS  C:\Users\luoha\AppData\Local\Temp\cctfed2n.s 			page 126


 4368              	.LBE348:
 978:Modules/include/MAVLink/common/../mavlink_helpers.h **** 	    status->msg_received = MAVLINK_FRAMING_INCOMPLETE;
 4369              		.loc 2 978 6 is_stmt 1 view .LVU1662
 4370              		.loc 2 978 27 is_stmt 0 view .LVU1663
 4371 103e 0022     		movs	r2, #0
 4372 1040 1A70     		strb	r2, [r3]
 4373              	.LVL431:
 979:Modules/include/MAVLink/common/../mavlink_helpers.h **** 	    status->parse_state = MAVLINK_PARSE_STATE_IDLE;
 4374              		.loc 2 979 6 is_stmt 1 view .LVU1664
 4375              		.loc 2 979 26 is_stmt 0 view .LVU1665
 4376 1042 0122     		movs	r2, #1
 4377 1044 DA70     		strb	r2, [r3, #3]
 980:Modules/include/MAVLink/common/../mavlink_helpers.h **** 	    if (c == MAVLINK_STX)
 4378              		.loc 2 980 6 is_stmt 1 view .LVU1666
 4379              		.loc 2 980 9 is_stmt 0 view .LVU1667
 4380 1046 BBF1FD0F 		cmp	fp, #253
 4381 104a 02D0     		beq	.L187
 4382              	.L132:
 981:Modules/include/MAVLink/common/../mavlink_helpers.h **** 	    {
 982:Modules/include/MAVLink/common/../mavlink_helpers.h **** 		    status->parse_state = MAVLINK_PARSE_STATE_GOT_STX;
 983:Modules/include/MAVLink/common/../mavlink_helpers.h **** 		    rxmsg->len = 0;
 984:Modules/include/MAVLink/common/../mavlink_helpers.h **** 		    mavlink_start_checksum(rxmsg);
 985:Modules/include/MAVLink/common/../mavlink_helpers.h **** 	    }
 986:Modules/include/MAVLink/common/../mavlink_helpers.h **** 	    return 0;
 4383              		.loc 2 986 6 is_stmt 1 view .LVU1668
 4384              		.loc 2 986 13 is_stmt 0 view .LVU1669
 4385 104c 0022     		movs	r2, #0
 4386 104e FFF789B8 		b	.L131
 4387              	.L187:
 982:Modules/include/MAVLink/common/../mavlink_helpers.h **** 		    rxmsg->len = 0;
 4388              		.loc 2 982 7 is_stmt 1 view .LVU1670
 982:Modules/include/MAVLink/common/../mavlink_helpers.h **** 		    rxmsg->len = 0;
 4389              		.loc 2 982 27 is_stmt 0 view .LVU1671
 4390 1052 0222     		movs	r2, #2
 4391 1054 DA70     		strb	r2, [r3, #3]
 983:Modules/include/MAVLink/common/../mavlink_helpers.h **** 		    mavlink_start_checksum(rxmsg);
 4392              		.loc 2 983 7 is_stmt 1 view .LVU1672
 983:Modules/include/MAVLink/common/../mavlink_helpers.h **** 		    mavlink_start_checksum(rxmsg);
 4393              		.loc 2 983 18 is_stmt 0 view .LVU1673
 4394 1056 164B     		ldr	r3, .L196+12
 4395 1058 0022     		movs	r2, #0
 4396 105a DA70     		strb	r2, [r3, #3]
 984:Modules/include/MAVLink/common/../mavlink_helpers.h **** 	    }
 4397              		.loc 2 984 7 is_stmt 1 view .LVU1674
 4398              	.LVL432:
 4399              	.LBB350:
 4400              	.LBI350:
 481:Modules/include/MAVLink/common/../mavlink_helpers.h **** {
 4401              		.loc 2 481 21 view .LVU1675
 4402              	.LBB351:
 483:Modules/include/MAVLink/common/../mavlink_helpers.h **** 	crc_init(&crcTmp);
 4403              		.loc 2 483 2 view .LVU1676
 484:Modules/include/MAVLink/common/../mavlink_helpers.h **** 	msg->checksum = crcTmp;
 4404              		.loc 2 484 2 view .LVU1677
 484:Modules/include/MAVLink/common/../mavlink_helpers.h **** 	msg->checksum = crcTmp;
 4405              		.loc 2 484 2 is_stmt 0 view .LVU1678
 4406              	.LBE351:
ARM GAS  C:\Users\luoha\AppData\Local\Temp\cctfed2n.s 			page 127


 4407              	.LBE350:
 4408              	.LBE355:
 4409              	.LBE362:
 4410              	.LBE369:
 4411              	.LBE375:
 4412              		.loc 3 54 9 is_stmt 1 view .LVU1679
 4413              	.LBB376:
 4414              	.LBB370:
 4415              	.LBB363:
 4416              	.LBB356:
 4417              	.LBB353:
 4418              	.LBB352:
 485:Modules/include/MAVLink/common/../mavlink_helpers.h **** }
 4419              		.loc 2 485 2 view .LVU1680
 485:Modules/include/MAVLink/common/../mavlink_helpers.h **** }
 4420              		.loc 2 485 16 is_stmt 0 view .LVU1681
 4421 105c 4FF6FF72 		movw	r2, #65535
 4422 1060 1A80     		strh	r2, [r3]	@ movhi
 4423              	.LVL433:
 486:Modules/include/MAVLink/common/../mavlink_helpers.h **** 
 4424              		.loc 2 486 1 view .LVU1682
 4425 1062 F3E7     		b	.L132
 4426              	.LVL434:
 4427              	.L159:
 486:Modules/include/MAVLink/common/../mavlink_helpers.h **** 
 4428              		.loc 2 486 1 view .LVU1683
 4429              	.LBE352:
 4430              	.LBE353:
 4431              	.LBE356:
 4432              	.LBE363:
 4433              	.LBE370:
  94:Modules/src/uart4.c ****             // switch (msg.msgid) {
  95:Modules/src/uart4.c ****             //     case MAVLINK_MSG_ID_RC_CHANNELS_OVERRIDE: {
  96:Modules/src/uart4.c ****             //         Serial.println("MAVLINK_MSG_ID_RC_CHANNELS_OVERRIDE");
  97:Modules/src/uart4.c ****             //         break;
  98:Modules/src/uart4.c ****             //     }
  99:Modules/src/uart4.c ****             //     default: {
 100:Modules/src/uart4.c ****             //         break;
 101:Modules/src/uart4.c ****             //     }
 102:Modules/src/uart4.c ****             // }
 103:Modules/src/uart4.c ****             printf("===============\r\n");
 4434              		.loc 1 103 13 is_stmt 1 view .LVU1684
 4435 1064 164E     		ldr	r6, .L196+28
 4436 1066 3046     		mov	r0, r6
 4437 1068 FFF7FEFF 		bl	puts
 4438              	.LVL435:
 104:Modules/src/uart4.c ****             printf("%u\r\n", msg.msgid);
 4439              		.loc 1 104 13 view .LVU1685
 4440              		.loc 1 104 33 is_stmt 0 view .LVU1686
 4441 106c 114D     		ldr	r5, .L196+16
 4442 106e A968     		ldr	r1, [r5, #8]
 4443              		.loc 1 104 13 view .LVU1687
 4444 1070 144C     		ldr	r4, .L196+32
 4445 1072 090A     		lsrs	r1, r1, #8
 4446 1074 2046     		mov	r0, r4
 4447 1076 FFF7FEFF 		bl	printf
 4448              	.LVL436:
ARM GAS  C:\Users\luoha\AppData\Local\Temp\cctfed2n.s 			page 128


 105:Modules/src/uart4.c ****             printf("%u\r\n", msg.seq);
 4449              		.loc 1 105 13 is_stmt 1 view .LVU1688
 4450 107a A979     		ldrb	r1, [r5, #6]	@ zero_extendqisi2
 4451 107c 2046     		mov	r0, r4
 4452 107e FFF7FEFF 		bl	printf
 4453              	.LVL437:
 106:Modules/src/uart4.c ****             printf("%u\r\n", msg.compid);
 4454              		.loc 1 106 13 view .LVU1689
 4455 1082 297A     		ldrb	r1, [r5, #8]	@ zero_extendqisi2
 4456 1084 2046     		mov	r0, r4
 4457 1086 FFF7FEFF 		bl	printf
 4458              	.LVL438:
 107:Modules/src/uart4.c ****             printf("%u\r\n", msg.sysid);
 4459              		.loc 1 107 13 view .LVU1690
 4460 108a E979     		ldrb	r1, [r5, #7]	@ zero_extendqisi2
 4461 108c 2046     		mov	r0, r4
 4462 108e FFF7FEFF 		bl	printf
 4463              	.LVL439:
 108:Modules/src/uart4.c ****             printf("===============\r\n");
 4464              		.loc 1 108 13 view .LVU1691
 4465 1092 3046     		mov	r0, r6
 4466 1094 FFF7FEFF 		bl	puts
 4467              	.LVL440:
 4468 1098 FFF767B8 		b	.L133
 4469              	.LVL441:
 4470              	.L160:
 4471              		.loc 1 108 13 is_stmt 0 view .LVU1692
 4472              	.LBE376:
 109:Modules/src/uart4.c ****         }
 110:Modules/src/uart4.c ****     }
 111:Modules/src/uart4.c **** }
 4473              		.loc 1 111 1 view .LVU1693
 4474 109c 0DF50F7D 		add	sp, sp, #572
 4475              	.LCFI5:
 4476              		.cfi_def_cfa_offset 36
 4477              		@ sp needed
 4478 10a0 BDE8F08F 		pop	{r4, r5, r6, r7, r8, r9, r10, fp, pc}
 4479              	.LVL442:
 4480              	.L197:
 4481              		.loc 1 111 1 view .LVU1694
 4482              		.align	2
 4483              	.L196:
 4484 10a4 00000000 		.word	.LANCHOR5
 4485 10a8 1D010000 		.word	.LANCHOR1+285
 4486 10ac 00000000 		.word	.LANCHOR2
 4487 10b0 00000000 		.word	.LANCHOR1
 4488 10b4 00000000 		.word	.LANCHOR4
 4489 10b8 808D5B00 		.word	6000000
 4490 10bc 17010000 		.word	.LANCHOR1+279
 4491 10c0 00000000 		.word	.LC0
 4492 10c4 14000000 		.word	.LC1
 4493              		.cfi_endproc
 4494              	.LFE2737:
 4496              		.section	.text.UartRxCheck,"ax",%progbits
 4497              		.align	1
 4498              		.global	UartRxCheck
 4499              		.syntax unified
ARM GAS  C:\Users\luoha\AppData\Local\Temp\cctfed2n.s 			page 129


 4500              		.thumb
 4501              		.thumb_func
 4502              		.fpu fpv4-sp-d16
 4504              	UartRxCheck:
 4505              	.LFB2736:
  57:Modules/src/uart4.c ****     static size_t old_pos;
 4506              		.loc 1 57 24 is_stmt 1 view -0
 4507              		.cfi_startproc
 4508              		@ args = 0, pretend = 0, frame = 0
 4509              		@ frame_needed = 0, uses_anonymous_args = 0
 4510 0000 10B5     		push	{r4, lr}
 4511              	.LCFI6:
 4512              		.cfi_def_cfa_offset 8
 4513              		.cfi_offset 4, -8
 4514              		.cfi_offset 14, -4
  58:Modules/src/uart4.c ****     size_t pos;
 4515              		.loc 1 58 5 view .LVU1696
  59:Modules/src/uart4.c **** 
 4516              		.loc 1 59 5 view .LVU1697
  62:Modules/src/uart4.c **** 
 4517              		.loc 1 62 5 view .LVU1698
  62:Modules/src/uart4.c **** 
 4518              		.loc 1 62 28 is_stmt 0 view .LVU1699
 4519 0002 124B     		ldr	r3, .L204
 4520 0004 5B6B     		ldr	r3, [r3, #52]
 4521 0006 1B68     		ldr	r3, [r3]
 4522 0008 5C68     		ldr	r4, [r3, #4]
  62:Modules/src/uart4.c **** 
 4523              		.loc 1 62 9 view .LVU1700
 4524 000a C4F18004 		rsb	r4, r4, #128
 4525              	.LVL443:
  68:Modules/src/uart4.c ****         if (pos > old_pos) { /* Current position is over previous one */
 4526              		.loc 1 68 5 is_stmt 1 view .LVU1701
  68:Modules/src/uart4.c ****         if (pos > old_pos) { /* Current position is over previous one */
 4527              		.loc 1 68 13 is_stmt 0 view .LVU1702
 4528 000e 104B     		ldr	r3, .L204+4
 4529 0010 1B68     		ldr	r3, [r3]
  68:Modules/src/uart4.c ****         if (pos > old_pos) { /* Current position is over previous one */
 4530              		.loc 1 68 8 view .LVU1703
 4531 0012 A342     		cmp	r3, r4
 4532 0014 05D0     		beq	.L199
  69:Modules/src/uart4.c ****             /* We are in "linear" mode */
 4533              		.loc 1 69 9 is_stmt 1 view .LVU1704
  69:Modules/src/uart4.c ****             /* We are in "linear" mode */
 4534              		.loc 1 69 12 is_stmt 0 view .LVU1705
 4535 0016 09D2     		bcs	.L200
  72:Modules/src/uart4.c ****         } else {
 4536              		.loc 1 72 13 is_stmt 1 view .LVU1706
 4537 0018 E11A     		subs	r1, r4, r3
 4538 001a 0E48     		ldr	r0, .L204+8
 4539 001c 1844     		add	r0, r0, r3
 4540 001e FFF7FEFF 		bl	MavlinkParse
 4541              	.LVL444:
 4542              	.L199:
  83:Modules/src/uart4.c **** 
 4543              		.loc 1 83 5 view .LVU1707
  83:Modules/src/uart4.c **** 
ARM GAS  C:\Users\luoha\AppData\Local\Temp\cctfed2n.s 			page 130


 4544              		.loc 1 83 13 is_stmt 0 view .LVU1708
 4545 0022 0B4B     		ldr	r3, .L204+4
 4546 0024 1C60     		str	r4, [r3]
  86:Modules/src/uart4.c ****         old_pos = 0;
 4547              		.loc 1 86 5 is_stmt 1 view .LVU1709
  86:Modules/src/uart4.c ****         old_pos = 0;
 4548              		.loc 1 86 8 is_stmt 0 view .LVU1710
 4549 0026 802C     		cmp	r4, #128
 4550 0028 0DD0     		beq	.L203
 4551              	.L198:
  89:Modules/src/uart4.c **** 
 4552              		.loc 1 89 1 view .LVU1711
 4553 002a 10BD     		pop	{r4, pc}
 4554              	.LVL445:
 4555              	.L200:
  76:Modules/src/uart4.c ****             /* Check and continue with beginning of buffer */
 4556              		.loc 1 76 13 is_stmt 1 view .LVU1712
 4557 002c C3F18001 		rsb	r1, r3, #128
 4558 0030 0848     		ldr	r0, .L204+8
 4559 0032 1844     		add	r0, r0, r3
 4560 0034 FFF7FEFF 		bl	MavlinkParse
 4561              	.LVL446:
  78:Modules/src/uart4.c ****                 MavlinkParse(&rx_buffer[0], pos);
 4562              		.loc 1 78 13 view .LVU1713
  78:Modules/src/uart4.c ****                 MavlinkParse(&rx_buffer[0], pos);
 4563              		.loc 1 78 16 is_stmt 0 view .LVU1714
 4564 0038 002C     		cmp	r4, #0
 4565 003a F2D0     		beq	.L199
  79:Modules/src/uart4.c ****             }
 4566              		.loc 1 79 17 is_stmt 1 view .LVU1715
 4567 003c 2146     		mov	r1, r4
 4568 003e 0548     		ldr	r0, .L204+8
 4569 0040 FFF7FEFF 		bl	MavlinkParse
 4570              	.LVL447:
 4571 0044 EDE7     		b	.L199
 4572              	.L203:
  87:Modules/src/uart4.c ****     }
 4573              		.loc 1 87 9 view .LVU1716
  87:Modules/src/uart4.c ****     }
 4574              		.loc 1 87 17 is_stmt 0 view .LVU1717
 4575 0046 0022     		movs	r2, #0
 4576 0048 1A60     		str	r2, [r3]
  89:Modules/src/uart4.c **** 
 4577              		.loc 1 89 1 view .LVU1718
 4578 004a EEE7     		b	.L198
 4579              	.L205:
 4580              		.align	2
 4581              	.L204:
 4582 004c 00000000 		.word	huart4
 4583 0050 00000000 		.word	.LANCHOR7
 4584 0054 00000000 		.word	.LANCHOR0
 4585              		.cfi_endproc
 4586              	.LFE2736:
 4588              		.section	.text.UART4_IRQHandler,"ax",%progbits
 4589              		.align	1
 4590              		.global	UART4_IRQHandler
 4591              		.syntax unified
ARM GAS  C:\Users\luoha\AppData\Local\Temp\cctfed2n.s 			page 131


 4592              		.thumb
 4593              		.thumb_func
 4594              		.fpu fpv4-sp-d16
 4596              	UART4_IRQHandler:
 4597              	.LFB2731:
  10:Modules/src/uart4.c ****     if (__HAL_UART_GET_FLAG(&huart4, UART_FLAG_IDLE) != RESET) {
 4598              		.loc 1 10 29 is_stmt 1 view -0
 4599              		.cfi_startproc
 4600              		@ args = 0, pretend = 0, frame = 8
 4601              		@ frame_needed = 0, uses_anonymous_args = 0
 4602 0000 00B5     		push	{lr}
 4603              	.LCFI7:
 4604              		.cfi_def_cfa_offset 4
 4605              		.cfi_offset 14, -4
 4606 0002 83B0     		sub	sp, sp, #12
 4607              	.LCFI8:
 4608              		.cfi_def_cfa_offset 16
  11:Modules/src/uart4.c ****         __HAL_UART_CLEAR_IDLEFLAG(&huart4);
 4609              		.loc 1 11 5 view .LVU1720
  11:Modules/src/uart4.c ****         __HAL_UART_CLEAR_IDLEFLAG(&huart4);
 4610              		.loc 1 11 9 is_stmt 0 view .LVU1721
 4611 0004 0A4B     		ldr	r3, .L210
 4612 0006 1B68     		ldr	r3, [r3]
 4613 0008 1A68     		ldr	r2, [r3]
  11:Modules/src/uart4.c ****         __HAL_UART_CLEAR_IDLEFLAG(&huart4);
 4614              		.loc 1 11 8 view .LVU1722
 4615 000a 12F0100F 		tst	r2, #16
 4616 000e 0BD0     		beq	.L207
  12:Modules/src/uart4.c ****         UartRxCheck();
 4617              		.loc 1 12 9 is_stmt 1 view .LVU1723
 4618              	.LBB377:
  12:Modules/src/uart4.c ****         UartRxCheck();
 4619              		.loc 1 12 9 view .LVU1724
 4620 0010 0022     		movs	r2, #0
 4621 0012 0192     		str	r2, [sp, #4]
  12:Modules/src/uart4.c ****         UartRxCheck();
 4622              		.loc 1 12 9 view .LVU1725
 4623 0014 1A68     		ldr	r2, [r3]
 4624 0016 0192     		str	r2, [sp, #4]
  12:Modules/src/uart4.c ****         UartRxCheck();
 4625              		.loc 1 12 9 view .LVU1726
 4626 0018 5B68     		ldr	r3, [r3, #4]
 4627 001a 0193     		str	r3, [sp, #4]
  12:Modules/src/uart4.c ****         UartRxCheck();
 4628              		.loc 1 12 9 view .LVU1727
 4629 001c 019B     		ldr	r3, [sp, #4]
 4630              	.LBE377:
  12:Modules/src/uart4.c ****         UartRxCheck();
 4631              		.loc 1 12 9 view .LVU1728
  13:Modules/src/uart4.c ****     // }
 4632              		.loc 1 13 9 view .LVU1729
 4633 001e FFF7FEFF 		bl	UartRxCheck
 4634              	.LVL448:
 4635              	.L206:
  22:Modules/src/uart4.c **** 
 4636              		.loc 1 22 1 is_stmt 0 view .LVU1730
 4637 0022 03B0     		add	sp, sp, #12
ARM GAS  C:\Users\luoha\AppData\Local\Temp\cctfed2n.s 			page 132


 4638              	.LCFI9:
 4639              		.cfi_remember_state
 4640              		.cfi_def_cfa_offset 4
 4641              		@ sp needed
 4642 0024 5DF804FB 		ldr	pc, [sp], #4
 4643              	.L207:
 4644              	.LCFI10:
 4645              		.cfi_restore_state
  16:Modules/src/uart4.c ****         // printf("UART4_IRQHandler");
 4646              		.loc 1 16 9 is_stmt 1 view .LVU1731
 4647 0028 0148     		ldr	r0, .L210
 4648 002a FFF7FEFF 		bl	HAL_UART_IRQHandler
 4649              	.LVL449:
  22:Modules/src/uart4.c **** 
 4650              		.loc 1 22 1 is_stmt 0 view .LVU1732
 4651 002e F8E7     		b	.L206
 4652              	.L211:
 4653              		.align	2
 4654              	.L210:
 4655 0030 00000000 		.word	huart4
 4656              		.cfi_endproc
 4657              	.LFE2731:
 4659              		.section	.text.HAL_UART_RxCpltCallback,"ax",%progbits
 4660              		.align	1
 4661              		.global	HAL_UART_RxCpltCallback
 4662              		.syntax unified
 4663              		.thumb
 4664              		.thumb_func
 4665              		.fpu fpv4-sp-d16
 4667              	HAL_UART_RxCpltCallback:
 4668              	.LVL450:
 4669              	.LFB2734:
  45:Modules/src/uart4.c ****     if (huart->Instance == UART4) {
 4670              		.loc 1 45 57 is_stmt 1 view -0
 4671              		.cfi_startproc
 4672              		@ args = 0, pretend = 0, frame = 0
 4673              		@ frame_needed = 0, uses_anonymous_args = 0
  45:Modules/src/uart4.c ****     if (huart->Instance == UART4) {
 4674              		.loc 1 45 57 is_stmt 0 view .LVU1734
 4675 0000 08B5     		push	{r3, lr}
 4676              	.LCFI11:
 4677              		.cfi_def_cfa_offset 8
 4678              		.cfi_offset 3, -8
 4679              		.cfi_offset 14, -4
  46:Modules/src/uart4.c ****         UartRxCheck();
 4680              		.loc 1 46 5 is_stmt 1 view .LVU1735
  46:Modules/src/uart4.c ****         UartRxCheck();
 4681              		.loc 1 46 14 is_stmt 0 view .LVU1736
 4682 0002 0268     		ldr	r2, [r0]
  46:Modules/src/uart4.c ****         UartRxCheck();
 4683              		.loc 1 46 8 view .LVU1737
 4684 0004 034B     		ldr	r3, .L216
 4685 0006 9A42     		cmp	r2, r3
 4686 0008 00D0     		beq	.L215
 4687              	.LVL451:
 4688              	.L212:
  49:Modules/src/uart4.c **** 
ARM GAS  C:\Users\luoha\AppData\Local\Temp\cctfed2n.s 			page 133


 4689              		.loc 1 49 1 view .LVU1738
 4690 000a 08BD     		pop	{r3, pc}
 4691              	.LVL452:
 4692              	.L215:
  47:Modules/src/uart4.c ****     }
 4693              		.loc 1 47 9 is_stmt 1 view .LVU1739
 4694 000c FFF7FEFF 		bl	UartRxCheck
 4695              	.LVL453:
  49:Modules/src/uart4.c **** 
 4696              		.loc 1 49 1 is_stmt 0 view .LVU1740
 4697 0010 FBE7     		b	.L212
 4698              	.L217:
 4699 0012 00BF     		.align	2
 4700              	.L216:
 4701 0014 004C0040 		.word	1073761280
 4702              		.cfi_endproc
 4703              	.LFE2734:
 4705              		.section	.text.HAL_UART_RxHalfCpltCallback,"ax",%progbits
 4706              		.align	1
 4707              		.global	HAL_UART_RxHalfCpltCallback
 4708              		.syntax unified
 4709              		.thumb
 4710              		.thumb_func
 4711              		.fpu fpv4-sp-d16
 4713              	HAL_UART_RxHalfCpltCallback:
 4714              	.LVL454:
 4715              	.LFB2735:
  51:Modules/src/uart4.c ****     if (huart->Instance == UART4) {
 4716              		.loc 1 51 61 is_stmt 1 view -0
 4717              		.cfi_startproc
 4718              		@ args = 0, pretend = 0, frame = 0
 4719              		@ frame_needed = 0, uses_anonymous_args = 0
  51:Modules/src/uart4.c ****     if (huart->Instance == UART4) {
 4720              		.loc 1 51 61 is_stmt 0 view .LVU1742
 4721 0000 08B5     		push	{r3, lr}
 4722              	.LCFI12:
 4723              		.cfi_def_cfa_offset 8
 4724              		.cfi_offset 3, -8
 4725              		.cfi_offset 14, -4
  52:Modules/src/uart4.c ****         UartRxCheck();
 4726              		.loc 1 52 5 is_stmt 1 view .LVU1743
  52:Modules/src/uart4.c ****         UartRxCheck();
 4727              		.loc 1 52 14 is_stmt 0 view .LVU1744
 4728 0002 0268     		ldr	r2, [r0]
  52:Modules/src/uart4.c ****         UartRxCheck();
 4729              		.loc 1 52 8 view .LVU1745
 4730 0004 034B     		ldr	r3, .L222
 4731 0006 9A42     		cmp	r2, r3
 4732 0008 00D0     		beq	.L221
 4733              	.LVL455:
 4734              	.L218:
  55:Modules/src/uart4.c **** 
 4735              		.loc 1 55 1 view .LVU1746
 4736 000a 08BD     		pop	{r3, pc}
 4737              	.LVL456:
 4738              	.L221:
  53:Modules/src/uart4.c ****     }
ARM GAS  C:\Users\luoha\AppData\Local\Temp\cctfed2n.s 			page 134


 4739              		.loc 1 53 9 is_stmt 1 view .LVU1747
 4740 000c FFF7FEFF 		bl	UartRxCheck
 4741              	.LVL457:
  55:Modules/src/uart4.c **** 
 4742              		.loc 1 55 1 is_stmt 0 view .LVU1748
 4743 0010 FBE7     		b	.L218
 4744              	.L223:
 4745 0012 00BF     		.align	2
 4746              	.L222:
 4747 0014 004C0040 		.word	1073761280
 4748              		.cfi_endproc
 4749              	.LFE2735:
 4751              		.section	.bss.m_mavlink_buffer.10181,"aw",%nobits
 4752              		.align	2
 4753              		.set	.LANCHOR1,. + 0
 4756              	m_mavlink_buffer.10181:
 4757 0000 00000000 		.space	1164
 4757      00000000 
 4757      00000000 
 4757      00000000 
 4757      00000000 
 4758              		.section	.bss.m_mavlink_status.10177,"aw",%nobits
 4759              		.align	2
 4760              		.set	.LANCHOR2,. + 0
 4763              	m_mavlink_status.10177:
 4764 0000 00000000 		.space	96
 4764      00000000 
 4764      00000000 
 4764      00000000 
 4764      00000000 
 4765              		.section	.bss.msg,"aw",%nobits
 4766              		.align	2
 4767              		.set	.LANCHOR4,. + 0
 4770              	msg:
 4771 0000 00000000 		.space	291
 4771      00000000 
 4771      00000000 
 4771      00000000 
 4771      00000000 
 4772              		.section	.bss.old_pos.27914,"aw",%nobits
 4773              		.align	2
 4774              		.set	.LANCHOR7,. + 0
 4777              	old_pos.27914:
 4778 0000 00000000 		.space	4
 4779              		.section	.bss.rx_buffer,"aw",%nobits
 4780              		.align	2
 4781              		.set	.LANCHOR0,. + 0
 4784              	rx_buffer:
 4785 0000 00000000 		.space	128
 4785      00000000 
 4785      00000000 
 4785      00000000 
 4785      00000000 
 4786              		.section	.bss.status,"aw",%nobits
 4787              		.align	2
 4788              		.set	.LANCHOR6,. + 0
 4791              	status:
ARM GAS  C:\Users\luoha\AppData\Local\Temp\cctfed2n.s 			page 135


 4792 0000 00000000 		.space	24
 4792      00000000 
 4792      00000000 
 4792      00000000 
 4792      00000000 
 4793              		.section	.rodata.mavlink_message_crcs.10290,"a"
 4794              		.align	2
 4795              		.set	.LANCHOR3,. + 0
 4798              	mavlink_message_crcs.10290:
 4799 0000 00000000 		.word	0
 4800 0004 32       		.byte	50
 4801 0005 09       		.byte	9
 4802 0006 09       		.byte	9
 4803 0007 00       		.byte	0
 4804 0008 00       		.byte	0
 4805 0009 00       		.byte	0
 4806 000a 0000     		.space	2
 4807 000c 01000000 		.word	1
 4808 0010 7C       		.byte	124
 4809 0011 1F       		.byte	31
 4810 0012 1F       		.byte	31
 4811 0013 00       		.byte	0
 4812 0014 00       		.byte	0
 4813 0015 00       		.byte	0
 4814 0016 0000     		.space	2
 4815 0018 02000000 		.word	2
 4816 001c 89       		.byte	-119
 4817 001d 0C       		.byte	12
 4818 001e 0C       		.byte	12
 4819 001f 00       		.byte	0
 4820 0020 00       		.byte	0
 4821 0021 00       		.byte	0
 4822 0022 0000     		.space	2
 4823 0024 04000000 		.word	4
 4824 0028 ED       		.byte	-19
 4825 0029 0E       		.byte	14
 4826 002a 0E       		.byte	14
 4827 002b 03       		.byte	3
 4828 002c 0C       		.byte	12
 4829 002d 0D       		.byte	13
 4830 002e 0000     		.space	2
 4831 0030 05000000 		.word	5
 4832 0034 D9       		.byte	-39
 4833 0035 1C       		.byte	28
 4834 0036 1C       		.byte	28
 4835 0037 01       		.byte	1
 4836 0038 00       		.byte	0
 4837 0039 00       		.byte	0
 4838 003a 0000     		.space	2
 4839 003c 06000000 		.word	6
 4840 0040 68       		.byte	104
 4841 0041 03       		.byte	3
 4842 0042 03       		.byte	3
 4843 0043 00       		.byte	0
 4844 0044 00       		.byte	0
 4845 0045 00       		.byte	0
 4846 0046 0000     		.space	2
ARM GAS  C:\Users\luoha\AppData\Local\Temp\cctfed2n.s 			page 136


 4847 0048 07000000 		.word	7
 4848 004c 77       		.byte	119
 4849 004d 20       		.byte	32
 4850 004e 20       		.byte	32
 4851 004f 00       		.byte	0
 4852 0050 00       		.byte	0
 4853 0051 00       		.byte	0
 4854 0052 0000     		.space	2
 4855 0054 08000000 		.word	8
 4856 0058 75       		.byte	117
 4857 0059 24       		.byte	36
 4858 005a 24       		.byte	36
 4859 005b 00       		.byte	0
 4860 005c 00       		.byte	0
 4861 005d 00       		.byte	0
 4862 005e 0000     		.space	2
 4863 0060 0B000000 		.word	11
 4864 0064 59       		.byte	89
 4865 0065 06       		.byte	6
 4866 0066 06       		.byte	6
 4867 0067 01       		.byte	1
 4868 0068 04       		.byte	4
 4869 0069 00       		.byte	0
 4870 006a 0000     		.space	2
 4871 006c 14000000 		.word	20
 4872 0070 D6       		.byte	-42
 4873 0071 14       		.byte	20
 4874 0072 14       		.byte	20
 4875 0073 03       		.byte	3
 4876 0074 02       		.byte	2
 4877 0075 03       		.byte	3
 4878 0076 0000     		.space	2
 4879 0078 15000000 		.word	21
 4880 007c 9F       		.byte	-97
 4881 007d 02       		.byte	2
 4882 007e 02       		.byte	2
 4883 007f 03       		.byte	3
 4884 0080 00       		.byte	0
 4885 0081 01       		.byte	1
 4886 0082 0000     		.space	2
 4887 0084 16000000 		.word	22
 4888 0088 DC       		.byte	-36
 4889 0089 19       		.byte	25
 4890 008a 19       		.byte	25
 4891 008b 00       		.byte	0
 4892 008c 00       		.byte	0
 4893 008d 00       		.byte	0
 4894 008e 0000     		.space	2
 4895 0090 17000000 		.word	23
 4896 0094 A8       		.byte	-88
 4897 0095 17       		.byte	23
 4898 0096 17       		.byte	23
 4899 0097 03       		.byte	3
 4900 0098 04       		.byte	4
 4901 0099 05       		.byte	5
 4902 009a 0000     		.space	2
 4903 009c 18000000 		.word	24
ARM GAS  C:\Users\luoha\AppData\Local\Temp\cctfed2n.s 			page 137


 4904 00a0 18       		.byte	24
 4905 00a1 1E       		.byte	30
 4906 00a2 34       		.byte	52
 4907 00a3 00       		.byte	0
 4908 00a4 00       		.byte	0
 4909 00a5 00       		.byte	0
 4910 00a6 0000     		.space	2
 4911 00a8 19000000 		.word	25
 4912 00ac 17       		.byte	23
 4913 00ad 65       		.byte	101
 4914 00ae 65       		.byte	101
 4915 00af 00       		.byte	0
 4916 00b0 00       		.byte	0
 4917 00b1 00       		.byte	0
 4918 00b2 0000     		.space	2
 4919 00b4 1A000000 		.word	26
 4920 00b8 AA       		.byte	-86
 4921 00b9 16       		.byte	22
 4922 00ba 18       		.byte	24
 4923 00bb 00       		.byte	0
 4924 00bc 00       		.byte	0
 4925 00bd 00       		.byte	0
 4926 00be 0000     		.space	2
 4927 00c0 1B000000 		.word	27
 4928 00c4 90       		.byte	-112
 4929 00c5 1A       		.byte	26
 4930 00c6 1D       		.byte	29
 4931 00c7 00       		.byte	0
 4932 00c8 00       		.byte	0
 4933 00c9 00       		.byte	0
 4934 00ca 0000     		.space	2
 4935 00cc 1C000000 		.word	28
 4936 00d0 43       		.byte	67
 4937 00d1 10       		.byte	16
 4938 00d2 10       		.byte	16
 4939 00d3 00       		.byte	0
 4940 00d4 00       		.byte	0
 4941 00d5 00       		.byte	0
 4942 00d6 0000     		.space	2
 4943 00d8 1D000000 		.word	29
 4944 00dc 73       		.byte	115
 4945 00dd 0E       		.byte	14
 4946 00de 0E       		.byte	14
 4947 00df 00       		.byte	0
 4948 00e0 00       		.byte	0
 4949 00e1 00       		.byte	0
 4950 00e2 0000     		.space	2
 4951 00e4 1E000000 		.word	30
 4952 00e8 27       		.byte	39
 4953 00e9 1C       		.byte	28
 4954 00ea 1C       		.byte	28
 4955 00eb 00       		.byte	0
 4956 00ec 00       		.byte	0
 4957 00ed 00       		.byte	0
 4958 00ee 0000     		.space	2
 4959 00f0 1F000000 		.word	31
 4960 00f4 F6       		.byte	-10
ARM GAS  C:\Users\luoha\AppData\Local\Temp\cctfed2n.s 			page 138


 4961 00f5 20       		.byte	32
 4962 00f6 30       		.byte	48
 4963 00f7 00       		.byte	0
 4964 00f8 00       		.byte	0
 4965 00f9 00       		.byte	0
 4966 00fa 0000     		.space	2
 4967 00fc 20000000 		.word	32
 4968 0100 B9       		.byte	-71
 4969 0101 1C       		.byte	28
 4970 0102 1C       		.byte	28
 4971 0103 00       		.byte	0
 4972 0104 00       		.byte	0
 4973 0105 00       		.byte	0
 4974 0106 0000     		.space	2
 4975 0108 21000000 		.word	33
 4976 010c 68       		.byte	104
 4977 010d 1C       		.byte	28
 4978 010e 1C       		.byte	28
 4979 010f 00       		.byte	0
 4980 0110 00       		.byte	0
 4981 0111 00       		.byte	0
 4982 0112 0000     		.space	2
 4983 0114 22000000 		.word	34
 4984 0118 ED       		.byte	-19
 4985 0119 16       		.byte	22
 4986 011a 16       		.byte	22
 4987 011b 00       		.byte	0
 4988 011c 00       		.byte	0
 4989 011d 00       		.byte	0
 4990 011e 0000     		.space	2
 4991 0120 23000000 		.word	35
 4992 0124 F4       		.byte	-12
 4993 0125 16       		.byte	22
 4994 0126 16       		.byte	22
 4995 0127 00       		.byte	0
 4996 0128 00       		.byte	0
 4997 0129 00       		.byte	0
 4998 012a 0000     		.space	2
 4999 012c 24000000 		.word	36
 5000 0130 DE       		.byte	-34
 5001 0131 15       		.byte	21
 5002 0132 25       		.byte	37
 5003 0133 00       		.byte	0
 5004 0134 00       		.byte	0
 5005 0135 00       		.byte	0
 5006 0136 0000     		.space	2
 5007 0138 25000000 		.word	37
 5008 013c D4       		.byte	-44
 5009 013d 06       		.byte	6
 5010 013e 07       		.byte	7
 5011 013f 03       		.byte	3
 5012 0140 04       		.byte	4
 5013 0141 05       		.byte	5
 5014 0142 0000     		.space	2
 5015 0144 26000000 		.word	38
 5016 0148 09       		.byte	9
 5017 0149 06       		.byte	6
ARM GAS  C:\Users\luoha\AppData\Local\Temp\cctfed2n.s 			page 139


 5018 014a 07       		.byte	7
 5019 014b 03       		.byte	3
 5020 014c 04       		.byte	4
 5021 014d 05       		.byte	5
 5022 014e 0000     		.space	2
 5023 0150 27000000 		.word	39
 5024 0154 FE       		.byte	-2
 5025 0155 25       		.byte	37
 5026 0156 26       		.byte	38
 5027 0157 03       		.byte	3
 5028 0158 20       		.byte	32
 5029 0159 21       		.byte	33
 5030 015a 0000     		.space	2
 5031 015c 28000000 		.word	40
 5032 0160 E6       		.byte	-26
 5033 0161 04       		.byte	4
 5034 0162 05       		.byte	5
 5035 0163 03       		.byte	3
 5036 0164 02       		.byte	2
 5037 0165 03       		.byte	3
 5038 0166 0000     		.space	2
 5039 0168 29000000 		.word	41
 5040 016c 1C       		.byte	28
 5041 016d 04       		.byte	4
 5042 016e 04       		.byte	4
 5043 016f 03       		.byte	3
 5044 0170 02       		.byte	2
 5045 0171 03       		.byte	3
 5046 0172 0000     		.space	2
 5047 0174 2A000000 		.word	42
 5048 0178 1C       		.byte	28
 5049 0179 02       		.byte	2
 5050 017a 02       		.byte	2
 5051 017b 00       		.byte	0
 5052 017c 00       		.byte	0
 5053 017d 00       		.byte	0
 5054 017e 0000     		.space	2
 5055 0180 2B000000 		.word	43
 5056 0184 84       		.byte	-124
 5057 0185 02       		.byte	2
 5058 0186 03       		.byte	3
 5059 0187 03       		.byte	3
 5060 0188 00       		.byte	0
 5061 0189 01       		.byte	1
 5062 018a 0000     		.space	2
 5063 018c 2C000000 		.word	44
 5064 0190 DD       		.byte	-35
 5065 0191 04       		.byte	4
 5066 0192 05       		.byte	5
 5067 0193 03       		.byte	3
 5068 0194 02       		.byte	2
 5069 0195 03       		.byte	3
 5070 0196 0000     		.space	2
 5071 0198 2D000000 		.word	45
 5072 019c E8       		.byte	-24
 5073 019d 02       		.byte	2
 5074 019e 03       		.byte	3
ARM GAS  C:\Users\luoha\AppData\Local\Temp\cctfed2n.s 			page 140


 5075 019f 03       		.byte	3
 5076 01a0 00       		.byte	0
 5077 01a1 01       		.byte	1
 5078 01a2 0000     		.space	2
 5079 01a4 2E000000 		.word	46
 5080 01a8 0B       		.byte	11
 5081 01a9 02       		.byte	2
 5082 01aa 02       		.byte	2
 5083 01ab 00       		.byte	0
 5084 01ac 00       		.byte	0
 5085 01ad 00       		.byte	0
 5086 01ae 0000     		.space	2
 5087 01b0 2F000000 		.word	47
 5088 01b4 99       		.byte	-103
 5089 01b5 03       		.byte	3
 5090 01b6 04       		.byte	4
 5091 01b7 03       		.byte	3
 5092 01b8 00       		.byte	0
 5093 01b9 01       		.byte	1
 5094 01ba 0000     		.space	2
 5095 01bc 30000000 		.word	48
 5096 01c0 29       		.byte	41
 5097 01c1 0D       		.byte	13
 5098 01c2 15       		.byte	21
 5099 01c3 01       		.byte	1
 5100 01c4 0C       		.byte	12
 5101 01c5 00       		.byte	0
 5102 01c6 0000     		.space	2
 5103 01c8 31000000 		.word	49
 5104 01cc 27       		.byte	39
 5105 01cd 0C       		.byte	12
 5106 01ce 14       		.byte	20
 5107 01cf 00       		.byte	0
 5108 01d0 00       		.byte	0
 5109 01d1 00       		.byte	0
 5110 01d2 0000     		.space	2
 5111 01d4 32000000 		.word	50
 5112 01d8 4E       		.byte	78
 5113 01d9 25       		.byte	37
 5114 01da 25       		.byte	37
 5115 01db 03       		.byte	3
 5116 01dc 12       		.byte	18
 5117 01dd 13       		.byte	19
 5118 01de 0000     		.space	2
 5119 01e0 33000000 		.word	51
 5120 01e4 C4       		.byte	-60
 5121 01e5 04       		.byte	4
 5122 01e6 05       		.byte	5
 5123 01e7 03       		.byte	3
 5124 01e8 02       		.byte	2
 5125 01e9 03       		.byte	3
 5126 01ea 0000     		.space	2
 5127 01ec 34000000 		.word	52
 5128 01f0 84       		.byte	-124
 5129 01f1 07       		.byte	7
 5130 01f2 07       		.byte	7
 5131 01f3 00       		.byte	0
ARM GAS  C:\Users\luoha\AppData\Local\Temp\cctfed2n.s 			page 141


 5132 01f4 00       		.byte	0
 5133 01f5 00       		.byte	0
 5134 01f6 0000     		.space	2
 5135 01f8 36000000 		.word	54
 5136 01fc 0F       		.byte	15
 5137 01fd 1B       		.byte	27
 5138 01fe 1B       		.byte	27
 5139 01ff 03       		.byte	3
 5140 0200 18       		.byte	24
 5141 0201 19       		.byte	25
 5142 0202 0000     		.space	2
 5143 0204 37000000 		.word	55
 5144 0208 03       		.byte	3
 5145 0209 19       		.byte	25
 5146 020a 19       		.byte	25
 5147 020b 00       		.byte	0
 5148 020c 00       		.byte	0
 5149 020d 00       		.byte	0
 5150 020e 0000     		.space	2
 5151 0210 3D000000 		.word	61
 5152 0214 A7       		.byte	-89
 5153 0215 48       		.byte	72
 5154 0216 48       		.byte	72
 5155 0217 00       		.byte	0
 5156 0218 00       		.byte	0
 5157 0219 00       		.byte	0
 5158 021a 0000     		.space	2
 5159 021c 3E000000 		.word	62
 5160 0220 B7       		.byte	-73
 5161 0221 1A       		.byte	26
 5162 0222 1A       		.byte	26
 5163 0223 00       		.byte	0
 5164 0224 00       		.byte	0
 5165 0225 00       		.byte	0
 5166 0226 0000     		.space	2
 5167 0228 3F000000 		.word	63
 5168 022c 77       		.byte	119
 5169 022d B5       		.byte	-75
 5170 022e B5       		.byte	-75
 5171 022f 00       		.byte	0
 5172 0230 00       		.byte	0
 5173 0231 00       		.byte	0
 5174 0232 0000     		.space	2
 5175 0234 40000000 		.word	64
 5176 0238 BF       		.byte	-65
 5177 0239 E1       		.byte	-31
 5178 023a E1       		.byte	-31
 5179 023b 00       		.byte	0
 5180 023c 00       		.byte	0
 5181 023d 00       		.byte	0
 5182 023e 0000     		.space	2
 5183 0240 41000000 		.word	65
 5184 0244 76       		.byte	118
 5185 0245 2A       		.byte	42
 5186 0246 2A       		.byte	42
 5187 0247 00       		.byte	0
 5188 0248 00       		.byte	0
ARM GAS  C:\Users\luoha\AppData\Local\Temp\cctfed2n.s 			page 142


 5189 0249 00       		.byte	0
 5190 024a 0000     		.space	2
 5191 024c 42000000 		.word	66
 5192 0250 94       		.byte	-108
 5193 0251 06       		.byte	6
 5194 0252 06       		.byte	6
 5195 0253 03       		.byte	3
 5196 0254 02       		.byte	2
 5197 0255 03       		.byte	3
 5198 0256 0000     		.space	2
 5199 0258 43000000 		.word	67
 5200 025c 15       		.byte	21
 5201 025d 04       		.byte	4
 5202 025e 04       		.byte	4
 5203 025f 00       		.byte	0
 5204 0260 00       		.byte	0
 5205 0261 00       		.byte	0
 5206 0262 0000     		.space	2
 5207 0264 45000000 		.word	69
 5208 0268 F3       		.byte	-13
 5209 0269 0B       		.byte	11
 5210 026a 0B       		.byte	11
 5211 026b 01       		.byte	1
 5212 026c 0A       		.byte	10
 5213 026d 00       		.byte	0
 5214 026e 0000     		.space	2
 5215 0270 46000000 		.word	70
 5216 0274 7C       		.byte	124
 5217 0275 12       		.byte	18
 5218 0276 26       		.byte	38
 5219 0277 03       		.byte	3
 5220 0278 10       		.byte	16
 5221 0279 11       		.byte	17
 5222 027a 0000     		.space	2
 5223 027c 49000000 		.word	73
 5224 0280 26       		.byte	38
 5225 0281 25       		.byte	37
 5226 0282 26       		.byte	38
 5227 0283 03       		.byte	3
 5228 0284 20       		.byte	32
 5229 0285 21       		.byte	33
 5230 0286 0000     		.space	2
 5231 0288 4A000000 		.word	74
 5232 028c 14       		.byte	20
 5233 028d 14       		.byte	20
 5234 028e 14       		.byte	20
 5235 028f 00       		.byte	0
 5236 0290 00       		.byte	0
 5237 0291 00       		.byte	0
 5238 0292 0000     		.space	2
 5239 0294 4B000000 		.word	75
 5240 0298 9E       		.byte	-98
 5241 0299 23       		.byte	35
 5242 029a 23       		.byte	35
 5243 029b 03       		.byte	3
 5244 029c 1E       		.byte	30
 5245 029d 1F       		.byte	31
ARM GAS  C:\Users\luoha\AppData\Local\Temp\cctfed2n.s 			page 143


 5246 029e 0000     		.space	2
 5247 02a0 4C000000 		.word	76
 5248 02a4 98       		.byte	-104
 5249 02a5 21       		.byte	33
 5250 02a6 21       		.byte	33
 5251 02a7 03       		.byte	3
 5252 02a8 1E       		.byte	30
 5253 02a9 1F       		.byte	31
 5254 02aa 0000     		.space	2
 5255 02ac 4D000000 		.word	77
 5256 02b0 8F       		.byte	-113
 5257 02b1 03       		.byte	3
 5258 02b2 0A       		.byte	10
 5259 02b3 03       		.byte	3
 5260 02b4 08       		.byte	8
 5261 02b5 09       		.byte	9
 5262 02b6 0000     		.space	2
 5263 02b8 51000000 		.word	81
 5264 02bc 6A       		.byte	106
 5265 02bd 16       		.byte	22
 5266 02be 16       		.byte	22
 5267 02bf 00       		.byte	0
 5268 02c0 00       		.byte	0
 5269 02c1 00       		.byte	0
 5270 02c2 0000     		.space	2
 5271 02c4 52000000 		.word	82
 5272 02c8 31       		.byte	49
 5273 02c9 27       		.byte	39
 5274 02ca 27       		.byte	39
 5275 02cb 03       		.byte	3
 5276 02cc 24       		.byte	36
 5277 02cd 25       		.byte	37
 5278 02ce 0000     		.space	2
 5279 02d0 53000000 		.word	83
 5280 02d4 16       		.byte	22
 5281 02d5 25       		.byte	37
 5282 02d6 25       		.byte	37
 5283 02d7 00       		.byte	0
 5284 02d8 00       		.byte	0
 5285 02d9 00       		.byte	0
 5286 02da 0000     		.space	2
 5287 02dc 54000000 		.word	84
 5288 02e0 8F       		.byte	-113
 5289 02e1 35       		.byte	53
 5290 02e2 35       		.byte	53
 5291 02e3 03       		.byte	3
 5292 02e4 32       		.byte	50
 5293 02e5 33       		.byte	51
 5294 02e6 0000     		.space	2
 5295 02e8 55000000 		.word	85
 5296 02ec 8C       		.byte	-116
 5297 02ed 33       		.byte	51
 5298 02ee 33       		.byte	51
 5299 02ef 00       		.byte	0
 5300 02f0 00       		.byte	0
 5301 02f1 00       		.byte	0
 5302 02f2 0000     		.space	2
ARM GAS  C:\Users\luoha\AppData\Local\Temp\cctfed2n.s 			page 144


 5303 02f4 56000000 		.word	86
 5304 02f8 05       		.byte	5
 5305 02f9 35       		.byte	53
 5306 02fa 35       		.byte	53
 5307 02fb 03       		.byte	3
 5308 02fc 32       		.byte	50
 5309 02fd 33       		.byte	51
 5310 02fe 0000     		.space	2
 5311 0300 57000000 		.word	87
 5312 0304 96       		.byte	-106
 5313 0305 33       		.byte	51
 5314 0306 33       		.byte	51
 5315 0307 00       		.byte	0
 5316 0308 00       		.byte	0
 5317 0309 00       		.byte	0
 5318 030a 0000     		.space	2
 5319 030c 59000000 		.word	89
 5320 0310 E7       		.byte	-25
 5321 0311 1C       		.byte	28
 5322 0312 1C       		.byte	28
 5323 0313 00       		.byte	0
 5324 0314 00       		.byte	0
 5325 0315 00       		.byte	0
 5326 0316 0000     		.space	2
 5327 0318 5A000000 		.word	90
 5328 031c B7       		.byte	-73
 5329 031d 38       		.byte	56
 5330 031e 38       		.byte	56
 5331 031f 00       		.byte	0
 5332 0320 00       		.byte	0
 5333 0321 00       		.byte	0
 5334 0322 0000     		.space	2
 5335 0324 5B000000 		.word	91
 5336 0328 3F       		.byte	63
 5337 0329 2A       		.byte	42
 5338 032a 2A       		.byte	42
 5339 032b 00       		.byte	0
 5340 032c 00       		.byte	0
 5341 032d 00       		.byte	0
 5342 032e 0000     		.space	2
 5343 0330 5C000000 		.word	92
 5344 0334 36       		.byte	54
 5345 0335 21       		.byte	33
 5346 0336 21       		.byte	33
 5347 0337 00       		.byte	0
 5348 0338 00       		.byte	0
 5349 0339 00       		.byte	0
 5350 033a 0000     		.space	2
 5351 033c 5D000000 		.word	93
 5352 0340 2F       		.byte	47
 5353 0341 51       		.byte	81
 5354 0342 51       		.byte	81
 5355 0343 00       		.byte	0
 5356 0344 00       		.byte	0
 5357 0345 00       		.byte	0
 5358 0346 0000     		.space	2
 5359 0348 64000000 		.word	100
ARM GAS  C:\Users\luoha\AppData\Local\Temp\cctfed2n.s 			page 145


 5360 034c AF       		.byte	-81
 5361 034d 1A       		.byte	26
 5362 034e 22       		.byte	34
 5363 034f 00       		.byte	0
 5364 0350 00       		.byte	0
 5365 0351 00       		.byte	0
 5366 0352 0000     		.space	2
 5367 0354 65000000 		.word	101
 5368 0358 66       		.byte	102
 5369 0359 20       		.byte	32
 5370 035a 75       		.byte	117
 5371 035b 00       		.byte	0
 5372 035c 00       		.byte	0
 5373 035d 00       		.byte	0
 5374 035e 0000     		.space	2
 5375 0360 66000000 		.word	102
 5376 0364 9E       		.byte	-98
 5377 0365 20       		.byte	32
 5378 0366 75       		.byte	117
 5379 0367 00       		.byte	0
 5380 0368 00       		.byte	0
 5381 0369 00       		.byte	0
 5382 036a 0000     		.space	2
 5383 036c 67000000 		.word	103
 5384 0370 D0       		.byte	-48
 5385 0371 14       		.byte	20
 5386 0372 39       		.byte	57
 5387 0373 00       		.byte	0
 5388 0374 00       		.byte	0
 5389 0375 00       		.byte	0
 5390 0376 0000     		.space	2
 5391 0378 68000000 		.word	104
 5392 037c 38       		.byte	56
 5393 037d 20       		.byte	32
 5394 037e 74       		.byte	116
 5395 037f 00       		.byte	0
 5396 0380 00       		.byte	0
 5397 0381 00       		.byte	0
 5398 0382 0000     		.space	2
 5399 0384 69000000 		.word	105
 5400 0388 5D       		.byte	93
 5401 0389 3E       		.byte	62
 5402 038a 3F       		.byte	63
 5403 038b 00       		.byte	0
 5404 038c 00       		.byte	0
 5405 038d 00       		.byte	0
 5406 038e 0000     		.space	2
 5407 0390 6A000000 		.word	106
 5408 0394 8A       		.byte	-118
 5409 0395 2C       		.byte	44
 5410 0396 2C       		.byte	44
 5411 0397 00       		.byte	0
 5412 0398 00       		.byte	0
 5413 0399 00       		.byte	0
 5414 039a 0000     		.space	2
 5415 039c 6B000000 		.word	107
 5416 03a0 6C       		.byte	108
ARM GAS  C:\Users\luoha\AppData\Local\Temp\cctfed2n.s 			page 146


 5417 03a1 40       		.byte	64
 5418 03a2 40       		.byte	64
 5419 03a3 00       		.byte	0
 5420 03a4 00       		.byte	0
 5421 03a5 00       		.byte	0
 5422 03a6 0000     		.space	2
 5423 03a8 6C000000 		.word	108
 5424 03ac 20       		.byte	32
 5425 03ad 54       		.byte	84
 5426 03ae 54       		.byte	84
 5427 03af 00       		.byte	0
 5428 03b0 00       		.byte	0
 5429 03b1 00       		.byte	0
 5430 03b2 0000     		.space	2
 5431 03b4 6D000000 		.word	109
 5432 03b8 B9       		.byte	-71
 5433 03b9 09       		.byte	9
 5434 03ba 09       		.byte	9
 5435 03bb 00       		.byte	0
 5436 03bc 00       		.byte	0
 5437 03bd 00       		.byte	0
 5438 03be 0000     		.space	2
 5439 03c0 6E000000 		.word	110
 5440 03c4 54       		.byte	84
 5441 03c5 FE       		.byte	-2
 5442 03c6 FE       		.byte	-2
 5443 03c7 03       		.byte	3
 5444 03c8 01       		.byte	1
 5445 03c9 02       		.byte	2
 5446 03ca 0000     		.space	2
 5447 03cc 6F000000 		.word	111
 5448 03d0 22       		.byte	34
 5449 03d1 10       		.byte	16
 5450 03d2 10       		.byte	16
 5451 03d3 00       		.byte	0
 5452 03d4 00       		.byte	0
 5453 03d5 00       		.byte	0
 5454 03d6 0000     		.space	2
 5455 03d8 70000000 		.word	112
 5456 03dc AE       		.byte	-82
 5457 03dd 0C       		.byte	12
 5458 03de 0C       		.byte	12
 5459 03df 00       		.byte	0
 5460 03e0 00       		.byte	0
 5461 03e1 00       		.byte	0
 5462 03e2 0000     		.space	2
 5463 03e4 71000000 		.word	113
 5464 03e8 7C       		.byte	124
 5465 03e9 24       		.byte	36
 5466 03ea 24       		.byte	36
 5467 03eb 00       		.byte	0
 5468 03ec 00       		.byte	0
 5469 03ed 00       		.byte	0
 5470 03ee 0000     		.space	2
 5471 03f0 72000000 		.word	114
 5472 03f4 ED       		.byte	-19
 5473 03f5 2C       		.byte	44
ARM GAS  C:\Users\luoha\AppData\Local\Temp\cctfed2n.s 			page 147


 5474 03f6 2C       		.byte	44
 5475 03f7 00       		.byte	0
 5476 03f8 00       		.byte	0
 5477 03f9 00       		.byte	0
 5478 03fa 0000     		.space	2
 5479 03fc 73000000 		.word	115
 5480 0400 04       		.byte	4
 5481 0401 40       		.byte	64
 5482 0402 40       		.byte	64
 5483 0403 00       		.byte	0
 5484 0404 00       		.byte	0
 5485 0405 00       		.byte	0
 5486 0406 0000     		.space	2
 5487 0408 74000000 		.word	116
 5488 040c 4C       		.byte	76
 5489 040d 16       		.byte	22
 5490 040e 18       		.byte	24
 5491 040f 00       		.byte	0
 5492 0410 00       		.byte	0
 5493 0411 00       		.byte	0
 5494 0412 0000     		.space	2
 5495 0414 75000000 		.word	117
 5496 0418 80       		.byte	-128
 5497 0419 06       		.byte	6
 5498 041a 06       		.byte	6
 5499 041b 03       		.byte	3
 5500 041c 04       		.byte	4
 5501 041d 05       		.byte	5
 5502 041e 0000     		.space	2
 5503 0420 76000000 		.word	118
 5504 0424 38       		.byte	56
 5505 0425 0E       		.byte	14
 5506 0426 0E       		.byte	14
 5507 0427 00       		.byte	0
 5508 0428 00       		.byte	0
 5509 0429 00       		.byte	0
 5510 042a 0000     		.space	2
 5511 042c 77000000 		.word	119
 5512 0430 74       		.byte	116
 5513 0431 0C       		.byte	12
 5514 0432 0C       		.byte	12
 5515 0433 03       		.byte	3
 5516 0434 0A       		.byte	10
 5517 0435 0B       		.byte	11
 5518 0436 0000     		.space	2
 5519 0438 78000000 		.word	120
 5520 043c 86       		.byte	-122
 5521 043d 61       		.byte	97
 5522 043e 61       		.byte	97
 5523 043f 00       		.byte	0
 5524 0440 00       		.byte	0
 5525 0441 00       		.byte	0
 5526 0442 0000     		.space	2
 5527 0444 79000000 		.word	121
 5528 0448 ED       		.byte	-19
 5529 0449 02       		.byte	2
 5530 044a 02       		.byte	2
ARM GAS  C:\Users\luoha\AppData\Local\Temp\cctfed2n.s 			page 148


 5531 044b 03       		.byte	3
 5532 044c 00       		.byte	0
 5533 044d 01       		.byte	1
 5534 044e 0000     		.space	2
 5535 0450 7A000000 		.word	122
 5536 0454 CB       		.byte	-53
 5537 0455 02       		.byte	2
 5538 0456 02       		.byte	2
 5539 0457 03       		.byte	3
 5540 0458 00       		.byte	0
 5541 0459 01       		.byte	1
 5542 045a 0000     		.space	2
 5543 045c 7B000000 		.word	123
 5544 0460 FA       		.byte	-6
 5545 0461 71       		.byte	113
 5546 0462 71       		.byte	113
 5547 0463 03       		.byte	3
 5548 0464 00       		.byte	0
 5549 0465 01       		.byte	1
 5550 0466 0000     		.space	2
 5551 0468 7C000000 		.word	124
 5552 046c 57       		.byte	87
 5553 046d 23       		.byte	35
 5554 046e 25       		.byte	37
 5555 046f 00       		.byte	0
 5556 0470 00       		.byte	0
 5557 0471 00       		.byte	0
 5558 0472 0000     		.space	2
 5559 0474 7D000000 		.word	125
 5560 0478 CB       		.byte	-53
 5561 0479 06       		.byte	6
 5562 047a 06       		.byte	6
 5563 047b 00       		.byte	0
 5564 047c 00       		.byte	0
 5565 047d 00       		.byte	0
 5566 047e 0000     		.space	2
 5567 0480 7E000000 		.word	126
 5568 0484 DC       		.byte	-36
 5569 0485 4F       		.byte	79
 5570 0486 4F       		.byte	79
 5571 0487 00       		.byte	0
 5572 0488 00       		.byte	0
 5573 0489 00       		.byte	0
 5574 048a 0000     		.space	2
 5575 048c 7F000000 		.word	127
 5576 0490 19       		.byte	25
 5577 0491 23       		.byte	35
 5578 0492 23       		.byte	35
 5579 0493 00       		.byte	0
 5580 0494 00       		.byte	0
 5581 0495 00       		.byte	0
 5582 0496 0000     		.space	2
 5583 0498 80000000 		.word	128
 5584 049c E2       		.byte	-30
 5585 049d 23       		.byte	35
 5586 049e 23       		.byte	35
 5587 049f 00       		.byte	0
ARM GAS  C:\Users\luoha\AppData\Local\Temp\cctfed2n.s 			page 149


 5588 04a0 00       		.byte	0
 5589 04a1 00       		.byte	0
 5590 04a2 0000     		.space	2
 5591 04a4 81000000 		.word	129
 5592 04a8 2E       		.byte	46
 5593 04a9 16       		.byte	22
 5594 04aa 18       		.byte	24
 5595 04ab 00       		.byte	0
 5596 04ac 00       		.byte	0
 5597 04ad 00       		.byte	0
 5598 04ae 0000     		.space	2
 5599 04b0 82000000 		.word	130
 5600 04b4 1D       		.byte	29
 5601 04b5 0D       		.byte	13
 5602 04b6 0D       		.byte	13
 5603 04b7 00       		.byte	0
 5604 04b8 00       		.byte	0
 5605 04b9 00       		.byte	0
 5606 04ba 0000     		.space	2
 5607 04bc 83000000 		.word	131
 5608 04c0 DF       		.byte	-33
 5609 04c1 FF       		.byte	-1
 5610 04c2 FF       		.byte	-1
 5611 04c3 00       		.byte	0
 5612 04c4 00       		.byte	0
 5613 04c5 00       		.byte	0
 5614 04c6 0000     		.space	2
 5615 04c8 84000000 		.word	132
 5616 04cc 55       		.byte	85
 5617 04cd 0E       		.byte	14
 5618 04ce 26       		.byte	38
 5619 04cf 00       		.byte	0
 5620 04d0 00       		.byte	0
 5621 04d1 00       		.byte	0
 5622 04d2 0000     		.space	2
 5623 04d4 85000000 		.word	133
 5624 04d8 06       		.byte	6
 5625 04d9 12       		.byte	18
 5626 04da 12       		.byte	18
 5627 04db 00       		.byte	0
 5628 04dc 00       		.byte	0
 5629 04dd 00       		.byte	0
 5630 04de 0000     		.space	2
 5631 04e0 86000000 		.word	134
 5632 04e4 E5       		.byte	-27
 5633 04e5 2B       		.byte	43
 5634 04e6 2B       		.byte	43
 5635 04e7 00       		.byte	0
 5636 04e8 00       		.byte	0
 5637 04e9 00       		.byte	0
 5638 04ea 0000     		.space	2
 5639 04ec 87000000 		.word	135
 5640 04f0 CB       		.byte	-53
 5641 04f1 08       		.byte	8
 5642 04f2 08       		.byte	8
 5643 04f3 00       		.byte	0
 5644 04f4 00       		.byte	0
ARM GAS  C:\Users\luoha\AppData\Local\Temp\cctfed2n.s 			page 150


 5645 04f5 00       		.byte	0
 5646 04f6 0000     		.space	2
 5647 04f8 88000000 		.word	136
 5648 04fc 01       		.byte	1
 5649 04fd 16       		.byte	22
 5650 04fe 16       		.byte	22
 5651 04ff 00       		.byte	0
 5652 0500 00       		.byte	0
 5653 0501 00       		.byte	0
 5654 0502 0000     		.space	2
 5655 0504 89000000 		.word	137
 5656 0508 C3       		.byte	-61
 5657 0509 0E       		.byte	14
 5658 050a 0E       		.byte	14
 5659 050b 00       		.byte	0
 5660 050c 00       		.byte	0
 5661 050d 00       		.byte	0
 5662 050e 0000     		.space	2
 5663 0510 8A000000 		.word	138
 5664 0514 6D       		.byte	109
 5665 0515 24       		.byte	36
 5666 0516 78       		.byte	120
 5667 0517 00       		.byte	0
 5668 0518 00       		.byte	0
 5669 0519 00       		.byte	0
 5670 051a 0000     		.space	2
 5671 051c 8B000000 		.word	139
 5672 0520 A8       		.byte	-88
 5673 0521 2B       		.byte	43
 5674 0522 2B       		.byte	43
 5675 0523 03       		.byte	3
 5676 0524 29       		.byte	41
 5677 0525 2A       		.byte	42
 5678 0526 0000     		.space	2
 5679 0528 8C000000 		.word	140
 5680 052c B5       		.byte	-75
 5681 052d 29       		.byte	41
 5682 052e 29       		.byte	41
 5683 052f 00       		.byte	0
 5684 0530 00       		.byte	0
 5685 0531 00       		.byte	0
 5686 0532 0000     		.space	2
 5687 0534 8D000000 		.word	141
 5688 0538 2F       		.byte	47
 5689 0539 20       		.byte	32
 5690 053a 20       		.byte	32
 5691 053b 00       		.byte	0
 5692 053c 00       		.byte	0
 5693 053d 00       		.byte	0
 5694 053e 0000     		.space	2
 5695 0540 8E000000 		.word	142
 5696 0544 48       		.byte	72
 5697 0545 F3       		.byte	-13
 5698 0546 F3       		.byte	-13
 5699 0547 00       		.byte	0
 5700 0548 00       		.byte	0
 5701 0549 00       		.byte	0
ARM GAS  C:\Users\luoha\AppData\Local\Temp\cctfed2n.s 			page 151


 5702 054a 0000     		.space	2
 5703 054c 8F000000 		.word	143
 5704 0550 83       		.byte	-125
 5705 0551 0E       		.byte	14
 5706 0552 0E       		.byte	14
 5707 0553 00       		.byte	0
 5708 0554 00       		.byte	0
 5709 0555 00       		.byte	0
 5710 0556 0000     		.space	2
 5711 0558 90000000 		.word	144
 5712 055c 7F       		.byte	127
 5713 055d 5D       		.byte	93
 5714 055e 5D       		.byte	93
 5715 055f 00       		.byte	0
 5716 0560 00       		.byte	0
 5717 0561 00       		.byte	0
 5718 0562 0000     		.space	2
 5719 0564 92000000 		.word	146
 5720 0568 67       		.byte	103
 5721 0569 64       		.byte	100
 5722 056a 64       		.byte	100
 5723 056b 00       		.byte	0
 5724 056c 00       		.byte	0
 5725 056d 00       		.byte	0
 5726 056e 0000     		.space	2
 5727 0570 93000000 		.word	147
 5728 0574 9A       		.byte	-102
 5729 0575 24       		.byte	36
 5730 0576 29       		.byte	41
 5731 0577 00       		.byte	0
 5732 0578 00       		.byte	0
 5733 0579 00       		.byte	0
 5734 057a 0000     		.space	2
 5735 057c 94000000 		.word	148
 5736 0580 B2       		.byte	-78
 5737 0581 3C       		.byte	60
 5738 0582 4E       		.byte	78
 5739 0583 00       		.byte	0
 5740 0584 00       		.byte	0
 5741 0585 00       		.byte	0
 5742 0586 0000     		.space	2
 5743 0588 95000000 		.word	149
 5744 058c C8       		.byte	-56
 5745 058d 1E       		.byte	30
 5746 058e 3C       		.byte	60
 5747 058f 00       		.byte	0
 5748 0590 00       		.byte	0
 5749 0591 00       		.byte	0
 5750 0592 0000     		.space	2
 5751 0594 A2000000 		.word	162
 5752 0598 BD       		.byte	-67
 5753 0599 08       		.byte	8
 5754 059a 09       		.byte	9
 5755 059b 00       		.byte	0
 5756 059c 00       		.byte	0
 5757 059d 00       		.byte	0
 5758 059e 0000     		.space	2
ARM GAS  C:\Users\luoha\AppData\Local\Temp\cctfed2n.s 			page 152


 5759 05a0 E6000000 		.word	230
 5760 05a4 A3       		.byte	-93
 5761 05a5 2A       		.byte	42
 5762 05a6 2A       		.byte	42
 5763 05a7 00       		.byte	0
 5764 05a8 00       		.byte	0
 5765 05a9 00       		.byte	0
 5766 05aa 0000     		.space	2
 5767 05ac E7000000 		.word	231
 5768 05b0 69       		.byte	105
 5769 05b1 28       		.byte	40
 5770 05b2 28       		.byte	40
 5771 05b3 00       		.byte	0
 5772 05b4 00       		.byte	0
 5773 05b5 00       		.byte	0
 5774 05b6 0000     		.space	2
 5775 05b8 E8000000 		.word	232
 5776 05bc 97       		.byte	-105
 5777 05bd 3F       		.byte	63
 5778 05be 41       		.byte	65
 5779 05bf 00       		.byte	0
 5780 05c0 00       		.byte	0
 5781 05c1 00       		.byte	0
 5782 05c2 0000     		.space	2
 5783 05c4 E9000000 		.word	233
 5784 05c8 23       		.byte	35
 5785 05c9 B6       		.byte	-74
 5786 05ca B6       		.byte	-74
 5787 05cb 00       		.byte	0
 5788 05cc 00       		.byte	0
 5789 05cd 00       		.byte	0
 5790 05ce 0000     		.space	2
 5791 05d0 EA000000 		.word	234
 5792 05d4 96       		.byte	-106
 5793 05d5 28       		.byte	40
 5794 05d6 28       		.byte	40
 5795 05d7 00       		.byte	0
 5796 05d8 00       		.byte	0
 5797 05d9 00       		.byte	0
 5798 05da 0000     		.space	2
 5799 05dc EB000000 		.word	235
 5800 05e0 B3       		.byte	-77
 5801 05e1 2A       		.byte	42
 5802 05e2 2A       		.byte	42
 5803 05e3 00       		.byte	0
 5804 05e4 00       		.byte	0
 5805 05e5 00       		.byte	0
 5806 05e6 0000     		.space	2
 5807 05e8 F1000000 		.word	241
 5808 05ec 5A       		.byte	90
 5809 05ed 20       		.byte	32
 5810 05ee 20       		.byte	32
 5811 05ef 00       		.byte	0
 5812 05f0 00       		.byte	0
 5813 05f1 00       		.byte	0
 5814 05f2 0000     		.space	2
 5815 05f4 F2000000 		.word	242
ARM GAS  C:\Users\luoha\AppData\Local\Temp\cctfed2n.s 			page 153


 5816 05f8 68       		.byte	104
 5817 05f9 34       		.byte	52
 5818 05fa 3C       		.byte	60
 5819 05fb 00       		.byte	0
 5820 05fc 00       		.byte	0
 5821 05fd 00       		.byte	0
 5822 05fe 0000     		.space	2
 5823 0600 F3000000 		.word	243
 5824 0604 55       		.byte	85
 5825 0605 35       		.byte	53
 5826 0606 3D       		.byte	61
 5827 0607 01       		.byte	1
 5828 0608 34       		.byte	52
 5829 0609 00       		.byte	0
 5830 060a 0000     		.space	2
 5831 060c F4000000 		.word	244
 5832 0610 5F       		.byte	95
 5833 0611 06       		.byte	6
 5834 0612 06       		.byte	6
 5835 0613 00       		.byte	0
 5836 0614 00       		.byte	0
 5837 0615 00       		.byte	0
 5838 0616 0000     		.space	2
 5839 0618 F5000000 		.word	245
 5840 061c 82       		.byte	-126
 5841 061d 02       		.byte	2
 5842 061e 02       		.byte	2
 5843 061f 00       		.byte	0
 5844 0620 00       		.byte	0
 5845 0621 00       		.byte	0
 5846 0622 0000     		.space	2
 5847 0624 F6000000 		.word	246
 5848 0628 B8       		.byte	-72
 5849 0629 26       		.byte	38
 5850 062a 26       		.byte	38
 5851 062b 00       		.byte	0
 5852 062c 00       		.byte	0
 5853 062d 00       		.byte	0
 5854 062e 0000     		.space	2
 5855 0630 F7000000 		.word	247
 5856 0634 51       		.byte	81
 5857 0635 13       		.byte	19
 5858 0636 13       		.byte	19
 5859 0637 00       		.byte	0
 5860 0638 00       		.byte	0
 5861 0639 00       		.byte	0
 5862 063a 0000     		.space	2
 5863 063c F8000000 		.word	248
 5864 0640 08       		.byte	8
 5865 0641 FE       		.byte	-2
 5866 0642 FE       		.byte	-2
 5867 0643 03       		.byte	3
 5868 0644 03       		.byte	3
 5869 0645 04       		.byte	4
 5870 0646 0000     		.space	2
 5871 0648 F9000000 		.word	249
 5872 064c CC       		.byte	-52
ARM GAS  C:\Users\luoha\AppData\Local\Temp\cctfed2n.s 			page 154


 5873 064d 24       		.byte	36
 5874 064e 24       		.byte	36
 5875 064f 00       		.byte	0
 5876 0650 00       		.byte	0
 5877 0651 00       		.byte	0
 5878 0652 0000     		.space	2
 5879 0654 FA000000 		.word	250
 5880 0658 31       		.byte	49
 5881 0659 1E       		.byte	30
 5882 065a 1E       		.byte	30
 5883 065b 00       		.byte	0
 5884 065c 00       		.byte	0
 5885 065d 00       		.byte	0
 5886 065e 0000     		.space	2
 5887 0660 FB000000 		.word	251
 5888 0664 AA       		.byte	-86
 5889 0665 12       		.byte	18
 5890 0666 12       		.byte	18
 5891 0667 00       		.byte	0
 5892 0668 00       		.byte	0
 5893 0669 00       		.byte	0
 5894 066a 0000     		.space	2
 5895 066c FC000000 		.word	252
 5896 0670 2C       		.byte	44
 5897 0671 12       		.byte	18
 5898 0672 12       		.byte	18
 5899 0673 00       		.byte	0
 5900 0674 00       		.byte	0
 5901 0675 00       		.byte	0
 5902 0676 0000     		.space	2
 5903 0678 FD000000 		.word	253
 5904 067c 53       		.byte	83
 5905 067d 33       		.byte	51
 5906 067e 36       		.byte	54
 5907 067f 00       		.byte	0
 5908 0680 00       		.byte	0
 5909 0681 00       		.byte	0
 5910 0682 0000     		.space	2
 5911 0684 FE000000 		.word	254
 5912 0688 2E       		.byte	46
 5913 0689 09       		.byte	9
 5914 068a 09       		.byte	9
 5915 068b 00       		.byte	0
 5916 068c 00       		.byte	0
 5917 068d 00       		.byte	0
 5918 068e 0000     		.space	2
 5919 0690 00010000 		.word	256
 5920 0694 47       		.byte	71
 5921 0695 2A       		.byte	42
 5922 0696 2A       		.byte	42
 5923 0697 03       		.byte	3
 5924 0698 08       		.byte	8
 5925 0699 09       		.byte	9
 5926 069a 0000     		.space	2
 5927 069c 01010000 		.word	257
 5928 06a0 83       		.byte	-125
 5929 06a1 09       		.byte	9
ARM GAS  C:\Users\luoha\AppData\Local\Temp\cctfed2n.s 			page 155


 5930 06a2 09       		.byte	9
 5931 06a3 00       		.byte	0
 5932 06a4 00       		.byte	0
 5933 06a5 00       		.byte	0
 5934 06a6 0000     		.space	2
 5935 06a8 02010000 		.word	258
 5936 06ac BB       		.byte	-69
 5937 06ad 20       		.byte	32
 5938 06ae E8       		.byte	-24
 5939 06af 03       		.byte	3
 5940 06b0 00       		.byte	0
 5941 06b1 01       		.byte	1
 5942 06b2 0000     		.space	2
 5943 06b4 03010000 		.word	259
 5944 06b8 5C       		.byte	92
 5945 06b9 EB       		.byte	-21
 5946 06ba EB       		.byte	-21
 5947 06bb 00       		.byte	0
 5948 06bc 00       		.byte	0
 5949 06bd 00       		.byte	0
 5950 06be 0000     		.space	2
 5951 06c0 04010000 		.word	260
 5952 06c4 92       		.byte	-110
 5953 06c5 05       		.byte	5
 5954 06c6 0D       		.byte	13
 5955 06c7 00       		.byte	0
 5956 06c8 00       		.byte	0
 5957 06c9 00       		.byte	0
 5958 06ca 0000     		.space	2
 5959 06cc 05010000 		.word	261
 5960 06d0 B3       		.byte	-77
 5961 06d1 1B       		.byte	27
 5962 06d2 1B       		.byte	27
 5963 06d3 00       		.byte	0
 5964 06d4 00       		.byte	0
 5965 06d5 00       		.byte	0
 5966 06d6 0000     		.space	2
 5967 06d8 06010000 		.word	262
 5968 06dc 0C       		.byte	12
 5969 06dd 12       		.byte	18
 5970 06de 12       		.byte	18
 5971 06df 00       		.byte	0
 5972 06e0 00       		.byte	0
 5973 06e1 00       		.byte	0
 5974 06e2 0000     		.space	2
 5975 06e4 07010000 		.word	263
 5976 06e8 85       		.byte	-123
 5977 06e9 FF       		.byte	-1
 5978 06ea FF       		.byte	-1
 5979 06eb 00       		.byte	0
 5980 06ec 00       		.byte	0
 5981 06ed 00       		.byte	0
 5982 06ee 0000     		.space	2
 5983 06f0 08010000 		.word	264
 5984 06f4 31       		.byte	49
 5985 06f5 1C       		.byte	28
 5986 06f6 1C       		.byte	28
ARM GAS  C:\Users\luoha\AppData\Local\Temp\cctfed2n.s 			page 156


 5987 06f7 00       		.byte	0
 5988 06f8 00       		.byte	0
 5989 06f9 00       		.byte	0
 5990 06fa 0000     		.space	2
 5991 06fc 09010000 		.word	265
 5992 0700 1A       		.byte	26
 5993 0701 10       		.byte	16
 5994 0702 14       		.byte	20
 5995 0703 00       		.byte	0
 5996 0704 00       		.byte	0
 5997 0705 00       		.byte	0
 5998 0706 0000     		.space	2
 5999 0708 0A010000 		.word	266
 6000 070c C1       		.byte	-63
 6001 070d FF       		.byte	-1
 6002 070e FF       		.byte	-1
 6003 070f 03       		.byte	3
 6004 0710 02       		.byte	2
 6005 0711 03       		.byte	3
 6006 0712 0000     		.space	2
 6007 0714 0B010000 		.word	267
 6008 0718 23       		.byte	35
 6009 0719 FF       		.byte	-1
 6010 071a FF       		.byte	-1
 6011 071b 03       		.byte	3
 6012 071c 02       		.byte	2
 6013 071d 03       		.byte	3
 6014 071e 0000     		.space	2
 6015 0720 0C010000 		.word	268
 6016 0724 0E       		.byte	14
 6017 0725 04       		.byte	4
 6018 0726 04       		.byte	4
 6019 0727 03       		.byte	3
 6020 0728 02       		.byte	2
 6021 0729 03       		.byte	3
 6022 072a 0000     		.space	2
 6023 072c 0D010000 		.word	269
 6024 0730 6D       		.byte	109
 6025 0731 D5       		.byte	-43
 6026 0732 D5       		.byte	-43
 6027 0733 00       		.byte	0
 6028 0734 00       		.byte	0
 6029 0735 00       		.byte	0
 6030 0736 0000     		.space	2
 6031 0738 0E010000 		.word	270
 6032 073c 3B       		.byte	59
 6033 073d 13       		.byte	19
 6034 073e 13       		.byte	19
 6035 073f 00       		.byte	0
 6036 0740 00       		.byte	0
 6037 0741 00       		.byte	0
 6038 0742 0000     		.space	2
 6039 0744 18010000 		.word	280
 6040 0748 80       		.byte	-128
 6041 0749 21       		.byte	33
 6042 074a 21       		.byte	33
 6043 074b 00       		.byte	0
ARM GAS  C:\Users\luoha\AppData\Local\Temp\cctfed2n.s 			page 157


 6044 074c 00       		.byte	0
 6045 074d 00       		.byte	0
 6046 074e 0000     		.space	2
 6047 0750 19010000 		.word	281
 6048 0754 FC       		.byte	-4
 6049 0755 08       		.byte	8
 6050 0756 08       		.byte	8
 6051 0757 00       		.byte	0
 6052 0758 00       		.byte	0
 6053 0759 00       		.byte	0
 6054 075a 0000     		.space	2
 6055 075c 1A010000 		.word	282
 6056 0760 FC       		.byte	-4
 6057 0761 22       		.byte	34
 6058 0762 22       		.byte	34
 6059 0763 03       		.byte	3
 6060 0764 20       		.byte	32
 6061 0765 21       		.byte	33
 6062 0766 0000     		.space	2
 6063 0768 1B010000 		.word	283
 6064 076c F7       		.byte	-9
 6065 076d 62       		.byte	98
 6066 076e 62       		.byte	98
 6067 076f 00       		.byte	0
 6068 0770 00       		.byte	0
 6069 0771 00       		.byte	0
 6070 0772 0000     		.space	2
 6071 0774 1C010000 		.word	284
 6072 0778 63       		.byte	99
 6073 0779 20       		.byte	32
 6074 077a 20       		.byte	32
 6075 077b 03       		.byte	3
 6076 077c 1E       		.byte	30
 6077 077d 1F       		.byte	31
 6078 077e 0000     		.space	2
 6079 0780 1D010000 		.word	285
 6080 0784 52       		.byte	82
 6081 0785 26       		.byte	38
 6082 0786 26       		.byte	38
 6083 0787 00       		.byte	0
 6084 0788 00       		.byte	0
 6085 0789 00       		.byte	0
 6086 078a 0000     		.space	2
 6087 078c 1E010000 		.word	286
 6088 0790 3E       		.byte	62
 6089 0791 32       		.byte	50
 6090 0792 32       		.byte	50
 6091 0793 03       		.byte	3
 6092 0794 30       		.byte	48
 6093 0795 31       		.byte	49
 6094 0796 0000     		.space	2
 6095 0798 2B010000 		.word	299
 6096 079c 13       		.byte	19
 6097 079d 60       		.byte	96
 6098 079e 60       		.byte	96
 6099 079f 00       		.byte	0
 6100 07a0 00       		.byte	0
ARM GAS  C:\Users\luoha\AppData\Local\Temp\cctfed2n.s 			page 158


 6101 07a1 00       		.byte	0
 6102 07a2 0000     		.space	2
 6103 07a4 2C010000 		.word	300
 6104 07a8 D9       		.byte	-39
 6105 07a9 16       		.byte	22
 6106 07aa 16       		.byte	22
 6107 07ab 00       		.byte	0
 6108 07ac 00       		.byte	0
 6109 07ad 00       		.byte	0
 6110 07ae 0000     		.space	2
 6111 07b0 2D010000 		.word	301
 6112 07b4 F3       		.byte	-13
 6113 07b5 3A       		.byte	58
 6114 07b6 3A       		.byte	58
 6115 07b7 00       		.byte	0
 6116 07b8 00       		.byte	0
 6117 07b9 00       		.byte	0
 6118 07ba 0000     		.space	2
 6119 07bc 36010000 		.word	310
 6120 07c0 1C       		.byte	28
 6121 07c1 11       		.byte	17
 6122 07c2 11       		.byte	17
 6123 07c3 00       		.byte	0
 6124 07c4 00       		.byte	0
 6125 07c5 00       		.byte	0
 6126 07c6 0000     		.space	2
 6127 07c8 37010000 		.word	311
 6128 07cc 5F       		.byte	95
 6129 07cd 74       		.byte	116
 6130 07ce 74       		.byte	116
 6131 07cf 00       		.byte	0
 6132 07d0 00       		.byte	0
 6133 07d1 00       		.byte	0
 6134 07d2 0000     		.space	2
 6135 07d4 40010000 		.word	320
 6136 07d8 F3       		.byte	-13
 6137 07d9 14       		.byte	20
 6138 07da 14       		.byte	20
 6139 07db 03       		.byte	3
 6140 07dc 02       		.byte	2
 6141 07dd 03       		.byte	3
 6142 07de 0000     		.space	2
 6143 07e0 41010000 		.word	321
 6144 07e4 58       		.byte	88
 6145 07e5 02       		.byte	2
 6146 07e6 02       		.byte	2
 6147 07e7 03       		.byte	3
 6148 07e8 00       		.byte	0
 6149 07e9 01       		.byte	1
 6150 07ea 0000     		.space	2
 6151 07ec 42010000 		.word	322
 6152 07f0 F3       		.byte	-13
 6153 07f1 95       		.byte	-107
 6154 07f2 95       		.byte	-107
 6155 07f3 00       		.byte	0
 6156 07f4 00       		.byte	0
 6157 07f5 00       		.byte	0
ARM GAS  C:\Users\luoha\AppData\Local\Temp\cctfed2n.s 			page 159


 6158 07f6 0000     		.space	2
 6159 07f8 43010000 		.word	323
 6160 07fc 4E       		.byte	78
 6161 07fd 93       		.byte	-109
 6162 07fe 93       		.byte	-109
 6163 07ff 03       		.byte	3
 6164 0800 00       		.byte	0
 6165 0801 01       		.byte	1
 6166 0802 0000     		.space	2
 6167 0804 44010000 		.word	324
 6168 0808 84       		.byte	-124
 6169 0809 92       		.byte	-110
 6170 080a 92       		.byte	-110
 6171 080b 00       		.byte	0
 6172 080c 00       		.byte	0
 6173 080d 00       		.byte	0
 6174 080e 0000     		.space	2
 6175 0810 4A010000 		.word	330
 6176 0814 17       		.byte	23
 6177 0815 9E       		.byte	-98
 6178 0816 A7       		.byte	-89
 6179 0817 00       		.byte	0
 6180 0818 00       		.byte	0
 6181 0819 00       		.byte	0
 6182 081a 0000     		.space	2
 6183 081c 4B010000 		.word	331
 6184 0820 5B       		.byte	91
 6185 0821 E6       		.byte	-26
 6186 0822 E8       		.byte	-24
 6187 0823 00       		.byte	0
 6188 0824 00       		.byte	0
 6189 0825 00       		.byte	0
 6190 0826 0000     		.space	2
 6191 0828 4C010000 		.word	332
 6192 082c EC       		.byte	-20
 6193 082d EF       		.byte	-17
 6194 082e EF       		.byte	-17
 6195 082f 00       		.byte	0
 6196 0830 00       		.byte	0
 6197 0831 00       		.byte	0
 6198 0832 0000     		.space	2
 6199 0834 4D010000 		.word	333
 6200 0838 E7       		.byte	-25
 6201 0839 6D       		.byte	109
 6202 083a 6D       		.byte	109
 6203 083b 00       		.byte	0
 6204 083c 00       		.byte	0
 6205 083d 00       		.byte	0
 6206 083e 0000     		.space	2
 6207 0840 4E010000 		.word	334
 6208 0844 87       		.byte	-121
 6209 0845 0E       		.byte	14
 6210 0846 0E       		.byte	14
 6211 0847 00       		.byte	0
 6212 0848 00       		.byte	0
 6213 0849 00       		.byte	0
 6214 084a 0000     		.space	2
ARM GAS  C:\Users\luoha\AppData\Local\Temp\cctfed2n.s 			page 160


 6215 084c 4F010000 		.word	335
 6216 0850 E1       		.byte	-31
 6217 0851 18       		.byte	24
 6218 0852 18       		.byte	24
 6219 0853 00       		.byte	0
 6220 0854 00       		.byte	0
 6221 0855 00       		.byte	0
 6222 0856 0000     		.space	2
 6223 0858 54010000 		.word	340
 6224 085c 63       		.byte	99
 6225 085d 46       		.byte	70
 6226 085e 46       		.byte	70
 6227 085f 00       		.byte	0
 6228 0860 00       		.byte	0
 6229 0861 00       		.byte	0
 6230 0862 0000     		.space	2
 6231 0864 5E010000 		.word	350
 6232 0868 E8       		.byte	-24
 6233 0869 14       		.byte	20
 6234 086a FC       		.byte	-4
 6235 086b 00       		.byte	0
 6236 086c 00       		.byte	0
 6237 086d 00       		.byte	0
 6238 086e 0000     		.space	2
 6239 0870 68010000 		.word	360
 6240 0874 0B       		.byte	11
 6241 0875 19       		.byte	25
 6242 0876 19       		.byte	25
 6243 0877 00       		.byte	0
 6244 0878 00       		.byte	0
 6245 0879 00       		.byte	0
 6246 087a 0000     		.space	2
 6247 087c 72010000 		.word	370
 6248 0880 62       		.byte	98
 6249 0881 49       		.byte	73
 6250 0882 49       		.byte	73
 6251 0883 00       		.byte	0
 6252 0884 00       		.byte	0
 6253 0885 00       		.byte	0
 6254 0886 0000     		.space	2
 6255 0888 73010000 		.word	371
 6256 088c A1       		.byte	-95
 6257 088d 32       		.byte	50
 6258 088e 32       		.byte	50
 6259 088f 00       		.byte	0
 6260 0890 00       		.byte	0
 6261 0891 00       		.byte	0
 6262 0892 0000     		.space	2
 6263 0894 77010000 		.word	375
 6264 0898 FB       		.byte	-5
 6265 0899 8C       		.byte	-116
 6266 089a 8C       		.byte	-116
 6267 089b 00       		.byte	0
 6268 089c 00       		.byte	0
 6269 089d 00       		.byte	0
 6270 089e 0000     		.space	2
 6271 08a0 7C010000 		.word	380
ARM GAS  C:\Users\luoha\AppData\Local\Temp\cctfed2n.s 			page 161


 6272 08a4 E8       		.byte	-24
 6273 08a5 14       		.byte	20
 6274 08a6 14       		.byte	20
 6275 08a7 00       		.byte	0
 6276 08a8 00       		.byte	0
 6277 08a9 00       		.byte	0
 6278 08aa 0000     		.space	2
 6279 08ac 81010000 		.word	385
 6280 08b0 93       		.byte	-109
 6281 08b1 85       		.byte	-123
 6282 08b2 85       		.byte	-123
 6283 08b3 03       		.byte	3
 6284 08b4 02       		.byte	2
 6285 08b5 03       		.byte	3
 6286 08b6 0000     		.space	2
 6287 08b8 86010000 		.word	390
 6288 08bc 9C       		.byte	-100
 6289 08bd EE       		.byte	-18
 6290 08be EE       		.byte	-18
 6291 08bf 00       		.byte	0
 6292 08c0 00       		.byte	0
 6293 08c1 00       		.byte	0
 6294 08c2 0000     		.space	2
 6295 08c4 8B010000 		.word	395
 6296 08c8 E7       		.byte	-25
 6297 08c9 DE       		.byte	-34
 6298 08ca DE       		.byte	-34
 6299 08cb 00       		.byte	0
 6300 08cc 00       		.byte	0
 6301 08cd 00       		.byte	0
 6302 08ce 0000     		.space	2
 6303 08d0 90010000 		.word	400
 6304 08d4 6E       		.byte	110
 6305 08d5 FE       		.byte	-2
 6306 08d6 FE       		.byte	-2
 6307 08d7 03       		.byte	3
 6308 08d8 04       		.byte	4
 6309 08d9 05       		.byte	5
 6310 08da 0000     		.space	2
 6311 08dc 91010000 		.word	401
 6312 08e0 B7       		.byte	-73
 6313 08e1 06       		.byte	6
 6314 08e2 06       		.byte	6
 6315 08e3 03       		.byte	3
 6316 08e4 04       		.byte	4
 6317 08e5 05       		.byte	5
 6318 08e6 0000     		.space	2
 6319 08e8 28230000 		.word	9000
 6320 08ec 71       		.byte	113
 6321 08ed 89       		.byte	-119
 6322 08ee 89       		.byte	-119
 6323 08ef 00       		.byte	0
 6324 08f0 00       		.byte	0
 6325 08f1 00       		.byte	0
 6326 08f2 0000     		.space	2
 6327 08f4 64320000 		.word	12900
 6328 08f8 C5       		.byte	-59
ARM GAS  C:\Users\luoha\AppData\Local\Temp\cctfed2n.s 			page 162


 6329 08f9 16       		.byte	22
 6330 08fa 16       		.byte	22
 6331 08fb 00       		.byte	0
 6332 08fc 00       		.byte	0
 6333 08fd 00       		.byte	0
 6334 08fe 0000     		.space	2
 6335 0900 65320000 		.word	12901
 6336 0904 10       		.byte	16
 6337 0905 25       		.byte	37
 6338 0906 25       		.byte	37
 6339 0907 00       		.byte	0
 6340 0908 00       		.byte	0
 6341 0909 00       		.byte	0
 6342 090a 0000     		.space	2
 6343 090c 66320000 		.word	12902
 6344 0910 B5       		.byte	-75
 6345 0911 1F       		.byte	31
 6346 0912 1F       		.byte	31
 6347 0913 00       		.byte	0
 6348 0914 00       		.byte	0
 6349 0915 00       		.byte	0
 6350 0916 0000     		.space	2
 6351 0918 67320000 		.word	12903
 6352 091c 95       		.byte	-107
 6353 091d 18       		.byte	24
 6354 091e 18       		.byte	24
 6355 091f 00       		.byte	0
 6356 0920 00       		.byte	0
 6357 0921 00       		.byte	0
 6358 0922 0000     		.space	2
 6359 0924 68320000 		.word	12904
 6360 0928 EE       		.byte	-18
 6361 0929 15       		.byte	21
 6362 092a 15       		.byte	21
 6363 092b 00       		.byte	0
 6364 092c 00       		.byte	0
 6365 092d 00       		.byte	0
 6366 092e 0000     		.space	2
 6367 0930 69320000 		.word	12905
 6368 0934 38       		.byte	56
 6369 0935 15       		.byte	21
 6370 0936 15       		.byte	21
 6371 0937 00       		.byte	0
 6372 0938 00       		.byte	0
 6373 0939 00       		.byte	0
 6374 093a 0000     		.space	2
 6375 093c 73320000 		.word	12915
 6376 0940 43       		.byte	67
 6377 0941 FC       		.byte	-4
 6378 0942 FC       		.byte	-4
 6379 0943 00       		.byte	0
 6380 0944 00       		.byte	0
 6381 0945 00       		.byte	0
 6382 0946 0000     		.space	2
 6383              		.section	.rodata.mavlink_sha256_constant_256,"a"
 6384              		.align	2
 6385              		.set	.LANCHOR5,. + 0
ARM GAS  C:\Users\luoha\AppData\Local\Temp\cctfed2n.s 			page 163


 6388              	mavlink_sha256_constant_256:
 6389 0000 982F8A42 		.word	1116352408
 6390 0004 91443771 		.word	1899447441
 6391 0008 CFFBC0B5 		.word	-1245643825
 6392 000c A5DBB5E9 		.word	-373957723
 6393 0010 5BC25639 		.word	961987163
 6394 0014 F111F159 		.word	1508970993
 6395 0018 A4823F92 		.word	-1841331548
 6396 001c D55E1CAB 		.word	-1424204075
 6397 0020 98AA07D8 		.word	-670586216
 6398 0024 015B8312 		.word	310598401
 6399 0028 BE853124 		.word	607225278
 6400 002c C37D0C55 		.word	1426881987
 6401 0030 745DBE72 		.word	1925078388
 6402 0034 FEB1DE80 		.word	-2132889090
 6403 0038 A706DC9B 		.word	-1680079193
 6404 003c 74F19BC1 		.word	-1046744716
 6405 0040 C1699BE4 		.word	-459576895
 6406 0044 8647BEEF 		.word	-272742522
 6407 0048 C69DC10F 		.word	264347078
 6408 004c CCA10C24 		.word	604807628
 6409 0050 6F2CE92D 		.word	770255983
 6410 0054 AA84744A 		.word	1249150122
 6411 0058 DCA9B05C 		.word	1555081692
 6412 005c DA88F976 		.word	1996064986
 6413 0060 52513E98 		.word	-1740746414
 6414 0064 6DC631A8 		.word	-1473132947
 6415 0068 C82703B0 		.word	-1341970488
 6416 006c C77F59BF 		.word	-1084653625
 6417 0070 F30BE0C6 		.word	-958395405
 6418 0074 4791A7D5 		.word	-710438585
 6419 0078 5163CA06 		.word	113926993
 6420 007c 67292914 		.word	338241895
 6421 0080 850AB727 		.word	666307205
 6422 0084 38211B2E 		.word	773529912
 6423 0088 FC6D2C4D 		.word	1294757372
 6424 008c 130D3853 		.word	1396182291
 6425 0090 54730A65 		.word	1695183700
 6426 0094 BB0A6A76 		.word	1986661051
 6427 0098 2EC9C281 		.word	-2117940946
 6428 009c 852C7292 		.word	-1838011259
 6429 00a0 A1E8BFA2 		.word	-1564481375
 6430 00a4 4B661AA8 		.word	-1474664885
 6431 00a8 708B4BC2 		.word	-1035236496
 6432 00ac A3516CC7 		.word	-949202525
 6433 00b0 19E892D1 		.word	-778901479
 6434 00b4 240699D6 		.word	-694614492
 6435 00b8 85350EF4 		.word	-200395387
 6436 00bc 70A06A10 		.word	275423344
 6437 00c0 16C1A419 		.word	430227734
 6438 00c4 086C371E 		.word	506948616
 6439 00c8 4C774827 		.word	659060556
 6440 00cc B5BCB034 		.word	883997877
 6441 00d0 B30C1C39 		.word	958139571
 6442 00d4 4AAAD84E 		.word	1322822218
 6443 00d8 4FCA9C5B 		.word	1537002063
 6444 00dc F36F2E68 		.word	1747873779
ARM GAS  C:\Users\luoha\AppData\Local\Temp\cctfed2n.s 			page 164


 6445 00e0 EE828F74 		.word	1955562222
 6446 00e4 6F63A578 		.word	2024104815
 6447 00e8 1478C884 		.word	-2067236844
 6448 00ec 0802C78C 		.word	-1933114872
 6449 00f0 FAFFBE90 		.word	-1866530822
 6450 00f4 EB6C50A4 		.word	-1538233109
 6451 00f8 F7A3F9BE 		.word	-1090935817
 6452 00fc F27871C6 		.word	-965641998
 6453              		.text
 6454              	.Letext0:
 6455              		.file 5 "e:\\gnu tools arm embedded\\9 2019-q4-major\\arm-none-eabi\\include\\machine\\_default_ty
 6456              		.file 6 "e:\\gnu tools arm embedded\\9 2019-q4-major\\arm-none-eabi\\include\\sys\\_stdint.h"
 6457              		.file 7 "Drivers/CMSIS/Include/core_cm4.h"
 6458              		.file 8 "Drivers/CMSIS/Device/ST/STM32F4xx/Include/system_stm32f4xx.h"
 6459              		.file 9 "Drivers/CMSIS/Device/ST/STM32F4xx/Include/stm32f407xx.h"
 6460              		.file 10 "e:\\gnu tools arm embedded\\9 2019-q4-major\\lib\\gcc\\arm-none-eabi\\9.2.1\\include\\st
 6461              		.file 11 "Drivers/CMSIS/Device/ST/STM32F4xx/Include/stm32f4xx.h"
 6462              		.file 12 "Drivers/STM32F4xx_HAL_Driver/Inc/stm32f4xx_hal_def.h"
 6463              		.file 13 "Drivers/STM32F4xx_HAL_Driver/Inc/stm32f4xx_hal_dma.h"
 6464              		.file 14 "Drivers/STM32F4xx_HAL_Driver/Inc/stm32f4xx_hal_uart.h"
 6465              		.file 15 "Drivers/STM32F4xx_HAL_Driver/Inc/stm32f4xx_hal.h"
 6466              		.file 16 "e:\\gnu tools arm embedded\\9 2019-q4-major\\arm-none-eabi\\include\\sys\\lock.h"
 6467              		.file 17 "e:\\gnu tools arm embedded\\9 2019-q4-major\\arm-none-eabi\\include\\sys\\_types.h"
 6468              		.file 18 "e:\\gnu tools arm embedded\\9 2019-q4-major\\arm-none-eabi\\include\\sys\\reent.h"
 6469              		.file 19 "Modules/include/utils.h"
 6470              		.file 20 "Inc/usart.h"
 6471              		.file 21 "Modules/include/MAVLink/common/../mavlink_types.h"
 6472              		.file 22 "e:\\gnu tools arm embedded\\9 2019-q4-major\\arm-none-eabi\\include\\math.h"
 6473              		.file 23 "Modules/include/uart4.h"
 6474              		.file 24 "<built-in>"
 6475              		.file 25 "e:\\gnu tools arm embedded\\9 2019-q4-major\\arm-none-eabi\\include\\string.h"
 6476              		.file 26 "e:\\gnu tools arm embedded\\9 2019-q4-major\\arm-none-eabi\\include\\stdio.h"
ARM GAS  C:\Users\luoha\AppData\Local\Temp\cctfed2n.s 			page 165


DEFINED SYMBOLS
                            *ABS*:00000000 uart4.c
C:\Users\luoha\AppData\Local\Temp\cctfed2n.s:18     .text.Uart4Init:00000000 $t
C:\Users\luoha\AppData\Local\Temp\cctfed2n.s:26     .text.Uart4Init:00000000 Uart4Init
C:\Users\luoha\AppData\Local\Temp\cctfed2n.s:54     .text.Uart4Init:00000018 $d
C:\Users\luoha\AppData\Local\Temp\cctfed2n.s:60     .text.DMA1_Stream2_IRQHandler:00000000 $t
C:\Users\luoha\AppData\Local\Temp\cctfed2n.s:67     .text.DMA1_Stream2_IRQHandler:00000000 DMA1_Stream2_IRQHandler
C:\Users\luoha\AppData\Local\Temp\cctfed2n.s:88     .text.DMA1_Stream2_IRQHandler:0000000c $d
C:\Users\luoha\AppData\Local\Temp\cctfed2n.s:93     .text.DMA1_Stream4_IRQHandler:00000000 $t
C:\Users\luoha\AppData\Local\Temp\cctfed2n.s:100    .text.DMA1_Stream4_IRQHandler:00000000 DMA1_Stream4_IRQHandler
C:\Users\luoha\AppData\Local\Temp\cctfed2n.s:121    .text.DMA1_Stream4_IRQHandler:0000000c $d
C:\Users\luoha\AppData\Local\Temp\cctfed2n.s:126    .rodata.MavlinkParse.str1.4:00000000 $d
C:\Users\luoha\AppData\Local\Temp\cctfed2n.s:133    .text.MavlinkParse:00000000 $t
C:\Users\luoha\AppData\Local\Temp\cctfed2n.s:140    .text.MavlinkParse:00000000 MavlinkParse
C:\Users\luoha\AppData\Local\Temp\cctfed2n.s:692    .text.MavlinkParse:00000190 $d
C:\Users\luoha\AppData\Local\Temp\cctfed2n.s:708    .text.MavlinkParse:000001d0 $t
C:\Users\luoha\AppData\Local\Temp\cctfed2n.s:1062   .text.MavlinkParse:000002ec $d
C:\Users\luoha\AppData\Local\Temp\cctfed2n.s:1069   .text.MavlinkParse:000002fc $t
C:\Users\luoha\AppData\Local\Temp\cctfed2n.s:1720   .text.MavlinkParse:00000564 $d
C:\Users\luoha\AppData\Local\Temp\cctfed2n.s:1738   .text.MavlinkParse:00000594 $t
C:\Users\luoha\AppData\Local\Temp\cctfed2n.s:2676   .text.MavlinkParse:00000944 $d
C:\Users\luoha\AppData\Local\Temp\cctfed2n.s:2692   .text.MavlinkParse:00000954 $t
C:\Users\luoha\AppData\Local\Temp\cctfed2n.s:3648   .text.MavlinkParse:00000d28 $d
C:\Users\luoha\AppData\Local\Temp\cctfed2n.s:3662   .text.MavlinkParse:00000d30 $t
C:\Users\luoha\AppData\Local\Temp\cctfed2n.s:4484   .text.MavlinkParse:000010a4 $d
C:\Users\luoha\AppData\Local\Temp\cctfed2n.s:4497   .text.UartRxCheck:00000000 $t
C:\Users\luoha\AppData\Local\Temp\cctfed2n.s:4504   .text.UartRxCheck:00000000 UartRxCheck
C:\Users\luoha\AppData\Local\Temp\cctfed2n.s:4582   .text.UartRxCheck:0000004c $d
C:\Users\luoha\AppData\Local\Temp\cctfed2n.s:4589   .text.UART4_IRQHandler:00000000 $t
C:\Users\luoha\AppData\Local\Temp\cctfed2n.s:4596   .text.UART4_IRQHandler:00000000 UART4_IRQHandler
C:\Users\luoha\AppData\Local\Temp\cctfed2n.s:4655   .text.UART4_IRQHandler:00000030 $d
C:\Users\luoha\AppData\Local\Temp\cctfed2n.s:4660   .text.HAL_UART_RxCpltCallback:00000000 $t
C:\Users\luoha\AppData\Local\Temp\cctfed2n.s:4667   .text.HAL_UART_RxCpltCallback:00000000 HAL_UART_RxCpltCallback
C:\Users\luoha\AppData\Local\Temp\cctfed2n.s:4701   .text.HAL_UART_RxCpltCallback:00000014 $d
C:\Users\luoha\AppData\Local\Temp\cctfed2n.s:4706   .text.HAL_UART_RxHalfCpltCallback:00000000 $t
C:\Users\luoha\AppData\Local\Temp\cctfed2n.s:4713   .text.HAL_UART_RxHalfCpltCallback:00000000 HAL_UART_RxHalfCpltCallback
C:\Users\luoha\AppData\Local\Temp\cctfed2n.s:4747   .text.HAL_UART_RxHalfCpltCallback:00000014 $d
C:\Users\luoha\AppData\Local\Temp\cctfed2n.s:4752   .bss.m_mavlink_buffer.10181:00000000 $d
C:\Users\luoha\AppData\Local\Temp\cctfed2n.s:4756   .bss.m_mavlink_buffer.10181:00000000 m_mavlink_buffer.10181
C:\Users\luoha\AppData\Local\Temp\cctfed2n.s:4759   .bss.m_mavlink_status.10177:00000000 $d
C:\Users\luoha\AppData\Local\Temp\cctfed2n.s:4763   .bss.m_mavlink_status.10177:00000000 m_mavlink_status.10177
C:\Users\luoha\AppData\Local\Temp\cctfed2n.s:4766   .bss.msg:00000000 $d
C:\Users\luoha\AppData\Local\Temp\cctfed2n.s:4770   .bss.msg:00000000 msg
C:\Users\luoha\AppData\Local\Temp\cctfed2n.s:4773   .bss.old_pos.27914:00000000 $d
C:\Users\luoha\AppData\Local\Temp\cctfed2n.s:4777   .bss.old_pos.27914:00000000 old_pos.27914
C:\Users\luoha\AppData\Local\Temp\cctfed2n.s:4780   .bss.rx_buffer:00000000 $d
C:\Users\luoha\AppData\Local\Temp\cctfed2n.s:4784   .bss.rx_buffer:00000000 rx_buffer
C:\Users\luoha\AppData\Local\Temp\cctfed2n.s:4787   .bss.status:00000000 $d
C:\Users\luoha\AppData\Local\Temp\cctfed2n.s:4791   .bss.status:00000000 status
C:\Users\luoha\AppData\Local\Temp\cctfed2n.s:4794   .rodata.mavlink_message_crcs.10290:00000000 $d
C:\Users\luoha\AppData\Local\Temp\cctfed2n.s:4798   .rodata.mavlink_message_crcs.10290:00000000 mavlink_message_crcs.10290
C:\Users\luoha\AppData\Local\Temp\cctfed2n.s:6384   .rodata.mavlink_sha256_constant_256:00000000 $d
C:\Users\luoha\AppData\Local\Temp\cctfed2n.s:6388   .rodata.mavlink_sha256_constant_256:00000000 mavlink_sha256_constant_256

UNDEFINED SYMBOLS
HAL_UART_Receive_DMA
huart4
ARM GAS  C:\Users\luoha\AppData\Local\Temp\cctfed2n.s 			page 166


HAL_DMA_IRQHandler
memset
memcpy
memcmp
puts
printf
HAL_UART_IRQHandler
