ARM GAS  C:\Users\luoha\AppData\Local\Temp\ccHsUPVU.s 			page 1


   1              		.cpu cortex-m4
   2              		.eabi_attribute 27, 1
   3              		.eabi_attribute 28, 1
   4              		.eabi_attribute 20, 1
   5              		.eabi_attribute 21, 1
   6              		.eabi_attribute 23, 3
   7              		.eabi_attribute 24, 1
   8              		.eabi_attribute 25, 1
   9              		.eabi_attribute 26, 1
  10              		.eabi_attribute 30, 1
  11              		.eabi_attribute 34, 1
  12              		.eabi_attribute 18, 4
  13              		.file	"usart_com.c"
  14              		.text
  15              	.Ltext0:
  16              		.cfi_sections	.debug_frame
  17              		.section	.text.UartRxCheck,"ax",%progbits
  18              		.align	1
  19              		.arch armv7e-m
  20              		.syntax unified
  21              		.thumb
  22              		.thumb_func
  23              		.fpu fpv4-sp-d16
  25              	UartRxCheck:
  26              	.LFB144:
  27              		.file 1 "Modules/src/usart_com.c"
   1:Modules/src/usart_com.c **** #include "usart_com.h"
   2:Modules/src/usart_com.c **** 
   3:Modules/src/usart_com.c **** static uint8_t rx_buffer[RX_BUFFER_SIZE];
   4:Modules/src/usart_com.c **** 
   5:Modules/src/usart_com.c **** xQueueHandle usart2_queue;
   6:Modules/src/usart_com.c **** STATIC_MEM_QUEUE_ALLOC(usart2_queue, 5, sizeof(usart2_queue_buffer));
   7:Modules/src/usart_com.c **** 
   8:Modules/src/usart_com.c **** static void UartRxCheck(void);
   9:Modules/src/usart_com.c **** 
  10:Modules/src/usart_com.c **** #ifdef USE_SISTEMVEIW
  11:Modules/src/usart_com.c **** TaskHandle_t system_view_notify = NULL;
  12:Modules/src/usart_com.c **** #endif 
  13:Modules/src/usart_com.c **** 
  14:Modules/src/usart_com.c **** 
  15:Modules/src/usart_com.c **** void UsartInit(void) {
  16:Modules/src/usart_com.c ****     usart2_queue = STATIC_MEM_QUEUE_CREATE(usart2_queue);
  17:Modules/src/usart_com.c **** 
  18:Modules/src/usart_com.c ****     //使能IDLE中断
  19:Modules/src/usart_com.c ****     __HAL_UART_ENABLE_IT(&huart2, UART_IT_IDLE);
  20:Modules/src/usart_com.c ****     //使能接收中断
  21:Modules/src/usart_com.c ****     HAL_UART_Receive_DMA(&huart2, rx_buffer, RX_BUFFER_SIZE);
  22:Modules/src/usart_com.c **** }
  23:Modules/src/usart_com.c **** 
  24:Modules/src/usart_com.c **** void USART2_IRQHandler(void) {
  25:Modules/src/usart_com.c ****     // printf("UART4_IRQHandler\r\n");
  26:Modules/src/usart_com.c ****     if (__HAL_UART_GET_FLAG(&huart2, UART_FLAG_IDLE) != RESET) {
  27:Modules/src/usart_com.c ****         __HAL_UART_CLEAR_IDLEFLAG(&huart2);
  28:Modules/src/usart_com.c ****         UartRxCheck();
  29:Modules/src/usart_com.c ****     } else {
  30:Modules/src/usart_com.c ****         HAL_UART_IRQHandler(&huart2);
  31:Modules/src/usart_com.c ****     }
ARM GAS  C:\Users\luoha\AppData\Local\Temp\ccHsUPVU.s 			page 2


  32:Modules/src/usart_com.c **** }
  33:Modules/src/usart_com.c **** 
  34:Modules/src/usart_com.c **** void DMA1_Stream5_IRQHandler(void) {
  35:Modules/src/usart_com.c ****     // printf("DMA1_Stream2_IRQHandler\r\n");
  36:Modules/src/usart_com.c ****     HAL_DMA_IRQHandler(huart2.hdmarx);
  37:Modules/src/usart_com.c **** }
  38:Modules/src/usart_com.c **** 
  39:Modules/src/usart_com.c **** void DMA1_Stream6_IRQHandler(void) {
  40:Modules/src/usart_com.c ****     // printf("DMA1_Stream4_IRQHandler\r\n");
  41:Modules/src/usart_com.c ****     HAL_DMA_IRQHandler(huart2.hdmatx);
  42:Modules/src/usart_com.c **** }
  43:Modules/src/usart_com.c **** 
  44:Modules/src/usart_com.c **** void HAL_UART_RxCpltCallback(UART_HandleTypeDef *huart) {
  45:Modules/src/usart_com.c ****     if (huart->Instance == USART2) {
  46:Modules/src/usart_com.c ****         UartRxCheck();
  47:Modules/src/usart_com.c ****     }
  48:Modules/src/usart_com.c **** #ifdef USE_SISTEMVEIW
  49:Modules/src/usart_com.c ****     else if (huart->Instance == USART1) {
  50:Modules/src/usart_com.c ****         BaseType_t higher_woken = pdFALSE;
  51:Modules/src/usart_com.c ****         xTaskNotifyFromISR(system_view_notify, 0x01, eSetBits, &higher_woken);
  52:Modules/src/usart_com.c ****         portYIELD_FROM_ISR(higher_woken);
  53:Modules/src/usart_com.c ****     }
  54:Modules/src/usart_com.c **** #endif 
  55:Modules/src/usart_com.c **** }
  56:Modules/src/usart_com.c **** 
  57:Modules/src/usart_com.c **** void HAL_UART_RxHalfCpltCallback(UART_HandleTypeDef *huart) {
  58:Modules/src/usart_com.c ****     if (huart->Instance == USART2) {
  59:Modules/src/usart_com.c ****         UartRxCheck();
  60:Modules/src/usart_com.c ****     }
  61:Modules/src/usart_com.c **** }
  62:Modules/src/usart_com.c **** 
  63:Modules/src/usart_com.c **** #ifdef USE_SISTEMVEIW
  64:Modules/src/usart_com.c **** void HAL_UART_TxCpltCallback(UART_HandleTypeDef *huart) {
  65:Modules/src/usart_com.c ****     if (huart->Instance == USART1) {
  66:Modules/src/usart_com.c ****         BaseType_t higher_woken = pdFALSE;
  67:Modules/src/usart_com.c ****         xTaskNotifyFromISR(system_view_notify, 0x02, eSetBits, &higher_woken);
  68:Modules/src/usart_com.c ****         portYIELD_FROM_ISR(higher_woken);
  69:Modules/src/usart_com.c ****         // uint8_t buffer[] = "HAL_UART_TxCpltCallback\r\n";
  70:Modules/src/usart_com.c ****         // HAL_UART_Transmit_DMA(&huart1, buffer, sizeof(buffer));
  71:Modules/src/usart_com.c ****     }
  72:Modules/src/usart_com.c **** }
  73:Modules/src/usart_com.c **** #endif 
  74:Modules/src/usart_com.c **** 
  75:Modules/src/usart_com.c **** static void UartRxCheck(void) {
  28              		.loc 1 75 31 view -0
  29              		.cfi_startproc
  30              		@ args = 0, pretend = 0, frame = 16
  31              		@ frame_needed = 0, uses_anonymous_args = 0
  32 0000 10B5     		push	{r4, lr}
  33              	.LCFI0:
  34              		.cfi_def_cfa_offset 8
  35              		.cfi_offset 4, -8
  36              		.cfi_offset 14, -4
  37 0002 84B0     		sub	sp, sp, #16
  38              	.LCFI1:
  39              		.cfi_def_cfa_offset 24
  76:Modules/src/usart_com.c ****     static size_t old_pos;
ARM GAS  C:\Users\luoha\AppData\Local\Temp\ccHsUPVU.s 			page 3


  40              		.loc 1 76 5 view .LVU1
  77:Modules/src/usart_com.c ****     size_t pos;
  41              		.loc 1 77 5 view .LVU2
  78:Modules/src/usart_com.c ****     usart2_queue_buffer buffer;
  42              		.loc 1 78 5 view .LVU3
  79:Modules/src/usart_com.c ****     portBASE_TYPE xHigherPriorityTaskWoken = pdFALSE;
  43              		.loc 1 79 5 view .LVU4
  44              		.loc 1 79 19 is_stmt 0 view .LVU5
  45 0004 0023     		movs	r3, #0
  46 0006 0193     		str	r3, [sp, #4]
  80:Modules/src/usart_com.c **** 
  81:Modules/src/usart_com.c ****     /* Calculate current position in buffer */
  82:Modules/src/usart_com.c ****     pos = RX_BUFFER_SIZE - __HAL_DMA_GET_COUNTER(huart2.hdmarx);
  47              		.loc 1 82 5 is_stmt 1 view .LVU6
  48              		.loc 1 82 28 is_stmt 0 view .LVU7
  49 0008 214B     		ldr	r3, .L8
  50 000a 9B6B     		ldr	r3, [r3, #56]
  51 000c 1B68     		ldr	r3, [r3]
  52 000e 5C68     		ldr	r4, [r3, #4]
  53              		.loc 1 82 9 view .LVU8
  54 0010 C4F18004 		rsb	r4, r4, #128
  55              	.LVL0:
  83:Modules/src/usart_com.c **** 
  84:Modules/src/usart_com.c ****     // printf("%u\r\n", pos);
  85:Modules/src/usart_com.c **** 
  86:Modules/src/usart_com.c ****     if (pos != old_pos) {    /* Check change in received data */
  56              		.loc 1 86 5 is_stmt 1 view .LVU9
  57              		.loc 1 86 13 is_stmt 0 view .LVU10
  58 0014 1F4B     		ldr	r3, .L8+4
  59 0016 1B68     		ldr	r3, [r3]
  60              		.loc 1 86 8 view .LVU11
  61 0018 A342     		cmp	r3, r4
  62 001a 0CD0     		beq	.L2
  87:Modules/src/usart_com.c ****         if (pos > old_pos) { /* Current position is over previous one */
  63              		.loc 1 87 9 is_stmt 1 view .LVU12
  64              		.loc 1 87 12 is_stmt 0 view .LVU13
  65 001c 1BD2     		bcs	.L3
  88:Modules/src/usart_com.c ****             /* We are in "linear" mode */
  89:Modules/src/usart_com.c ****             /* Process data directly by subtracting "pointers" */
  90:Modules/src/usart_com.c ****             buffer.addr   = &rx_buffer[old_pos];
  66              		.loc 1 90 13 is_stmt 1 view .LVU14
  67              		.loc 1 90 29 is_stmt 0 view .LVU15
  68 001e 1E4A     		ldr	r2, .L8+8
  69 0020 1A44     		add	r2, r2, r3
  70              		.loc 1 90 27 view .LVU16
  71 0022 0392     		str	r2, [sp, #12]
  91:Modules/src/usart_com.c ****             buffer.length = pos - old_pos;
  72              		.loc 1 91 13 is_stmt 1 view .LVU17
  73              		.loc 1 91 33 is_stmt 0 view .LVU18
  74 0024 E31A     		subs	r3, r4, r3
  75              		.loc 1 91 27 view .LVU19
  76 0026 0293     		str	r3, [sp, #8]
  92:Modules/src/usart_com.c ****             xQueueSendFromISR(usart2_queue, &buffer, &xHigherPriorityTaskWoken);
  77              		.loc 1 92 13 is_stmt 1 view .LVU20
  78 0028 0023     		movs	r3, #0
  79 002a 01AA     		add	r2, sp, #4
  80 002c 02A9     		add	r1, sp, #8
ARM GAS  C:\Users\luoha\AppData\Local\Temp\ccHsUPVU.s 			page 4


  81 002e 1B48     		ldr	r0, .L8+12
  82 0030 0068     		ldr	r0, [r0]
  83 0032 FFF7FEFF 		bl	xQueueGenericSendFromISR
  84              	.LVL1:
  85              	.L2:
  93:Modules/src/usart_com.c ****         } else {
  94:Modules/src/usart_com.c ****             /* We are in "overflow" mode */
  95:Modules/src/usart_com.c ****             /* First process data to the end of buffer */
  96:Modules/src/usart_com.c ****             buffer.addr   = &rx_buffer[old_pos];
  97:Modules/src/usart_com.c ****             buffer.length = RX_BUFFER_SIZE - old_pos;
  98:Modules/src/usart_com.c ****             xQueueSendFromISR(usart2_queue, &buffer, &xHigherPriorityTaskWoken);
  99:Modules/src/usart_com.c ****             /* Check and continue with beginning of buffer */
 100:Modules/src/usart_com.c ****             if (pos > 0) {
 101:Modules/src/usart_com.c ****                 buffer.addr   = &rx_buffer[0];
 102:Modules/src/usart_com.c ****                 buffer.length = pos;
 103:Modules/src/usart_com.c ****                 xQueueSendFromISR(usart2_queue, &buffer, &xHigherPriorityTaskWoken);
 104:Modules/src/usart_com.c ****             }
 105:Modules/src/usart_com.c ****         }
 106:Modules/src/usart_com.c ****     }
 107:Modules/src/usart_com.c ****     old_pos = pos; /* Save current position as old */
  86              		.loc 1 107 5 view .LVU21
  87              		.loc 1 107 13 is_stmt 0 view .LVU22
  88 0036 174B     		ldr	r3, .L8+4
  89 0038 1C60     		str	r4, [r3]
 108:Modules/src/usart_com.c **** 
 109:Modules/src/usart_com.c ****     /* Check and manually update if we reached end of buffer */
 110:Modules/src/usart_com.c ****     if (old_pos == RX_BUFFER_SIZE) {
  90              		.loc 1 110 5 is_stmt 1 view .LVU23
  91              		.loc 1 110 8 is_stmt 0 view .LVU24
  92 003a 802C     		cmp	r4, #128
  93 003c 25D0     		beq	.L7
  94              	.L4:
 111:Modules/src/usart_com.c ****         old_pos = 0;
 112:Modules/src/usart_com.c ****     }
 113:Modules/src/usart_com.c **** 
 114:Modules/src/usart_com.c ****     portYIELD_FROM_ISR(xHigherPriorityTaskWoken);
  95              		.loc 1 114 5 is_stmt 1 view .LVU25
  96 003e 019B     		ldr	r3, [sp, #4]
  97 0040 3BB1     		cbz	r3, .L1
  98              		.loc 1 114 5 discriminator 1 view .LVU26
  99 0042 174B     		ldr	r3, .L8+16
 100 0044 4FF08052 		mov	r2, #268435456
 101 0048 1A60     		str	r2, [r3]
 102              		.loc 1 114 5 discriminator 1 view .LVU27
 103              		.syntax unified
 104              	@ 114 "Modules/src/usart_com.c" 1
 105 004a BFF34F8F 		dsb
 106              	@ 0 "" 2
 107              		.loc 1 114 5 discriminator 1 view .LVU28
 108              	@ 114 "Modules/src/usart_com.c" 1
 109 004e BFF36F8F 		isb
 110              	@ 0 "" 2
 111              		.loc 1 114 49 discriminator 1 view .LVU29
 112              		.thumb
 113              		.syntax unified
 114              	.L1:
 115:Modules/src/usart_com.c **** }
ARM GAS  C:\Users\luoha\AppData\Local\Temp\ccHsUPVU.s 			page 5


 115              		.loc 1 115 1 is_stmt 0 view .LVU30
 116 0052 04B0     		add	sp, sp, #16
 117              	.LCFI2:
 118              		.cfi_remember_state
 119              		.cfi_def_cfa_offset 8
 120              		@ sp needed
 121 0054 10BD     		pop	{r4, pc}
 122              	.LVL2:
 123              	.L3:
 124              	.LCFI3:
 125              		.cfi_restore_state
  96:Modules/src/usart_com.c ****             buffer.length = RX_BUFFER_SIZE - old_pos;
 126              		.loc 1 96 13 is_stmt 1 view .LVU31
  96:Modules/src/usart_com.c ****             buffer.length = RX_BUFFER_SIZE - old_pos;
 127              		.loc 1 96 29 is_stmt 0 view .LVU32
 128 0056 104A     		ldr	r2, .L8+8
 129 0058 1A44     		add	r2, r2, r3
  96:Modules/src/usart_com.c ****             buffer.length = RX_BUFFER_SIZE - old_pos;
 130              		.loc 1 96 27 view .LVU33
 131 005a 0392     		str	r2, [sp, #12]
  97:Modules/src/usart_com.c ****             xQueueSendFromISR(usart2_queue, &buffer, &xHigherPriorityTaskWoken);
 132              		.loc 1 97 13 is_stmt 1 view .LVU34
  97:Modules/src/usart_com.c ****             xQueueSendFromISR(usart2_queue, &buffer, &xHigherPriorityTaskWoken);
 133              		.loc 1 97 44 is_stmt 0 view .LVU35
 134 005c C3F18003 		rsb	r3, r3, #128
  97:Modules/src/usart_com.c ****             xQueueSendFromISR(usart2_queue, &buffer, &xHigherPriorityTaskWoken);
 135              		.loc 1 97 27 view .LVU36
 136 0060 0293     		str	r3, [sp, #8]
  98:Modules/src/usart_com.c ****             /* Check and continue with beginning of buffer */
 137              		.loc 1 98 13 is_stmt 1 view .LVU37
 138 0062 0023     		movs	r3, #0
 139 0064 01AA     		add	r2, sp, #4
 140 0066 02A9     		add	r1, sp, #8
 141 0068 0C48     		ldr	r0, .L8+12
 142 006a 0068     		ldr	r0, [r0]
 143 006c FFF7FEFF 		bl	xQueueGenericSendFromISR
 144              	.LVL3:
 100:Modules/src/usart_com.c ****                 buffer.addr   = &rx_buffer[0];
 145              		.loc 1 100 13 view .LVU38
 100:Modules/src/usart_com.c ****                 buffer.addr   = &rx_buffer[0];
 146              		.loc 1 100 16 is_stmt 0 view .LVU39
 147 0070 002C     		cmp	r4, #0
 148 0072 E0D0     		beq	.L2
 101:Modules/src/usart_com.c ****                 buffer.length = pos;
 149              		.loc 1 101 17 is_stmt 1 view .LVU40
 101:Modules/src/usart_com.c ****                 buffer.length = pos;
 150              		.loc 1 101 31 is_stmt 0 view .LVU41
 151 0074 084B     		ldr	r3, .L8+8
 152 0076 0393     		str	r3, [sp, #12]
 102:Modules/src/usart_com.c ****                 xQueueSendFromISR(usart2_queue, &buffer, &xHigherPriorityTaskWoken);
 153              		.loc 1 102 17 is_stmt 1 view .LVU42
 102:Modules/src/usart_com.c ****                 xQueueSendFromISR(usart2_queue, &buffer, &xHigherPriorityTaskWoken);
 154              		.loc 1 102 31 is_stmt 0 view .LVU43
 155 0078 0294     		str	r4, [sp, #8]
 103:Modules/src/usart_com.c ****             }
 156              		.loc 1 103 17 is_stmt 1 view .LVU44
 157 007a 0023     		movs	r3, #0
ARM GAS  C:\Users\luoha\AppData\Local\Temp\ccHsUPVU.s 			page 6


 158 007c 01AA     		add	r2, sp, #4
 159 007e 02A9     		add	r1, sp, #8
 160 0080 0648     		ldr	r0, .L8+12
 161 0082 0068     		ldr	r0, [r0]
 162 0084 FFF7FEFF 		bl	xQueueGenericSendFromISR
 163              	.LVL4:
 164 0088 D5E7     		b	.L2
 165              	.L7:
 111:Modules/src/usart_com.c ****     }
 166              		.loc 1 111 9 view .LVU45
 111:Modules/src/usart_com.c ****     }
 167              		.loc 1 111 17 is_stmt 0 view .LVU46
 168 008a 0022     		movs	r2, #0
 169 008c 1A60     		str	r2, [r3]
 170 008e D6E7     		b	.L4
 171              	.L9:
 172              		.align	2
 173              	.L8:
 174 0090 00000000 		.word	huart2
 175 0094 00000000 		.word	.LANCHOR0
 176 0098 00000000 		.word	.LANCHOR1
 177 009c 00000000 		.word	usart2_queue
 178 00a0 04ED00E0 		.word	-536810236
 179              		.cfi_endproc
 180              	.LFE144:
 182              		.section	.text.UsartInit,"ax",%progbits
 183              		.align	1
 184              		.global	UsartInit
 185              		.syntax unified
 186              		.thumb
 187              		.thumb_func
 188              		.fpu fpv4-sp-d16
 190              	UsartInit:
 191              	.LFB138:
  15:Modules/src/usart_com.c ****     usart2_queue = STATIC_MEM_QUEUE_CREATE(usart2_queue);
 192              		.loc 1 15 22 is_stmt 1 view -0
 193              		.cfi_startproc
 194              		@ args = 0, pretend = 0, frame = 0
 195              		@ frame_needed = 0, uses_anonymous_args = 0
 196 0000 00B5     		push	{lr}
 197              	.LCFI4:
 198              		.cfi_def_cfa_offset 4
 199              		.cfi_offset 14, -4
 200 0002 83B0     		sub	sp, sp, #12
 201              	.LCFI5:
 202              		.cfi_def_cfa_offset 16
  16:Modules/src/usart_com.c **** 
 203              		.loc 1 16 5 view .LVU48
  16:Modules/src/usart_com.c **** 
 204              		.loc 1 16 20 is_stmt 0 view .LVU49
 205 0004 0023     		movs	r3, #0
 206 0006 0093     		str	r3, [sp]
 207 0008 0A4B     		ldr	r3, .L12
 208 000a 0B4A     		ldr	r2, .L12+4
 209 000c 0821     		movs	r1, #8
 210 000e 0520     		movs	r0, #5
 211 0010 FFF7FEFF 		bl	xQueueGenericCreateStatic
ARM GAS  C:\Users\luoha\AppData\Local\Temp\ccHsUPVU.s 			page 7


 212              	.LVL5:
  16:Modules/src/usart_com.c **** 
 213              		.loc 1 16 18 view .LVU50
 214 0014 094B     		ldr	r3, .L12+8
 215 0016 1860     		str	r0, [r3]
  19:Modules/src/usart_com.c ****     //使能接收中断
 216              		.loc 1 19 5 is_stmt 1 view .LVU51
 217 0018 0948     		ldr	r0, .L12+12
 218 001a 0268     		ldr	r2, [r0]
 219 001c D368     		ldr	r3, [r2, #12]
 220 001e 43F01003 		orr	r3, r3, #16
 221 0022 D360     		str	r3, [r2, #12]
  21:Modules/src/usart_com.c **** }
 222              		.loc 1 21 5 view .LVU52
 223 0024 8022     		movs	r2, #128
 224 0026 0749     		ldr	r1, .L12+16
 225 0028 FFF7FEFF 		bl	HAL_UART_Receive_DMA
 226              	.LVL6:
  22:Modules/src/usart_com.c **** 
 227              		.loc 1 22 1 is_stmt 0 view .LVU53
 228 002c 03B0     		add	sp, sp, #12
 229              	.LCFI6:
 230              		.cfi_def_cfa_offset 4
 231              		@ sp needed
 232 002e 5DF804FB 		ldr	pc, [sp], #4
 233              	.L13:
 234 0032 00BF     		.align	2
 235              	.L12:
 236 0034 00000000 		.word	.LANCHOR2
 237 0038 00000000 		.word	.LANCHOR3
 238 003c 00000000 		.word	usart2_queue
 239 0040 00000000 		.word	huart2
 240 0044 00000000 		.word	.LANCHOR1
 241              		.cfi_endproc
 242              	.LFE138:
 244              		.section	.text.USART2_IRQHandler,"ax",%progbits
 245              		.align	1
 246              		.global	USART2_IRQHandler
 247              		.syntax unified
 248              		.thumb
 249              		.thumb_func
 250              		.fpu fpv4-sp-d16
 252              	USART2_IRQHandler:
 253              	.LFB139:
  24:Modules/src/usart_com.c ****     // printf("UART4_IRQHandler\r\n");
 254              		.loc 1 24 30 is_stmt 1 view -0
 255              		.cfi_startproc
 256              		@ args = 0, pretend = 0, frame = 8
 257              		@ frame_needed = 0, uses_anonymous_args = 0
 258 0000 00B5     		push	{lr}
 259              	.LCFI7:
 260              		.cfi_def_cfa_offset 4
 261              		.cfi_offset 14, -4
 262 0002 83B0     		sub	sp, sp, #12
 263              	.LCFI8:
 264              		.cfi_def_cfa_offset 16
  26:Modules/src/usart_com.c ****         __HAL_UART_CLEAR_IDLEFLAG(&huart2);
ARM GAS  C:\Users\luoha\AppData\Local\Temp\ccHsUPVU.s 			page 8


 265              		.loc 1 26 5 view .LVU55
  26:Modules/src/usart_com.c ****         __HAL_UART_CLEAR_IDLEFLAG(&huart2);
 266              		.loc 1 26 9 is_stmt 0 view .LVU56
 267 0004 0A4B     		ldr	r3, .L18
 268 0006 1B68     		ldr	r3, [r3]
 269 0008 1A68     		ldr	r2, [r3]
  26:Modules/src/usart_com.c ****         __HAL_UART_CLEAR_IDLEFLAG(&huart2);
 270              		.loc 1 26 8 view .LVU57
 271 000a 12F0100F 		tst	r2, #16
 272 000e 0BD0     		beq	.L15
  27:Modules/src/usart_com.c ****         UartRxCheck();
 273              		.loc 1 27 9 is_stmt 1 view .LVU58
 274              	.LBB2:
  27:Modules/src/usart_com.c ****         UartRxCheck();
 275              		.loc 1 27 9 view .LVU59
 276 0010 0022     		movs	r2, #0
 277 0012 0192     		str	r2, [sp, #4]
  27:Modules/src/usart_com.c ****         UartRxCheck();
 278              		.loc 1 27 9 view .LVU60
 279 0014 1A68     		ldr	r2, [r3]
 280 0016 0192     		str	r2, [sp, #4]
  27:Modules/src/usart_com.c ****         UartRxCheck();
 281              		.loc 1 27 9 view .LVU61
 282 0018 5B68     		ldr	r3, [r3, #4]
 283 001a 0193     		str	r3, [sp, #4]
  27:Modules/src/usart_com.c ****         UartRxCheck();
 284              		.loc 1 27 9 view .LVU62
 285 001c 019B     		ldr	r3, [sp, #4]
 286              	.LBE2:
  27:Modules/src/usart_com.c ****         UartRxCheck();
 287              		.loc 1 27 9 view .LVU63
  28:Modules/src/usart_com.c ****     } else {
 288              		.loc 1 28 9 view .LVU64
 289 001e FFF7FEFF 		bl	UartRxCheck
 290              	.LVL7:
 291              	.L14:
  32:Modules/src/usart_com.c **** 
 292              		.loc 1 32 1 is_stmt 0 view .LVU65
 293 0022 03B0     		add	sp, sp, #12
 294              	.LCFI9:
 295              		.cfi_remember_state
 296              		.cfi_def_cfa_offset 4
 297              		@ sp needed
 298 0024 5DF804FB 		ldr	pc, [sp], #4
 299              	.L15:
 300              	.LCFI10:
 301              		.cfi_restore_state
  30:Modules/src/usart_com.c ****     }
 302              		.loc 1 30 9 is_stmt 1 view .LVU66
 303 0028 0148     		ldr	r0, .L18
 304 002a FFF7FEFF 		bl	HAL_UART_IRQHandler
 305              	.LVL8:
  32:Modules/src/usart_com.c **** 
 306              		.loc 1 32 1 is_stmt 0 view .LVU67
 307 002e F8E7     		b	.L14
 308              	.L19:
 309              		.align	2
ARM GAS  C:\Users\luoha\AppData\Local\Temp\ccHsUPVU.s 			page 9


 310              	.L18:
 311 0030 00000000 		.word	huart2
 312              		.cfi_endproc
 313              	.LFE139:
 315              		.section	.text.DMA1_Stream5_IRQHandler,"ax",%progbits
 316              		.align	1
 317              		.global	DMA1_Stream5_IRQHandler
 318              		.syntax unified
 319              		.thumb
 320              		.thumb_func
 321              		.fpu fpv4-sp-d16
 323              	DMA1_Stream5_IRQHandler:
 324              	.LFB140:
  34:Modules/src/usart_com.c ****     // printf("DMA1_Stream2_IRQHandler\r\n");
 325              		.loc 1 34 36 is_stmt 1 view -0
 326              		.cfi_startproc
 327              		@ args = 0, pretend = 0, frame = 0
 328              		@ frame_needed = 0, uses_anonymous_args = 0
 329 0000 08B5     		push	{r3, lr}
 330              	.LCFI11:
 331              		.cfi_def_cfa_offset 8
 332              		.cfi_offset 3, -8
 333              		.cfi_offset 14, -4
  36:Modules/src/usart_com.c **** }
 334              		.loc 1 36 5 view .LVU69
 335 0002 024B     		ldr	r3, .L22
 336 0004 986B     		ldr	r0, [r3, #56]
 337 0006 FFF7FEFF 		bl	HAL_DMA_IRQHandler
 338              	.LVL9:
  37:Modules/src/usart_com.c **** 
 339              		.loc 1 37 1 is_stmt 0 view .LVU70
 340 000a 08BD     		pop	{r3, pc}
 341              	.L23:
 342              		.align	2
 343              	.L22:
 344 000c 00000000 		.word	huart2
 345              		.cfi_endproc
 346              	.LFE140:
 348              		.section	.text.DMA1_Stream6_IRQHandler,"ax",%progbits
 349              		.align	1
 350              		.global	DMA1_Stream6_IRQHandler
 351              		.syntax unified
 352              		.thumb
 353              		.thumb_func
 354              		.fpu fpv4-sp-d16
 356              	DMA1_Stream6_IRQHandler:
 357              	.LFB141:
  39:Modules/src/usart_com.c ****     // printf("DMA1_Stream4_IRQHandler\r\n");
 358              		.loc 1 39 36 is_stmt 1 view -0
 359              		.cfi_startproc
 360              		@ args = 0, pretend = 0, frame = 0
 361              		@ frame_needed = 0, uses_anonymous_args = 0
 362 0000 08B5     		push	{r3, lr}
 363              	.LCFI12:
 364              		.cfi_def_cfa_offset 8
 365              		.cfi_offset 3, -8
 366              		.cfi_offset 14, -4
ARM GAS  C:\Users\luoha\AppData\Local\Temp\ccHsUPVU.s 			page 10


  41:Modules/src/usart_com.c **** }
 367              		.loc 1 41 5 view .LVU72
 368 0002 024B     		ldr	r3, .L26
 369 0004 586B     		ldr	r0, [r3, #52]
 370 0006 FFF7FEFF 		bl	HAL_DMA_IRQHandler
 371              	.LVL10:
  42:Modules/src/usart_com.c **** 
 372              		.loc 1 42 1 is_stmt 0 view .LVU73
 373 000a 08BD     		pop	{r3, pc}
 374              	.L27:
 375              		.align	2
 376              	.L26:
 377 000c 00000000 		.word	huart2
 378              		.cfi_endproc
 379              	.LFE141:
 381              		.section	.text.HAL_UART_RxCpltCallback,"ax",%progbits
 382              		.align	1
 383              		.global	HAL_UART_RxCpltCallback
 384              		.syntax unified
 385              		.thumb
 386              		.thumb_func
 387              		.fpu fpv4-sp-d16
 389              	HAL_UART_RxCpltCallback:
 390              	.LVL11:
 391              	.LFB142:
  44:Modules/src/usart_com.c ****     if (huart->Instance == USART2) {
 392              		.loc 1 44 57 is_stmt 1 view -0
 393              		.cfi_startproc
 394              		@ args = 0, pretend = 0, frame = 0
 395              		@ frame_needed = 0, uses_anonymous_args = 0
  44:Modules/src/usart_com.c ****     if (huart->Instance == USART2) {
 396              		.loc 1 44 57 is_stmt 0 view .LVU75
 397 0000 08B5     		push	{r3, lr}
 398              	.LCFI13:
 399              		.cfi_def_cfa_offset 8
 400              		.cfi_offset 3, -8
 401              		.cfi_offset 14, -4
  45:Modules/src/usart_com.c ****         UartRxCheck();
 402              		.loc 1 45 5 is_stmt 1 view .LVU76
  45:Modules/src/usart_com.c ****         UartRxCheck();
 403              		.loc 1 45 14 is_stmt 0 view .LVU77
 404 0002 0268     		ldr	r2, [r0]
  45:Modules/src/usart_com.c ****         UartRxCheck();
 405              		.loc 1 45 8 view .LVU78
 406 0004 034B     		ldr	r3, .L32
 407 0006 9A42     		cmp	r2, r3
 408 0008 00D0     		beq	.L31
 409              	.LVL12:
 410              	.L28:
  55:Modules/src/usart_com.c **** 
 411              		.loc 1 55 1 view .LVU79
 412 000a 08BD     		pop	{r3, pc}
 413              	.LVL13:
 414              	.L31:
  46:Modules/src/usart_com.c ****     }
 415              		.loc 1 46 9 is_stmt 1 view .LVU80
 416 000c FFF7FEFF 		bl	UartRxCheck
ARM GAS  C:\Users\luoha\AppData\Local\Temp\ccHsUPVU.s 			page 11


 417              	.LVL14:
  55:Modules/src/usart_com.c **** 
 418              		.loc 1 55 1 is_stmt 0 view .LVU81
 419 0010 FBE7     		b	.L28
 420              	.L33:
 421 0012 00BF     		.align	2
 422              	.L32:
 423 0014 00440040 		.word	1073759232
 424              		.cfi_endproc
 425              	.LFE142:
 427              		.section	.text.HAL_UART_RxHalfCpltCallback,"ax",%progbits
 428              		.align	1
 429              		.global	HAL_UART_RxHalfCpltCallback
 430              		.syntax unified
 431              		.thumb
 432              		.thumb_func
 433              		.fpu fpv4-sp-d16
 435              	HAL_UART_RxHalfCpltCallback:
 436              	.LVL15:
 437              	.LFB143:
  57:Modules/src/usart_com.c ****     if (huart->Instance == USART2) {
 438              		.loc 1 57 61 is_stmt 1 view -0
 439              		.cfi_startproc
 440              		@ args = 0, pretend = 0, frame = 0
 441              		@ frame_needed = 0, uses_anonymous_args = 0
  57:Modules/src/usart_com.c ****     if (huart->Instance == USART2) {
 442              		.loc 1 57 61 is_stmt 0 view .LVU83
 443 0000 08B5     		push	{r3, lr}
 444              	.LCFI14:
 445              		.cfi_def_cfa_offset 8
 446              		.cfi_offset 3, -8
 447              		.cfi_offset 14, -4
  58:Modules/src/usart_com.c ****         UartRxCheck();
 448              		.loc 1 58 5 is_stmt 1 view .LVU84
  58:Modules/src/usart_com.c ****         UartRxCheck();
 449              		.loc 1 58 14 is_stmt 0 view .LVU85
 450 0002 0268     		ldr	r2, [r0]
  58:Modules/src/usart_com.c ****         UartRxCheck();
 451              		.loc 1 58 8 view .LVU86
 452 0004 034B     		ldr	r3, .L38
 453 0006 9A42     		cmp	r2, r3
 454 0008 00D0     		beq	.L37
 455              	.LVL16:
 456              	.L34:
  61:Modules/src/usart_com.c **** 
 457              		.loc 1 61 1 view .LVU87
 458 000a 08BD     		pop	{r3, pc}
 459              	.LVL17:
 460              	.L37:
  59:Modules/src/usart_com.c ****     }
 461              		.loc 1 59 9 is_stmt 1 view .LVU88
 462 000c FFF7FEFF 		bl	UartRxCheck
 463              	.LVL18:
  61:Modules/src/usart_com.c **** 
 464              		.loc 1 61 1 is_stmt 0 view .LVU89
 465 0010 FBE7     		b	.L34
 466              	.L39:
ARM GAS  C:\Users\luoha\AppData\Local\Temp\ccHsUPVU.s 			page 12


 467 0012 00BF     		.align	2
 468              	.L38:
 469 0014 00440040 		.word	1073759232
 470              		.cfi_endproc
 471              	.LFE143:
 473              		.comm	usart2_queue,4,4
 474              		.section	.bss.old_pos.10021,"aw",%nobits
 475              		.align	2
 476              		.set	.LANCHOR0,. + 0
 479              	old_pos.10021:
 480 0000 00000000 		.space	4
 481              		.section	.bss.osSys_usart2_queueMgm,"aw",%nobits
 482              		.align	2
 483              		.set	.LANCHOR2,. + 0
 486              	osSys_usart2_queueMgm:
 487 0000 00000000 		.space	72
 487      00000000 
 487      00000000 
 487      00000000 
 487      00000000 
 488              		.section	.bss.osSys_usart2_queueStorage,"aw",%nobits
 489              		.align	2
 490              		.set	.LANCHOR3,. + 0
 493              	osSys_usart2_queueStorage:
 494 0000 00000000 		.space	40
 494      00000000 
 494      00000000 
 494      00000000 
 494      00000000 
 495              		.section	.bss.rx_buffer,"aw",%nobits
 496              		.align	2
 497              		.set	.LANCHOR1,. + 0
 500              	rx_buffer:
 501 0000 00000000 		.space	128
 501      00000000 
 501      00000000 
 501      00000000 
 501      00000000 
 502              		.text
 503              	.Letext0:
 504              		.file 2 "c:\\gnu_tools_arm_embedded\\arm-none-eabi\\include\\machine\\_default_types.h"
 505              		.file 3 "c:\\gnu_tools_arm_embedded\\arm-none-eabi\\include\\sys\\_stdint.h"
 506              		.file 4 "Drivers/CMSIS/Include/core_cm4.h"
 507              		.file 5 "Drivers/CMSIS/Device/ST/STM32F4xx/Include/system_stm32f4xx.h"
 508              		.file 6 "Drivers/CMSIS/Device/ST/STM32F4xx/Include/stm32f407xx.h"
 509              		.file 7 "c:\\gnu_tools_arm_embedded\\lib\\gcc\\arm-none-eabi\\9.2.1\\include\\stddef.h"
 510              		.file 8 "Drivers/CMSIS/Device/ST/STM32F4xx/Include/stm32f4xx.h"
 511              		.file 9 "Drivers/STM32F4xx_HAL_Driver/Inc/stm32f4xx_hal_def.h"
 512              		.file 10 "Drivers/STM32F4xx_HAL_Driver/Inc/stm32f4xx_hal_dma.h"
 513              		.file 11 "Drivers/STM32F4xx_HAL_Driver/Inc/stm32f4xx_hal_uart.h"
 514              		.file 12 "Drivers/STM32F4xx_HAL_Driver/Inc/stm32f4xx_hal.h"
 515              		.file 13 "c:\\gnu_tools_arm_embedded\\arm-none-eabi\\include\\sys\\lock.h"
 516              		.file 14 "c:\\gnu_tools_arm_embedded\\arm-none-eabi\\include\\sys\\_types.h"
 517              		.file 15 "c:\\gnu_tools_arm_embedded\\arm-none-eabi\\include\\sys\\reent.h"
 518              		.file 16 "Modules/include/utils/utils.h"
 519              		.file 17 "Inc/usart.h"
 520              		.file 18 "Middlewares/Third_Party/FreeRTOS/Source/portable/GCC/ARM_CM4F/portmacro.h"
ARM GAS  C:\Users\luoha\AppData\Local\Temp\ccHsUPVU.s 			page 13


 521              		.file 19 "Middlewares/Third_Party/FreeRTOS/Source/include/FreeRTOS.h"
 522              		.file 20 "Middlewares/Third_Party/FreeRTOS/Source/include/queue.h"
 523              		.file 21 "Modules/include/usart_com.h"
ARM GAS  C:\Users\luoha\AppData\Local\Temp\ccHsUPVU.s 			page 14


DEFINED SYMBOLS
                            *ABS*:00000000 usart_com.c
C:\Users\luoha\AppData\Local\Temp\ccHsUPVU.s:18     .text.UartRxCheck:00000000 $t
C:\Users\luoha\AppData\Local\Temp\ccHsUPVU.s:25     .text.UartRxCheck:00000000 UartRxCheck
C:\Users\luoha\AppData\Local\Temp\ccHsUPVU.s:174    .text.UartRxCheck:00000090 $d
                            *COM*:00000004 usart2_queue
C:\Users\luoha\AppData\Local\Temp\ccHsUPVU.s:183    .text.UsartInit:00000000 $t
C:\Users\luoha\AppData\Local\Temp\ccHsUPVU.s:190    .text.UsartInit:00000000 UsartInit
C:\Users\luoha\AppData\Local\Temp\ccHsUPVU.s:236    .text.UsartInit:00000034 $d
C:\Users\luoha\AppData\Local\Temp\ccHsUPVU.s:245    .text.USART2_IRQHandler:00000000 $t
C:\Users\luoha\AppData\Local\Temp\ccHsUPVU.s:252    .text.USART2_IRQHandler:00000000 USART2_IRQHandler
C:\Users\luoha\AppData\Local\Temp\ccHsUPVU.s:311    .text.USART2_IRQHandler:00000030 $d
C:\Users\luoha\AppData\Local\Temp\ccHsUPVU.s:316    .text.DMA1_Stream5_IRQHandler:00000000 $t
C:\Users\luoha\AppData\Local\Temp\ccHsUPVU.s:323    .text.DMA1_Stream5_IRQHandler:00000000 DMA1_Stream5_IRQHandler
C:\Users\luoha\AppData\Local\Temp\ccHsUPVU.s:344    .text.DMA1_Stream5_IRQHandler:0000000c $d
C:\Users\luoha\AppData\Local\Temp\ccHsUPVU.s:349    .text.DMA1_Stream6_IRQHandler:00000000 $t
C:\Users\luoha\AppData\Local\Temp\ccHsUPVU.s:356    .text.DMA1_Stream6_IRQHandler:00000000 DMA1_Stream6_IRQHandler
C:\Users\luoha\AppData\Local\Temp\ccHsUPVU.s:377    .text.DMA1_Stream6_IRQHandler:0000000c $d
C:\Users\luoha\AppData\Local\Temp\ccHsUPVU.s:382    .text.HAL_UART_RxCpltCallback:00000000 $t
C:\Users\luoha\AppData\Local\Temp\ccHsUPVU.s:389    .text.HAL_UART_RxCpltCallback:00000000 HAL_UART_RxCpltCallback
C:\Users\luoha\AppData\Local\Temp\ccHsUPVU.s:423    .text.HAL_UART_RxCpltCallback:00000014 $d
C:\Users\luoha\AppData\Local\Temp\ccHsUPVU.s:428    .text.HAL_UART_RxHalfCpltCallback:00000000 $t
C:\Users\luoha\AppData\Local\Temp\ccHsUPVU.s:435    .text.HAL_UART_RxHalfCpltCallback:00000000 HAL_UART_RxHalfCpltCallback
C:\Users\luoha\AppData\Local\Temp\ccHsUPVU.s:469    .text.HAL_UART_RxHalfCpltCallback:00000014 $d
C:\Users\luoha\AppData\Local\Temp\ccHsUPVU.s:475    .bss.old_pos.10021:00000000 $d
C:\Users\luoha\AppData\Local\Temp\ccHsUPVU.s:479    .bss.old_pos.10021:00000000 old_pos.10021
C:\Users\luoha\AppData\Local\Temp\ccHsUPVU.s:482    .bss.osSys_usart2_queueMgm:00000000 $d
C:\Users\luoha\AppData\Local\Temp\ccHsUPVU.s:486    .bss.osSys_usart2_queueMgm:00000000 osSys_usart2_queueMgm
C:\Users\luoha\AppData\Local\Temp\ccHsUPVU.s:489    .bss.osSys_usart2_queueStorage:00000000 $d
C:\Users\luoha\AppData\Local\Temp\ccHsUPVU.s:493    .bss.osSys_usart2_queueStorage:00000000 osSys_usart2_queueStorage
C:\Users\luoha\AppData\Local\Temp\ccHsUPVU.s:496    .bss.rx_buffer:00000000 $d
C:\Users\luoha\AppData\Local\Temp\ccHsUPVU.s:500    .bss.rx_buffer:00000000 rx_buffer

UNDEFINED SYMBOLS
xQueueGenericSendFromISR
huart2
xQueueGenericCreateStatic
HAL_UART_Receive_DMA
HAL_UART_IRQHandler
HAL_DMA_IRQHandler
