ARM GAS  C:\Users\luoha\AppData\Local\Temp\cceXG0re.s 			page 1


   1              		.cpu cortex-m4
   2              		.eabi_attribute 27, 1
   3              		.eabi_attribute 28, 1
   4              		.eabi_attribute 20, 1
   5              		.eabi_attribute 21, 1
   6              		.eabi_attribute 23, 3
   7              		.eabi_attribute 24, 1
   8              		.eabi_attribute 25, 1
   9              		.eabi_attribute 26, 1
  10              		.eabi_attribute 30, 1
  11              		.eabi_attribute 34, 1
  12              		.eabi_attribute 18, 4
  13              		.file	"usart_com.c"
  14              		.text
  15              	.Ltext0:
  16              		.cfi_sections	.debug_frame
  17              		.section	.text.UartRxCheck,"ax",%progbits
  18              		.align	1
  19              		.arch armv7e-m
  20              		.syntax unified
  21              		.thumb
  22              		.thumb_func
  23              		.fpu fpv4-sp-d16
  25              	UartRxCheck:
  26              	.LFB145:
  27              		.file 1 "Modules/src/usart_com.c"
   1:Modules/src/usart_com.c **** #include "usart_com.h"
   2:Modules/src/usart_com.c **** 
   3:Modules/src/usart_com.c **** static uint8_t rx_buffer[RX_BUFFER_SIZE];
   4:Modules/src/usart_com.c **** 
   5:Modules/src/usart_com.c **** xQueueHandle usart2_queue;
   6:Modules/src/usart_com.c **** STATIC_MEM_QUEUE_ALLOC(usart2_queue, 5, sizeof(usart2_queue_buffer));
   7:Modules/src/usart_com.c **** 
   8:Modules/src/usart_com.c **** static void UartRxCheck(void);
   9:Modules/src/usart_com.c **** 
  10:Modules/src/usart_com.c **** #ifdef USE_SISTEMVEIW
  11:Modules/src/usart_com.c **** TaskHandle_t system_view_notify = NULL;
  12:Modules/src/usart_com.c **** #endif 
  13:Modules/src/usart_com.c **** 
  14:Modules/src/usart_com.c **** 
  15:Modules/src/usart_com.c **** void UsartInit(void) {
  16:Modules/src/usart_com.c ****     usart2_queue = STATIC_MEM_QUEUE_CREATE(usart2_queue);
  17:Modules/src/usart_com.c **** 
  18:Modules/src/usart_com.c ****     //使能IDLE中断
  19:Modules/src/usart_com.c ****     __HAL_UART_ENABLE_IT(&huart2, UART_IT_IDLE);
  20:Modules/src/usart_com.c ****     //使能接收中断
  21:Modules/src/usart_com.c ****     HAL_UART_Receive_DMA(&huart2, rx_buffer, RX_BUFFER_SIZE);
  22:Modules/src/usart_com.c **** }
  23:Modules/src/usart_com.c **** 
  24:Modules/src/usart_com.c **** void USART2_IRQHandler(void) {
  25:Modules/src/usart_com.c ****     // printf("UART4_IRQHandler\r\n");
  26:Modules/src/usart_com.c ****     if (__HAL_UART_GET_FLAG(&huart2, UART_FLAG_IDLE) != RESET) {
  27:Modules/src/usart_com.c ****         __HAL_UART_CLEAR_IDLEFLAG(&huart2);
  28:Modules/src/usart_com.c ****         UartRxCheck();
  29:Modules/src/usart_com.c ****     } else {
  30:Modules/src/usart_com.c ****         HAL_UART_IRQHandler(&huart2);
  31:Modules/src/usart_com.c ****     }
ARM GAS  C:\Users\luoha\AppData\Local\Temp\cceXG0re.s 			page 2


  32:Modules/src/usart_com.c **** }
  33:Modules/src/usart_com.c **** 
  34:Modules/src/usart_com.c **** void DMA1_Stream5_IRQHandler(void) {
  35:Modules/src/usart_com.c ****     // printf("DMA1_Stream2_IRQHandler\r\n");
  36:Modules/src/usart_com.c ****     HAL_DMA_IRQHandler(huart2.hdmarx);
  37:Modules/src/usart_com.c **** }
  38:Modules/src/usart_com.c **** 
  39:Modules/src/usart_com.c **** void DMA1_Stream6_IRQHandler(void) {
  40:Modules/src/usart_com.c ****     // printf("DMA1_Stream4_IRQHandler\r\n");
  41:Modules/src/usart_com.c ****     HAL_DMA_IRQHandler(huart2.hdmatx);
  42:Modules/src/usart_com.c **** }
  43:Modules/src/usart_com.c **** 
  44:Modules/src/usart_com.c **** void HAL_UART_RxCpltCallback(UART_HandleTypeDef *huart) {
  45:Modules/src/usart_com.c ****     if (huart->Instance == USART2) {
  46:Modules/src/usart_com.c ****         UartRxCheck();
  47:Modules/src/usart_com.c ****     }
  48:Modules/src/usart_com.c **** #ifdef USE_SISTEMVEIW
  49:Modules/src/usart_com.c ****     else if (huart->Instance == USART1) {
  50:Modules/src/usart_com.c ****         BaseType_t higher_woken = pdFALSE;
  51:Modules/src/usart_com.c ****         xTaskNotifyFromISR(system_view_notify, 0x01, eSetBits, &higher_woken);
  52:Modules/src/usart_com.c ****         portYIELD_FROM_ISR(higher_woken);
  53:Modules/src/usart_com.c ****     }
  54:Modules/src/usart_com.c **** #endif 
  55:Modules/src/usart_com.c **** }
  56:Modules/src/usart_com.c **** 
  57:Modules/src/usart_com.c **** void HAL_UART_RxHalfCpltCallback(UART_HandleTypeDef *huart) {
  58:Modules/src/usart_com.c ****     if (huart->Instance == USART2) {
  59:Modules/src/usart_com.c ****         UartRxCheck();
  60:Modules/src/usart_com.c ****     }
  61:Modules/src/usart_com.c **** }
  62:Modules/src/usart_com.c **** 
  63:Modules/src/usart_com.c **** #ifdef USE_SISTEMVEIW
  64:Modules/src/usart_com.c **** void HAL_UART_TxCpltCallback(UART_HandleTypeDef *huart) {
  65:Modules/src/usart_com.c ****     if (huart->Instance == USART1) {
  66:Modules/src/usart_com.c ****         BaseType_t higher_woken = pdFALSE;
  67:Modules/src/usart_com.c ****         xTaskNotifyFromISR(system_view_notify, 0x02, eSetBits, &higher_woken);
  68:Modules/src/usart_com.c ****         portYIELD_FROM_ISR(higher_woken);
  69:Modules/src/usart_com.c ****         // uint8_t buffer[] = "HAL_UART_TxCpltCallback\r\n";
  70:Modules/src/usart_com.c ****         // HAL_UART_Transmit_DMA(&huart1, buffer, sizeof(buffer));
  71:Modules/src/usart_com.c ****     }
  72:Modules/src/usart_com.c **** }
  73:Modules/src/usart_com.c **** #endif 
  74:Modules/src/usart_com.c **** 
  75:Modules/src/usart_com.c **** static void UartRxCheck(void) {
  28              		.loc 1 75 31 view -0
  29              		.cfi_startproc
  30              		@ args = 0, pretend = 0, frame = 16
  31              		@ frame_needed = 0, uses_anonymous_args = 0
  32 0000 10B5     		push	{r4, lr}
  33              	.LCFI0:
  34              		.cfi_def_cfa_offset 8
  35              		.cfi_offset 4, -8
  36              		.cfi_offset 14, -4
  37 0002 84B0     		sub	sp, sp, #16
  38              	.LCFI1:
  39              		.cfi_def_cfa_offset 24
  76:Modules/src/usart_com.c ****     static size_t old_pos;
ARM GAS  C:\Users\luoha\AppData\Local\Temp\cceXG0re.s 			page 3


  40              		.loc 1 76 5 view .LVU1
  77:Modules/src/usart_com.c ****     size_t pos;
  41              		.loc 1 77 5 view .LVU2
  78:Modules/src/usart_com.c ****     usart2_queue_buffer buffer;
  42              		.loc 1 78 5 view .LVU3
  79:Modules/src/usart_com.c ****     portBASE_TYPE xHigherPriorityTaskWoken = pdFALSE;
  43              		.loc 1 79 5 view .LVU4
  44              		.loc 1 79 19 is_stmt 0 view .LVU5
  45 0004 0023     		movs	r3, #0
  46 0006 0193     		str	r3, [sp, #4]
  80:Modules/src/usart_com.c **** 
  81:Modules/src/usart_com.c ****     /* Calculate current position in buffer */
  82:Modules/src/usart_com.c ****     pos = RX_BUFFER_SIZE - __HAL_DMA_GET_COUNTER(huart2.hdmarx);
  47              		.loc 1 82 5 is_stmt 1 view .LVU6
  48              		.loc 1 82 28 is_stmt 0 view .LVU7
  49 0008 244B     		ldr	r3, .L9
  50 000a 9B6B     		ldr	r3, [r3, #56]
  51 000c 1B68     		ldr	r3, [r3]
  52 000e 5C68     		ldr	r4, [r3, #4]
  53              		.loc 1 82 9 view .LVU8
  54 0010 C4F18004 		rsb	r4, r4, #128
  55              	.LVL0:
  83:Modules/src/usart_com.c **** 
  84:Modules/src/usart_com.c ****     // printf("%u\r\n", pos);
  85:Modules/src/usart_com.c **** 
  86:Modules/src/usart_com.c ****     if (pos != old_pos) {    /* Check change in received data */
  56              		.loc 1 86 5 is_stmt 1 view .LVU9
  57              		.loc 1 86 13 is_stmt 0 view .LVU10
  58 0014 224B     		ldr	r3, .L9+4
  59 0016 1B68     		ldr	r3, [r3]
  60              		.loc 1 86 8 view .LVU11
  61 0018 A342     		cmp	r3, r4
  62 001a 0CD0     		beq	.L2
  87:Modules/src/usart_com.c ****         if (pos > old_pos) { /* Current position is over previous one */
  63              		.loc 1 87 9 is_stmt 1 view .LVU12
  64              		.loc 1 87 12 is_stmt 0 view .LVU13
  65 001c 1DD2     		bcs	.L3
  88:Modules/src/usart_com.c ****             /* We are in "linear" mode */
  89:Modules/src/usart_com.c ****             /* Process data directly by subtracting "pointers" */
  90:Modules/src/usart_com.c ****             buffer.addr   = &rx_buffer[old_pos];
  66              		.loc 1 90 13 is_stmt 1 view .LVU14
  67              		.loc 1 90 29 is_stmt 0 view .LVU15
  68 001e 214A     		ldr	r2, .L9+8
  69 0020 1A44     		add	r2, r2, r3
  70              		.loc 1 90 27 view .LVU16
  71 0022 0392     		str	r2, [sp, #12]
  91:Modules/src/usart_com.c ****             buffer.length = pos - old_pos;
  72              		.loc 1 91 13 is_stmt 1 view .LVU17
  73              		.loc 1 91 33 is_stmt 0 view .LVU18
  74 0024 E31A     		subs	r3, r4, r3
  75              		.loc 1 91 27 view .LVU19
  76 0026 0293     		str	r3, [sp, #8]
  92:Modules/src/usart_com.c ****             xQueueSendFromISR(usart2_queue, &buffer, &xHigherPriorityTaskWoken);
  77              		.loc 1 92 13 is_stmt 1 view .LVU20
  78 0028 0023     		movs	r3, #0
  79 002a 01AA     		add	r2, sp, #4
  80 002c 02A9     		add	r1, sp, #8
ARM GAS  C:\Users\luoha\AppData\Local\Temp\cceXG0re.s 			page 4


  81 002e 1E48     		ldr	r0, .L9+12
  82 0030 0068     		ldr	r0, [r0]
  83 0032 FFF7FEFF 		bl	xQueueGenericSendFromISR
  84              	.LVL1:
  85              	.L2:
  93:Modules/src/usart_com.c ****         } else {
  94:Modules/src/usart_com.c ****             /* We are in "overflow" mode */
  95:Modules/src/usart_com.c ****             /* First process data to the end of buffer */
  96:Modules/src/usart_com.c ****             buffer.addr   = &rx_buffer[old_pos];
  97:Modules/src/usart_com.c ****             buffer.length = RX_BUFFER_SIZE - old_pos;
  98:Modules/src/usart_com.c ****             xQueueSendFromISR(usart2_queue, &buffer, &xHigherPriorityTaskWoken);
  99:Modules/src/usart_com.c ****             /* Check and continue with beginning of buffer */
 100:Modules/src/usart_com.c ****             if (pos > 0) {
 101:Modules/src/usart_com.c ****                 buffer.addr   = &rx_buffer[0];
 102:Modules/src/usart_com.c ****                 buffer.length = pos;
 103:Modules/src/usart_com.c ****                 xQueueSendFromISR(usart2_queue, &buffer, &xHigherPriorityTaskWoken);
 104:Modules/src/usart_com.c ****             }
 105:Modules/src/usart_com.c ****         }
 106:Modules/src/usart_com.c ****     }
 107:Modules/src/usart_com.c ****     old_pos = pos; /* Save current position as old */
  86              		.loc 1 107 5 view .LVU21
  87              		.loc 1 107 13 is_stmt 0 view .LVU22
  88 0036 1A4B     		ldr	r3, .L9+4
  89 0038 1C60     		str	r4, [r3]
 108:Modules/src/usart_com.c **** 
 109:Modules/src/usart_com.c ****     /* Check and manually update if we reached end of buffer */
 110:Modules/src/usart_com.c ****     if (old_pos == RX_BUFFER_SIZE) {
  90              		.loc 1 110 5 is_stmt 1 view .LVU23
  91              		.loc 1 110 8 is_stmt 0 view .LVU24
  92 003a 802C     		cmp	r4, #128
  93 003c 27D0     		beq	.L8
  94              	.L4:
 111:Modules/src/usart_com.c ****         old_pos = 0;
 112:Modules/src/usart_com.c ****     }
 113:Modules/src/usart_com.c **** 
 114:Modules/src/usart_com.c ****     portYIELD_FROM_ISR(xHigherPriorityTaskWoken);
  95              		.loc 1 114 5 is_stmt 1 view .LVU25
  96 003e 019B     		ldr	r3, [sp, #4]
  97 0040 43B3     		cbz	r3, .L5
  98              		.loc 1 114 5 discriminator 1 view .LVU26
  99 0042 FFF7FEFF 		bl	SEGGER_SYSVIEW_RecordExitISRToScheduler
 100              	.LVL2:
 101              		.loc 1 114 5 discriminator 1 view .LVU27
 102 0046 194B     		ldr	r3, .L9+16
 103 0048 4FF08052 		mov	r2, #268435456
 104 004c 1A60     		str	r2, [r3]
 105              		.loc 1 114 5 discriminator 1 view .LVU28
 106              		.syntax unified
 107              	@ 114 "Modules/src/usart_com.c" 1
 108 004e BFF34F8F 		dsb
 109              	@ 0 "" 2
 110              		.loc 1 114 5 discriminator 1 view .LVU29
 111              	@ 114 "Modules/src/usart_com.c" 1
 112 0052 BFF36F8F 		isb
 113              	@ 0 "" 2
 114              		.loc 1 114 5 discriminator 1 view .LVU30
 115              		.thumb
ARM GAS  C:\Users\luoha\AppData\Local\Temp\cceXG0re.s 			page 5


 116              		.syntax unified
 117              	.L1:
 115:Modules/src/usart_com.c **** }
 118              		.loc 1 115 1 is_stmt 0 view .LVU31
 119 0056 04B0     		add	sp, sp, #16
 120              	.LCFI2:
 121              		.cfi_remember_state
 122              		.cfi_def_cfa_offset 8
 123              		@ sp needed
 124 0058 10BD     		pop	{r4, pc}
 125              	.LVL3:
 126              	.L3:
 127              	.LCFI3:
 128              		.cfi_restore_state
  96:Modules/src/usart_com.c ****             buffer.length = RX_BUFFER_SIZE - old_pos;
 129              		.loc 1 96 13 is_stmt 1 view .LVU32
  96:Modules/src/usart_com.c ****             buffer.length = RX_BUFFER_SIZE - old_pos;
 130              		.loc 1 96 29 is_stmt 0 view .LVU33
 131 005a 124A     		ldr	r2, .L9+8
 132 005c 1A44     		add	r2, r2, r3
  96:Modules/src/usart_com.c ****             buffer.length = RX_BUFFER_SIZE - old_pos;
 133              		.loc 1 96 27 view .LVU34
 134 005e 0392     		str	r2, [sp, #12]
  97:Modules/src/usart_com.c ****             xQueueSendFromISR(usart2_queue, &buffer, &xHigherPriorityTaskWoken);
 135              		.loc 1 97 13 is_stmt 1 view .LVU35
  97:Modules/src/usart_com.c ****             xQueueSendFromISR(usart2_queue, &buffer, &xHigherPriorityTaskWoken);
 136              		.loc 1 97 44 is_stmt 0 view .LVU36
 137 0060 C3F18003 		rsb	r3, r3, #128
  97:Modules/src/usart_com.c ****             xQueueSendFromISR(usart2_queue, &buffer, &xHigherPriorityTaskWoken);
 138              		.loc 1 97 27 view .LVU37
 139 0064 0293     		str	r3, [sp, #8]
  98:Modules/src/usart_com.c ****             /* Check and continue with beginning of buffer */
 140              		.loc 1 98 13 is_stmt 1 view .LVU38
 141 0066 0023     		movs	r3, #0
 142 0068 01AA     		add	r2, sp, #4
 143 006a 02A9     		add	r1, sp, #8
 144 006c 0E48     		ldr	r0, .L9+12
 145 006e 0068     		ldr	r0, [r0]
 146 0070 FFF7FEFF 		bl	xQueueGenericSendFromISR
 147              	.LVL4:
 100:Modules/src/usart_com.c ****                 buffer.addr   = &rx_buffer[0];
 148              		.loc 1 100 13 view .LVU39
 100:Modules/src/usart_com.c ****                 buffer.addr   = &rx_buffer[0];
 149              		.loc 1 100 16 is_stmt 0 view .LVU40
 150 0074 002C     		cmp	r4, #0
 151 0076 DED0     		beq	.L2
 101:Modules/src/usart_com.c ****                 buffer.length = pos;
 152              		.loc 1 101 17 is_stmt 1 view .LVU41
 101:Modules/src/usart_com.c ****                 buffer.length = pos;
 153              		.loc 1 101 31 is_stmt 0 view .LVU42
 154 0078 0A4B     		ldr	r3, .L9+8
 155 007a 0393     		str	r3, [sp, #12]
 102:Modules/src/usart_com.c ****                 xQueueSendFromISR(usart2_queue, &buffer, &xHigherPriorityTaskWoken);
 156              		.loc 1 102 17 is_stmt 1 view .LVU43
 102:Modules/src/usart_com.c ****                 xQueueSendFromISR(usart2_queue, &buffer, &xHigherPriorityTaskWoken);
 157              		.loc 1 102 31 is_stmt 0 view .LVU44
 158 007c 0294     		str	r4, [sp, #8]
ARM GAS  C:\Users\luoha\AppData\Local\Temp\cceXG0re.s 			page 6


 103:Modules/src/usart_com.c ****             }
 159              		.loc 1 103 17 is_stmt 1 view .LVU45
 160 007e 0023     		movs	r3, #0
 161 0080 01AA     		add	r2, sp, #4
 162 0082 02A9     		add	r1, sp, #8
 163 0084 0848     		ldr	r0, .L9+12
 164 0086 0068     		ldr	r0, [r0]
 165 0088 FFF7FEFF 		bl	xQueueGenericSendFromISR
 166              	.LVL5:
 167 008c D3E7     		b	.L2
 168              	.L8:
 111:Modules/src/usart_com.c ****     }
 169              		.loc 1 111 9 view .LVU46
 111:Modules/src/usart_com.c ****     }
 170              		.loc 1 111 17 is_stmt 0 view .LVU47
 171 008e 0022     		movs	r2, #0
 172 0090 1A60     		str	r2, [r3]
 173 0092 D4E7     		b	.L4
 174              	.L5:
 114:Modules/src/usart_com.c **** }
 175              		.loc 1 114 5 is_stmt 1 discriminator 2 view .LVU48
 176 0094 FFF7FEFF 		bl	SEGGER_SYSVIEW_RecordExitISR
 177              	.LVL6:
 114:Modules/src/usart_com.c **** }
 178              		.loc 1 114 49 discriminator 2 view .LVU49
 179              		.loc 1 115 1 is_stmt 0 discriminator 2 view .LVU50
 180 0098 DDE7     		b	.L1
 181              	.L10:
 182 009a 00BF     		.align	2
 183              	.L9:
 184 009c 00000000 		.word	huart2
 185 00a0 00000000 		.word	.LANCHOR0
 186 00a4 00000000 		.word	.LANCHOR1
 187 00a8 00000000 		.word	usart2_queue
 188 00ac 04ED00E0 		.word	-536810236
 189              		.cfi_endproc
 190              	.LFE145:
 192              		.section	.text.UsartInit,"ax",%progbits
 193              		.align	1
 194              		.global	UsartInit
 195              		.syntax unified
 196              		.thumb
 197              		.thumb_func
 198              		.fpu fpv4-sp-d16
 200              	UsartInit:
 201              	.LFB138:
  15:Modules/src/usart_com.c ****     usart2_queue = STATIC_MEM_QUEUE_CREATE(usart2_queue);
 202              		.loc 1 15 22 is_stmt 1 view -0
 203              		.cfi_startproc
 204              		@ args = 0, pretend = 0, frame = 0
 205              		@ frame_needed = 0, uses_anonymous_args = 0
 206 0000 00B5     		push	{lr}
 207              	.LCFI4:
 208              		.cfi_def_cfa_offset 4
 209              		.cfi_offset 14, -4
 210 0002 83B0     		sub	sp, sp, #12
 211              	.LCFI5:
ARM GAS  C:\Users\luoha\AppData\Local\Temp\cceXG0re.s 			page 7


 212              		.cfi_def_cfa_offset 16
  16:Modules/src/usart_com.c **** 
 213              		.loc 1 16 5 view .LVU52
  16:Modules/src/usart_com.c **** 
 214              		.loc 1 16 20 is_stmt 0 view .LVU53
 215 0004 0023     		movs	r3, #0
 216 0006 0093     		str	r3, [sp]
 217 0008 0A4B     		ldr	r3, .L13
 218 000a 0B4A     		ldr	r2, .L13+4
 219 000c 0821     		movs	r1, #8
 220 000e 0520     		movs	r0, #5
 221 0010 FFF7FEFF 		bl	xQueueGenericCreateStatic
 222              	.LVL7:
  16:Modules/src/usart_com.c **** 
 223              		.loc 1 16 18 view .LVU54
 224 0014 094B     		ldr	r3, .L13+8
 225 0016 1860     		str	r0, [r3]
  19:Modules/src/usart_com.c ****     //使能接收中断
 226              		.loc 1 19 5 is_stmt 1 view .LVU55
 227 0018 0948     		ldr	r0, .L13+12
 228 001a 0268     		ldr	r2, [r0]
 229 001c D368     		ldr	r3, [r2, #12]
 230 001e 43F01003 		orr	r3, r3, #16
 231 0022 D360     		str	r3, [r2, #12]
  21:Modules/src/usart_com.c **** }
 232              		.loc 1 21 5 view .LVU56
 233 0024 8022     		movs	r2, #128
 234 0026 0749     		ldr	r1, .L13+16
 235 0028 FFF7FEFF 		bl	HAL_UART_Receive_DMA
 236              	.LVL8:
  22:Modules/src/usart_com.c **** 
 237              		.loc 1 22 1 is_stmt 0 view .LVU57
 238 002c 03B0     		add	sp, sp, #12
 239              	.LCFI6:
 240              		.cfi_def_cfa_offset 4
 241              		@ sp needed
 242 002e 5DF804FB 		ldr	pc, [sp], #4
 243              	.L14:
 244 0032 00BF     		.align	2
 245              	.L13:
 246 0034 00000000 		.word	.LANCHOR2
 247 0038 00000000 		.word	.LANCHOR3
 248 003c 00000000 		.word	usart2_queue
 249 0040 00000000 		.word	huart2
 250 0044 00000000 		.word	.LANCHOR1
 251              		.cfi_endproc
 252              	.LFE138:
 254              		.section	.text.USART2_IRQHandler,"ax",%progbits
 255              		.align	1
 256              		.global	USART2_IRQHandler
 257              		.syntax unified
 258              		.thumb
 259              		.thumb_func
 260              		.fpu fpv4-sp-d16
 262              	USART2_IRQHandler:
 263              	.LFB139:
  24:Modules/src/usart_com.c ****     // printf("UART4_IRQHandler\r\n");
ARM GAS  C:\Users\luoha\AppData\Local\Temp\cceXG0re.s 			page 8


 264              		.loc 1 24 30 is_stmt 1 view -0
 265              		.cfi_startproc
 266              		@ args = 0, pretend = 0, frame = 8
 267              		@ frame_needed = 0, uses_anonymous_args = 0
 268 0000 00B5     		push	{lr}
 269              	.LCFI7:
 270              		.cfi_def_cfa_offset 4
 271              		.cfi_offset 14, -4
 272 0002 83B0     		sub	sp, sp, #12
 273              	.LCFI8:
 274              		.cfi_def_cfa_offset 16
  26:Modules/src/usart_com.c ****         __HAL_UART_CLEAR_IDLEFLAG(&huart2);
 275              		.loc 1 26 5 view .LVU59
  26:Modules/src/usart_com.c ****         __HAL_UART_CLEAR_IDLEFLAG(&huart2);
 276              		.loc 1 26 9 is_stmt 0 view .LVU60
 277 0004 0A4B     		ldr	r3, .L19
 278 0006 1B68     		ldr	r3, [r3]
 279 0008 1A68     		ldr	r2, [r3]
  26:Modules/src/usart_com.c ****         __HAL_UART_CLEAR_IDLEFLAG(&huart2);
 280              		.loc 1 26 8 view .LVU61
 281 000a 12F0100F 		tst	r2, #16
 282 000e 0BD0     		beq	.L16
  27:Modules/src/usart_com.c ****         UartRxCheck();
 283              		.loc 1 27 9 is_stmt 1 view .LVU62
 284              	.LBB2:
  27:Modules/src/usart_com.c ****         UartRxCheck();
 285              		.loc 1 27 9 view .LVU63
 286 0010 0022     		movs	r2, #0
 287 0012 0192     		str	r2, [sp, #4]
  27:Modules/src/usart_com.c ****         UartRxCheck();
 288              		.loc 1 27 9 view .LVU64
 289 0014 1A68     		ldr	r2, [r3]
 290 0016 0192     		str	r2, [sp, #4]
  27:Modules/src/usart_com.c ****         UartRxCheck();
 291              		.loc 1 27 9 view .LVU65
 292 0018 5B68     		ldr	r3, [r3, #4]
 293 001a 0193     		str	r3, [sp, #4]
  27:Modules/src/usart_com.c ****         UartRxCheck();
 294              		.loc 1 27 9 view .LVU66
 295 001c 019B     		ldr	r3, [sp, #4]
 296              	.LBE2:
  27:Modules/src/usart_com.c ****         UartRxCheck();
 297              		.loc 1 27 9 view .LVU67
  28:Modules/src/usart_com.c ****     } else {
 298              		.loc 1 28 9 view .LVU68
 299 001e FFF7FEFF 		bl	UartRxCheck
 300              	.LVL9:
 301              	.L15:
  32:Modules/src/usart_com.c **** 
 302              		.loc 1 32 1 is_stmt 0 view .LVU69
 303 0022 03B0     		add	sp, sp, #12
 304              	.LCFI9:
 305              		.cfi_remember_state
 306              		.cfi_def_cfa_offset 4
 307              		@ sp needed
 308 0024 5DF804FB 		ldr	pc, [sp], #4
 309              	.L16:
ARM GAS  C:\Users\luoha\AppData\Local\Temp\cceXG0re.s 			page 9


 310              	.LCFI10:
 311              		.cfi_restore_state
  30:Modules/src/usart_com.c ****     }
 312              		.loc 1 30 9 is_stmt 1 view .LVU70
 313 0028 0148     		ldr	r0, .L19
 314 002a FFF7FEFF 		bl	HAL_UART_IRQHandler
 315              	.LVL10:
  32:Modules/src/usart_com.c **** 
 316              		.loc 1 32 1 is_stmt 0 view .LVU71
 317 002e F8E7     		b	.L15
 318              	.L20:
 319              		.align	2
 320              	.L19:
 321 0030 00000000 		.word	huart2
 322              		.cfi_endproc
 323              	.LFE139:
 325              		.section	.text.DMA1_Stream5_IRQHandler,"ax",%progbits
 326              		.align	1
 327              		.global	DMA1_Stream5_IRQHandler
 328              		.syntax unified
 329              		.thumb
 330              		.thumb_func
 331              		.fpu fpv4-sp-d16
 333              	DMA1_Stream5_IRQHandler:
 334              	.LFB140:
  34:Modules/src/usart_com.c ****     // printf("DMA1_Stream2_IRQHandler\r\n");
 335              		.loc 1 34 36 is_stmt 1 view -0
 336              		.cfi_startproc
 337              		@ args = 0, pretend = 0, frame = 0
 338              		@ frame_needed = 0, uses_anonymous_args = 0
 339 0000 08B5     		push	{r3, lr}
 340              	.LCFI11:
 341              		.cfi_def_cfa_offset 8
 342              		.cfi_offset 3, -8
 343              		.cfi_offset 14, -4
  36:Modules/src/usart_com.c **** }
 344              		.loc 1 36 5 view .LVU73
 345 0002 024B     		ldr	r3, .L23
 346 0004 986B     		ldr	r0, [r3, #56]
 347 0006 FFF7FEFF 		bl	HAL_DMA_IRQHandler
 348              	.LVL11:
  37:Modules/src/usart_com.c **** 
 349              		.loc 1 37 1 is_stmt 0 view .LVU74
 350 000a 08BD     		pop	{r3, pc}
 351              	.L24:
 352              		.align	2
 353              	.L23:
 354 000c 00000000 		.word	huart2
 355              		.cfi_endproc
 356              	.LFE140:
 358              		.section	.text.DMA1_Stream6_IRQHandler,"ax",%progbits
 359              		.align	1
 360              		.global	DMA1_Stream6_IRQHandler
 361              		.syntax unified
 362              		.thumb
 363              		.thumb_func
 364              		.fpu fpv4-sp-d16
ARM GAS  C:\Users\luoha\AppData\Local\Temp\cceXG0re.s 			page 10


 366              	DMA1_Stream6_IRQHandler:
 367              	.LFB141:
  39:Modules/src/usart_com.c ****     // printf("DMA1_Stream4_IRQHandler\r\n");
 368              		.loc 1 39 36 is_stmt 1 view -0
 369              		.cfi_startproc
 370              		@ args = 0, pretend = 0, frame = 0
 371              		@ frame_needed = 0, uses_anonymous_args = 0
 372 0000 08B5     		push	{r3, lr}
 373              	.LCFI12:
 374              		.cfi_def_cfa_offset 8
 375              		.cfi_offset 3, -8
 376              		.cfi_offset 14, -4
  41:Modules/src/usart_com.c **** }
 377              		.loc 1 41 5 view .LVU76
 378 0002 024B     		ldr	r3, .L27
 379 0004 586B     		ldr	r0, [r3, #52]
 380 0006 FFF7FEFF 		bl	HAL_DMA_IRQHandler
 381              	.LVL12:
  42:Modules/src/usart_com.c **** 
 382              		.loc 1 42 1 is_stmt 0 view .LVU77
 383 000a 08BD     		pop	{r3, pc}
 384              	.L28:
 385              		.align	2
 386              	.L27:
 387 000c 00000000 		.word	huart2
 388              		.cfi_endproc
 389              	.LFE141:
 391              		.section	.text.HAL_UART_RxCpltCallback,"ax",%progbits
 392              		.align	1
 393              		.global	HAL_UART_RxCpltCallback
 394              		.syntax unified
 395              		.thumb
 396              		.thumb_func
 397              		.fpu fpv4-sp-d16
 399              	HAL_UART_RxCpltCallback:
 400              	.LVL13:
 401              	.LFB142:
  44:Modules/src/usart_com.c ****     if (huart->Instance == USART2) {
 402              		.loc 1 44 57 is_stmt 1 view -0
 403              		.cfi_startproc
 404              		@ args = 0, pretend = 0, frame = 8
 405              		@ frame_needed = 0, uses_anonymous_args = 0
  44:Modules/src/usart_com.c ****     if (huart->Instance == USART2) {
 406              		.loc 1 44 57 is_stmt 0 view .LVU79
 407 0000 00B5     		push	{lr}
 408              	.LCFI13:
 409              		.cfi_def_cfa_offset 4
 410              		.cfi_offset 14, -4
 411 0002 85B0     		sub	sp, sp, #20
 412              	.LCFI14:
 413              		.cfi_def_cfa_offset 24
  45:Modules/src/usart_com.c ****         UartRxCheck();
 414              		.loc 1 45 5 is_stmt 1 view .LVU80
  45:Modules/src/usart_com.c ****         UartRxCheck();
 415              		.loc 1 45 14 is_stmt 0 view .LVU81
 416 0004 0368     		ldr	r3, [r0]
  45:Modules/src/usart_com.c ****         UartRxCheck();
ARM GAS  C:\Users\luoha\AppData\Local\Temp\cceXG0re.s 			page 11


 417              		.loc 1 45 8 view .LVU82
 418 0006 134A     		ldr	r2, .L37
 419 0008 9342     		cmp	r3, r2
 420 000a 05D0     		beq	.L35
  49:Modules/src/usart_com.c ****         BaseType_t higher_woken = pdFALSE;
 421              		.loc 1 49 10 is_stmt 1 view .LVU83
  49:Modules/src/usart_com.c ****         BaseType_t higher_woken = pdFALSE;
 422              		.loc 1 49 13 is_stmt 0 view .LVU84
 423 000c 124A     		ldr	r2, .L37+4
 424 000e 9342     		cmp	r3, r2
 425 0010 05D0     		beq	.L36
 426              	.LVL14:
 427              	.L29:
  55:Modules/src/usart_com.c **** 
 428              		.loc 1 55 1 view .LVU85
 429 0012 05B0     		add	sp, sp, #20
 430              	.LCFI15:
 431              		.cfi_remember_state
 432              		.cfi_def_cfa_offset 4
 433              		@ sp needed
 434 0014 5DF804FB 		ldr	pc, [sp], #4
 435              	.LVL15:
 436              	.L35:
 437              	.LCFI16:
 438              		.cfi_restore_state
  46:Modules/src/usart_com.c ****     }
 439              		.loc 1 46 9 is_stmt 1 view .LVU86
 440 0018 FFF7FEFF 		bl	UartRxCheck
 441              	.LVL16:
  46:Modules/src/usart_com.c ****     }
 442              		.loc 1 46 9 is_stmt 0 view .LVU87
 443 001c F9E7     		b	.L29
 444              	.LVL17:
 445              	.L36:
 446              	.LBB3:
  50:Modules/src/usart_com.c ****         xTaskNotifyFromISR(system_view_notify, 0x01, eSetBits, &higher_woken);
 447              		.loc 1 50 9 is_stmt 1 view .LVU88
  50:Modules/src/usart_com.c ****         xTaskNotifyFromISR(system_view_notify, 0x01, eSetBits, &higher_woken);
 448              		.loc 1 50 20 is_stmt 0 view .LVU89
 449 001e 0023     		movs	r3, #0
 450 0020 0393     		str	r3, [sp, #12]
  51:Modules/src/usart_com.c ****         portYIELD_FROM_ISR(higher_woken);
 451              		.loc 1 51 9 is_stmt 1 view .LVU90
 452 0022 03AA     		add	r2, sp, #12
 453 0024 0092     		str	r2, [sp]
 454 0026 0122     		movs	r2, #1
 455 0028 1146     		mov	r1, r2
 456 002a 0C48     		ldr	r0, .L37+8
 457              	.LVL18:
  51:Modules/src/usart_com.c ****         portYIELD_FROM_ISR(higher_woken);
 458              		.loc 1 51 9 is_stmt 0 view .LVU91
 459 002c 0068     		ldr	r0, [r0]
 460 002e FFF7FEFF 		bl	xTaskGenericNotifyFromISR
 461              	.LVL19:
  52:Modules/src/usart_com.c ****     }
 462              		.loc 1 52 9 is_stmt 1 view .LVU92
 463 0032 039B     		ldr	r3, [sp, #12]
ARM GAS  C:\Users\luoha\AppData\Local\Temp\cceXG0re.s 			page 12


 464 0034 53B1     		cbz	r3, .L32
  52:Modules/src/usart_com.c ****     }
 465              		.loc 1 52 9 discriminator 1 view .LVU93
 466 0036 FFF7FEFF 		bl	SEGGER_SYSVIEW_RecordExitISRToScheduler
 467              	.LVL20:
  52:Modules/src/usart_com.c ****     }
 468              		.loc 1 52 9 discriminator 1 view .LVU94
 469 003a 094B     		ldr	r3, .L37+12
 470 003c 4FF08052 		mov	r2, #268435456
 471 0040 1A60     		str	r2, [r3]
  52:Modules/src/usart_com.c ****     }
 472              		.loc 1 52 9 discriminator 1 view .LVU95
 473              		.syntax unified
 474              	@ 52 "Modules/src/usart_com.c" 1
 475 0042 BFF34F8F 		dsb
 476              	@ 0 "" 2
  52:Modules/src/usart_com.c ****     }
 477              		.loc 1 52 9 discriminator 1 view .LVU96
 478              	@ 52 "Modules/src/usart_com.c" 1
 479 0046 BFF36F8F 		isb
 480              	@ 0 "" 2
  52:Modules/src/usart_com.c ****     }
 481              		.loc 1 52 9 discriminator 1 view .LVU97
 482              		.thumb
 483              		.syntax unified
 484 004a E2E7     		b	.L29
 485              	.L32:
  52:Modules/src/usart_com.c ****     }
 486              		.loc 1 52 9 discriminator 2 view .LVU98
 487 004c FFF7FEFF 		bl	SEGGER_SYSVIEW_RecordExitISR
 488              	.LVL21:
  52:Modules/src/usart_com.c ****     }
 489              		.loc 1 52 41 discriminator 2 view .LVU99
 490              	.LBE3:
  55:Modules/src/usart_com.c **** 
 491              		.loc 1 55 1 is_stmt 0 discriminator 2 view .LVU100
 492 0050 DFE7     		b	.L29
 493              	.L38:
 494 0052 00BF     		.align	2
 495              	.L37:
 496 0054 00440040 		.word	1073759232
 497 0058 00100140 		.word	1073811456
 498 005c 00000000 		.word	.LANCHOR4
 499 0060 04ED00E0 		.word	-536810236
 500              		.cfi_endproc
 501              	.LFE142:
 503              		.section	.text.HAL_UART_RxHalfCpltCallback,"ax",%progbits
 504              		.align	1
 505              		.global	HAL_UART_RxHalfCpltCallback
 506              		.syntax unified
 507              		.thumb
 508              		.thumb_func
 509              		.fpu fpv4-sp-d16
 511              	HAL_UART_RxHalfCpltCallback:
 512              	.LVL22:
 513              	.LFB143:
  57:Modules/src/usart_com.c ****     if (huart->Instance == USART2) {
ARM GAS  C:\Users\luoha\AppData\Local\Temp\cceXG0re.s 			page 13


 514              		.loc 1 57 61 is_stmt 1 view -0
 515              		.cfi_startproc
 516              		@ args = 0, pretend = 0, frame = 0
 517              		@ frame_needed = 0, uses_anonymous_args = 0
  57:Modules/src/usart_com.c ****     if (huart->Instance == USART2) {
 518              		.loc 1 57 61 is_stmt 0 view .LVU102
 519 0000 08B5     		push	{r3, lr}
 520              	.LCFI17:
 521              		.cfi_def_cfa_offset 8
 522              		.cfi_offset 3, -8
 523              		.cfi_offset 14, -4
  58:Modules/src/usart_com.c ****         UartRxCheck();
 524              		.loc 1 58 5 is_stmt 1 view .LVU103
  58:Modules/src/usart_com.c ****         UartRxCheck();
 525              		.loc 1 58 14 is_stmt 0 view .LVU104
 526 0002 0268     		ldr	r2, [r0]
  58:Modules/src/usart_com.c ****         UartRxCheck();
 527              		.loc 1 58 8 view .LVU105
 528 0004 034B     		ldr	r3, .L43
 529 0006 9A42     		cmp	r2, r3
 530 0008 00D0     		beq	.L42
 531              	.LVL23:
 532              	.L39:
  61:Modules/src/usart_com.c **** 
 533              		.loc 1 61 1 view .LVU106
 534 000a 08BD     		pop	{r3, pc}
 535              	.LVL24:
 536              	.L42:
  59:Modules/src/usart_com.c ****     }
 537              		.loc 1 59 9 is_stmt 1 view .LVU107
 538 000c FFF7FEFF 		bl	UartRxCheck
 539              	.LVL25:
  61:Modules/src/usart_com.c **** 
 540              		.loc 1 61 1 is_stmt 0 view .LVU108
 541 0010 FBE7     		b	.L39
 542              	.L44:
 543 0012 00BF     		.align	2
 544              	.L43:
 545 0014 00440040 		.word	1073759232
 546              		.cfi_endproc
 547              	.LFE143:
 549              		.section	.text.HAL_UART_TxCpltCallback,"ax",%progbits
 550              		.align	1
 551              		.global	HAL_UART_TxCpltCallback
 552              		.syntax unified
 553              		.thumb
 554              		.thumb_func
 555              		.fpu fpv4-sp-d16
 557              	HAL_UART_TxCpltCallback:
 558              	.LVL26:
 559              	.LFB144:
  64:Modules/src/usart_com.c ****     if (huart->Instance == USART1) {
 560              		.loc 1 64 57 is_stmt 1 view -0
 561              		.cfi_startproc
 562              		@ args = 0, pretend = 0, frame = 8
 563              		@ frame_needed = 0, uses_anonymous_args = 0
  65:Modules/src/usart_com.c ****         BaseType_t higher_woken = pdFALSE;
ARM GAS  C:\Users\luoha\AppData\Local\Temp\cceXG0re.s 			page 14


 564              		.loc 1 65 5 view .LVU110
  65:Modules/src/usart_com.c ****         BaseType_t higher_woken = pdFALSE;
 565              		.loc 1 65 14 is_stmt 0 view .LVU111
 566 0000 0268     		ldr	r2, [r0]
  65:Modules/src/usart_com.c ****         BaseType_t higher_woken = pdFALSE;
 567              		.loc 1 65 8 view .LVU112
 568 0002 114B     		ldr	r3, .L54
 569 0004 9A42     		cmp	r2, r3
 570 0006 00D0     		beq	.L53
 571 0008 7047     		bx	lr
 572              	.L53:
  64:Modules/src/usart_com.c ****     if (huart->Instance == USART1) {
 573              		.loc 1 64 57 view .LVU113
 574 000a 00B5     		push	{lr}
 575              	.LCFI18:
 576              		.cfi_def_cfa_offset 4
 577              		.cfi_offset 14, -4
 578 000c 85B0     		sub	sp, sp, #20
 579              	.LCFI19:
 580              		.cfi_def_cfa_offset 24
 581              	.LBB4:
  66:Modules/src/usart_com.c ****         xTaskNotifyFromISR(system_view_notify, 0x02, eSetBits, &higher_woken);
 582              		.loc 1 66 9 is_stmt 1 view .LVU114
  66:Modules/src/usart_com.c ****         xTaskNotifyFromISR(system_view_notify, 0x02, eSetBits, &higher_woken);
 583              		.loc 1 66 20 is_stmt 0 view .LVU115
 584 000e 0023     		movs	r3, #0
 585 0010 0393     		str	r3, [sp, #12]
  67:Modules/src/usart_com.c ****         portYIELD_FROM_ISR(higher_woken);
 586              		.loc 1 67 9 is_stmt 1 view .LVU116
 587 0012 03AA     		add	r2, sp, #12
 588 0014 0092     		str	r2, [sp]
 589 0016 0122     		movs	r2, #1
 590 0018 0221     		movs	r1, #2
 591 001a 0C48     		ldr	r0, .L54+4
 592              	.LVL27:
  67:Modules/src/usart_com.c ****         portYIELD_FROM_ISR(higher_woken);
 593              		.loc 1 67 9 is_stmt 0 view .LVU117
 594 001c 0068     		ldr	r0, [r0]
 595 001e FFF7FEFF 		bl	xTaskGenericNotifyFromISR
 596              	.LVL28:
  68:Modules/src/usart_com.c ****         // uint8_t buffer[] = "HAL_UART_TxCpltCallback\r\n";
 597              		.loc 1 68 9 is_stmt 1 view .LVU118
 598 0022 039B     		ldr	r3, [sp, #12]
 599 0024 63B1     		cbz	r3, .L47
  68:Modules/src/usart_com.c ****         // uint8_t buffer[] = "HAL_UART_TxCpltCallback\r\n";
 600              		.loc 1 68 9 discriminator 1 view .LVU119
 601 0026 FFF7FEFF 		bl	SEGGER_SYSVIEW_RecordExitISRToScheduler
 602              	.LVL29:
  68:Modules/src/usart_com.c ****         // uint8_t buffer[] = "HAL_UART_TxCpltCallback\r\n";
 603              		.loc 1 68 9 discriminator 1 view .LVU120
 604 002a 094B     		ldr	r3, .L54+8
 605 002c 4FF08052 		mov	r2, #268435456
 606 0030 1A60     		str	r2, [r3]
  68:Modules/src/usart_com.c ****         // uint8_t buffer[] = "HAL_UART_TxCpltCallback\r\n";
 607              		.loc 1 68 9 discriminator 1 view .LVU121
 608              		.syntax unified
 609              	@ 68 "Modules/src/usart_com.c" 1
ARM GAS  C:\Users\luoha\AppData\Local\Temp\cceXG0re.s 			page 15


 610 0032 BFF34F8F 		dsb
 611              	@ 0 "" 2
  68:Modules/src/usart_com.c ****         // uint8_t buffer[] = "HAL_UART_TxCpltCallback\r\n";
 612              		.loc 1 68 9 discriminator 1 view .LVU122
 613              	@ 68 "Modules/src/usart_com.c" 1
 614 0036 BFF36F8F 		isb
 615              	@ 0 "" 2
  68:Modules/src/usart_com.c ****         // uint8_t buffer[] = "HAL_UART_TxCpltCallback\r\n";
 616              		.loc 1 68 9 discriminator 1 view .LVU123
 617              		.thumb
 618              		.syntax unified
 619              	.L45:
 620              	.LBE4:
  72:Modules/src/usart_com.c **** #endif 
 621              		.loc 1 72 1 is_stmt 0 view .LVU124
 622 003a 05B0     		add	sp, sp, #20
 623              	.LCFI20:
 624              		.cfi_remember_state
 625              		.cfi_def_cfa_offset 4
 626              		@ sp needed
 627 003c 5DF804FB 		ldr	pc, [sp], #4
 628              	.L47:
 629              	.LCFI21:
 630              		.cfi_restore_state
 631              	.LBB5:
  68:Modules/src/usart_com.c ****         // uint8_t buffer[] = "HAL_UART_TxCpltCallback\r\n";
 632              		.loc 1 68 9 is_stmt 1 discriminator 2 view .LVU125
 633 0040 FFF7FEFF 		bl	SEGGER_SYSVIEW_RecordExitISR
 634              	.LVL30:
  68:Modules/src/usart_com.c ****         // uint8_t buffer[] = "HAL_UART_TxCpltCallback\r\n";
 635              		.loc 1 68 41 discriminator 2 view .LVU126
 636              	.LBE5:
  72:Modules/src/usart_com.c **** #endif 
 637              		.loc 1 72 1 is_stmt 0 discriminator 2 view .LVU127
 638 0044 F9E7     		b	.L45
 639              	.L55:
 640 0046 00BF     		.align	2
 641              	.L54:
 642 0048 00100140 		.word	1073811456
 643 004c 00000000 		.word	.LANCHOR4
 644 0050 04ED00E0 		.word	-536810236
 645              		.cfi_endproc
 646              	.LFE144:
 648              		.global	system_view_notify
 649              		.comm	usart2_queue,4,4
 650              		.section	.bss.old_pos.10434,"aw",%nobits
 651              		.align	2
 652              		.set	.LANCHOR0,. + 0
 655              	old_pos.10434:
 656 0000 00000000 		.space	4
 657              		.section	.bss.osSys_usart2_queueMgm,"aw",%nobits
 658              		.align	2
 659              		.set	.LANCHOR2,. + 0
 662              	osSys_usart2_queueMgm:
 663 0000 00000000 		.space	72
 663      00000000 
 663      00000000 
ARM GAS  C:\Users\luoha\AppData\Local\Temp\cceXG0re.s 			page 16


 663      00000000 
 663      00000000 
 664              		.section	.bss.osSys_usart2_queueStorage,"aw",%nobits
 665              		.align	2
 666              		.set	.LANCHOR3,. + 0
 669              	osSys_usart2_queueStorage:
 670 0000 00000000 		.space	40
 670      00000000 
 670      00000000 
 670      00000000 
 670      00000000 
 671              		.section	.bss.rx_buffer,"aw",%nobits
 672              		.align	2
 673              		.set	.LANCHOR1,. + 0
 676              	rx_buffer:
 677 0000 00000000 		.space	128
 677      00000000 
 677      00000000 
 677      00000000 
 677      00000000 
 678              		.section	.bss.system_view_notify,"aw",%nobits
 679              		.align	2
 680              		.set	.LANCHOR4,. + 0
 683              	system_view_notify:
 684 0000 00000000 		.space	4
 685              		.text
 686              	.Letext0:
 687              		.file 2 "e:\\gnu tools arm embedded\\9 2019-q4-major\\arm-none-eabi\\include\\machine\\_default_ty
 688              		.file 3 "e:\\gnu tools arm embedded\\9 2019-q4-major\\arm-none-eabi\\include\\sys\\_stdint.h"
 689              		.file 4 "Drivers/CMSIS/Include/core_cm4.h"
 690              		.file 5 "Drivers/CMSIS/Device/ST/STM32F4xx/Include/system_stm32f4xx.h"
 691              		.file 6 "Drivers/CMSIS/Device/ST/STM32F4xx/Include/stm32f407xx.h"
 692              		.file 7 "e:\\gnu tools arm embedded\\9 2019-q4-major\\lib\\gcc\\arm-none-eabi\\9.2.1\\include\\std
 693              		.file 8 "Drivers/CMSIS/Device/ST/STM32F4xx/Include/stm32f4xx.h"
 694              		.file 9 "Drivers/STM32F4xx_HAL_Driver/Inc/stm32f4xx_hal_def.h"
 695              		.file 10 "Drivers/STM32F4xx_HAL_Driver/Inc/stm32f4xx_hal_dma.h"
 696              		.file 11 "Drivers/STM32F4xx_HAL_Driver/Inc/stm32f4xx_hal_uart.h"
 697              		.file 12 "Drivers/STM32F4xx_HAL_Driver/Inc/stm32f4xx_hal.h"
 698              		.file 13 "e:\\gnu tools arm embedded\\9 2019-q4-major\\arm-none-eabi\\include\\sys\\lock.h"
 699              		.file 14 "e:\\gnu tools arm embedded\\9 2019-q4-major\\arm-none-eabi\\include\\sys\\_types.h"
 700              		.file 15 "e:\\gnu tools arm embedded\\9 2019-q4-major\\arm-none-eabi\\include\\sys\\reent.h"
 701              		.file 16 "Modules/include/utils.h"
 702              		.file 17 "Inc/usart.h"
 703              		.file 18 "Middlewares/Third_Party/SystemView/SEGGER/SEGGER_SYSVIEW.h"
 704              		.file 19 "Middlewares/Third_Party/FreeRTOS/Source/portable/GCC/ARM_CM4F/portmacro.h"
 705              		.file 20 "Middlewares/Third_Party/FreeRTOS/Source/include/FreeRTOS.h"
 706              		.file 21 "Middlewares/Third_Party/FreeRTOS/Source/include/task.h"
 707              		.file 22 "Middlewares/Third_Party/FreeRTOS/Source/include/queue.h"
 708              		.file 23 "Modules/include/usart_com.h"
ARM GAS  C:\Users\luoha\AppData\Local\Temp\cceXG0re.s 			page 17

