ARM GAS  C:\Users\luoha\AppData\Local\Temp\cc0hmNtl.s 			page 1


   1              		.cpu cortex-m4
   2              		.eabi_attribute 27, 1
   3              		.eabi_attribute 28, 1
   4              		.eabi_attribute 20, 1
   5              		.eabi_attribute 21, 1
   6              		.eabi_attribute 23, 3
   7              		.eabi_attribute 24, 1
   8              		.eabi_attribute 25, 1
   9              		.eabi_attribute 26, 1
  10              		.eabi_attribute 30, 1
  11              		.eabi_attribute 34, 1
  12              		.eabi_attribute 18, 4
  13              		.file	"utils.c"
  14              		.text
  15              	.Ltext0:
  16              		.cfi_sections	.debug_frame
  17              		.section	.rodata.itoa.str1.4,"aMS",%progbits,1
  18              		.align	2
  19              	.LC0:
  20 0000 7A797877 		.ascii	"zyxwvutsrqponmlkjihgfedcba9876543210123456789abcdef"
  20      76757473 
  20      7271706F 
  20      6E6D6C6B 
  20      6A696867 
  21 0033 6768696A 		.ascii	"ghijklmnopqrstuvwxyz\000"
  21      6B6C6D6E 
  21      6F707172 
  21      73747576 
  21      7778797A 
  22              		.section	.text.itoa,"ax",%progbits
  23              		.align	1
  24              		.global	itoa
  25              		.arch armv7e-m
  26              		.syntax unified
  27              		.thumb
  28              		.thumb_func
  29              		.fpu fpv4-sp-d16
  31              	itoa:
  32              	.LVL0:
  33              	.LFB133:
  34              		.file 1 "Modules/src/utils.c"
   1:Modules/src/utils.c **** #include "utils.h"
   2:Modules/src/utils.c **** 
   3:Modules/src/utils.c **** #ifdef __GNUC__
   4:Modules/src/utils.c **** #define PUTCHAR_PROTOTYPE int __io_putchar(int ch)
   5:Modules/src/utils.c **** #else
   6:Modules/src/utils.c **** #define PUTCHAR_PROTOTYPE int fputc(int ch, FILE *f)
   7:Modules/src/utils.c **** #endif
   8:Modules/src/utils.c **** 
   9:Modules/src/utils.c **** 
  10:Modules/src/utils.c **** // PUTCHAR_PROTOTYPE {
  11:Modules/src/utils.c **** //     /* Place your implementation of fputc here */
  12:Modules/src/utils.c **** //     /* e.g. write a character to the USART1 and Loop until the end of transmission */
  13:Modules/src/utils.c **** //     HAL_UART_Transmit(&huart1, (uint8_t *)&ch, 1, 0xFFFF);
  14:Modules/src/utils.c **** //     return ch;
  15:Modules/src/utils.c **** // }
  16:Modules/src/utils.c **** 
ARM GAS  C:\Users\luoha\AppData\Local\Temp\cc0hmNtl.s 			page 2


  17:Modules/src/utils.c **** // int _write(int32_t file, uint8_t *ptr, int32_t len) {
  18:Modules/src/utils.c **** //     /* Implement your write code here, this is used by puts and printf for example */
  19:Modules/src/utils.c **** //     int DataIdx;
  20:Modules/src/utils.c **** //     for (DataIdx = 0; DataIdx < len; DataIdx++) {
  21:Modules/src/utils.c **** //         __io_putchar(*ptr++);
  22:Modules/src/utils.c **** //     }
  23:Modules/src/utils.c **** //     // HAL_UART_Transmit_DMA(&huart1, ptr, len);
  24:Modules/src/utils.c **** //     return len;
  25:Modules/src/utils.c **** //     /* return len; */
  26:Modules/src/utils.c **** // }
  27:Modules/src/utils.c **** 
  28:Modules/src/utils.c **** 
  29:Modules/src/utils.c **** char *itoa(int value, char *result, int base) {
  35              		.loc 1 29 47 view -0
  36              		.cfi_startproc
  37              		@ args = 0, pretend = 0, frame = 0
  38              		@ frame_needed = 0, uses_anonymous_args = 0
  39              		@ link register save eliminated.
  40              		.loc 1 29 47 is_stmt 0 view .LVU1
  41 0000 F0B4     		push	{r4, r5, r6, r7}
  42              	.LCFI0:
  43              		.cfi_def_cfa_offset 16
  44              		.cfi_offset 4, -16
  45              		.cfi_offset 5, -12
  46              		.cfi_offset 6, -8
  47              		.cfi_offset 7, -4
  48 0002 0546     		mov	r5, r0
  49 0004 0846     		mov	r0, r1
  50              	.LVL1:
  30:Modules/src/utils.c ****     // check that the base if valid
  31:Modules/src/utils.c ****     if (base < 2 || base > 36) {
  51              		.loc 1 31 5 is_stmt 1 view .LVU2
  52              		.loc 1 31 18 is_stmt 0 view .LVU3
  53 0006 931E     		subs	r3, r2, #2
  54              		.loc 1 31 8 view .LVU4
  55 0008 222B     		cmp	r3, #34
  56 000a 14D8     		bhi	.L9
  32:Modules/src/utils.c ****         *result = '\0';
  33:Modules/src/utils.c ****         return result;
  34:Modules/src/utils.c ****     }
  35:Modules/src/utils.c **** 
  36:Modules/src/utils.c ****     char *ptr = result, *ptr1 = result, tmp_char;
  57              		.loc 1 36 11 view .LVU5
  58 000c 0B46     		mov	r3, r1
  59              	.LVL2:
  60              	.L2:
  37:Modules/src/utils.c ****     int tmp_value;
  61              		.loc 1 37 5 is_stmt 1 discriminator 1 view .LVU6
  38:Modules/src/utils.c **** 
  39:Modules/src/utils.c ****     do {
  62              		.loc 1 39 5 discriminator 1 view .LVU7
  40:Modules/src/utils.c ****         tmp_value = value;
  63              		.loc 1 40 9 discriminator 1 view .LVU8
  41:Modules/src/utils.c ****         value /= base;
  64              		.loc 1 41 9 discriminator 1 view .LVU9
  65 000e 2E46     		mov	r6, r5
  66              		.loc 1 41 15 is_stmt 0 discriminator 1 view .LVU10
ARM GAS  C:\Users\luoha\AppData\Local\Temp\cc0hmNtl.s 			page 3


  67 0010 95FBF2F5 		sdiv	r5, r5, r2
  68              	.LVL3:
  42:Modules/src/utils.c ****         *ptr++ = "zyxwvutsrqponmlkjihgfedcba9876543210123456789abcdefghijklmnopqrstuvwxyz"[35 + (tm
  69              		.loc 1 42 9 is_stmt 1 discriminator 1 view .LVU11
  70              		.loc 1 42 95 is_stmt 0 discriminator 1 view .LVU12
  71 0014 02FB1564 		mls	r4, r2, r5, r6
  72 0018 2334     		adds	r4, r4, #35
  73 001a 1946     		mov	r1, r3
  74              		.loc 1 42 13 discriminator 1 view .LVU13
  75 001c 0133     		adds	r3, r3, #1
  76              	.LVL4:
  77              		.loc 1 42 91 discriminator 1 view .LVU14
  78 001e 0E4F     		ldr	r7, .L11
  79 0020 3C5D     		ldrb	r4, [r7, r4]	@ zero_extendqisi2
  80              		.loc 1 42 16 discriminator 1 view .LVU15
  81 0022 0C70     		strb	r4, [r1]
  43:Modules/src/utils.c ****     } while (value);
  82              		.loc 1 43 13 is_stmt 1 discriminator 1 view .LVU16
  83              		.loc 1 43 5 is_stmt 0 discriminator 1 view .LVU17
  84 0024 002D     		cmp	r5, #0
  85 0026 F2D1     		bne	.L2
  44:Modules/src/utils.c **** 
  45:Modules/src/utils.c ****     // Apply negative sign
  46:Modules/src/utils.c ****     if (tmp_value < 0) *ptr++ = '-';
  86              		.loc 1 46 5 is_stmt 1 view .LVU18
  87              		.loc 1 46 8 is_stmt 0 view .LVU19
  88 0028 002E     		cmp	r6, #0
  89 002a 07DB     		blt	.L10
  90              	.LVL5:
  91              	.L4:
  47:Modules/src/utils.c ****     *ptr-- = '\0';
  92              		.loc 1 47 5 is_stmt 1 view .LVU20
  93              		.loc 1 47 12 is_stmt 0 view .LVU21
  94 002c 0022     		movs	r2, #0
  95 002e 03F80129 		strb	r2, [r3], #-1
  96              	.LVL6:
  48:Modules/src/utils.c ****     while (ptr1 < ptr) {
  97              		.loc 1 48 5 is_stmt 1 view .LVU22
  36:Modules/src/utils.c ****     int tmp_value;
  98              		.loc 1 36 26 is_stmt 0 view .LVU23
  99 0032 0246     		mov	r2, r0
 100              		.loc 1 48 11 view .LVU24
 101 0034 0CE0     		b	.L5
 102              	.LVL7:
 103              	.L9:
  32:Modules/src/utils.c ****         return result;
 104              		.loc 1 32 9 is_stmt 1 view .LVU25
  32:Modules/src/utils.c ****         return result;
 105              		.loc 1 32 17 is_stmt 0 view .LVU26
 106 0036 0023     		movs	r3, #0
 107 0038 0B70     		strb	r3, [r1]
  33:Modules/src/utils.c ****     }
 108              		.loc 1 33 9 is_stmt 1 view .LVU27
  33:Modules/src/utils.c ****     }
 109              		.loc 1 33 16 is_stmt 0 view .LVU28
 110 003a 0BE0     		b	.L3
 111              	.LVL8:
ARM GAS  C:\Users\luoha\AppData\Local\Temp\cc0hmNtl.s 			page 4


 112              	.L10:
  46:Modules/src/utils.c ****     *ptr-- = '\0';
 113              		.loc 1 46 24 is_stmt 1 discriminator 1 view .LVU29
  46:Modules/src/utils.c ****     *ptr-- = '\0';
 114              		.loc 1 46 31 is_stmt 0 discriminator 1 view .LVU30
 115 003c 2D22     		movs	r2, #45
 116              	.LVL9:
  46:Modules/src/utils.c ****     *ptr-- = '\0';
 117              		.loc 1 46 31 discriminator 1 view .LVU31
 118 003e 1A70     		strb	r2, [r3]
  46:Modules/src/utils.c ****     *ptr-- = '\0';
 119              		.loc 1 46 28 discriminator 1 view .LVU32
 120 0040 8B1C     		adds	r3, r1, #2
 121              	.LVL10:
  46:Modules/src/utils.c ****     *ptr-- = '\0';
 122              		.loc 1 46 28 discriminator 1 view .LVU33
 123 0042 F3E7     		b	.L4
 124              	.LVL11:
 125              	.L6:
  49:Modules/src/utils.c ****         tmp_char = *ptr;
 126              		.loc 1 49 9 is_stmt 1 view .LVU34
 127              		.loc 1 49 18 is_stmt 0 view .LVU35
 128 0044 1978     		ldrb	r1, [r3]	@ zero_extendqisi2
 129              	.LVL12:
  50:Modules/src/utils.c ****         *ptr--   = *ptr1;
 130              		.loc 1 50 9 is_stmt 1 view .LVU36
 131              		.loc 1 50 20 is_stmt 0 view .LVU37
 132 0046 1478     		ldrb	r4, [r2]	@ zero_extendqisi2
 133              		.loc 1 50 18 view .LVU38
 134 0048 03F80149 		strb	r4, [r3], #-1
 135              	.LVL13:
  51:Modules/src/utils.c ****         *ptr1++  = tmp_char;
 136              		.loc 1 51 9 is_stmt 1 view .LVU39
 137              		.loc 1 51 18 is_stmt 0 view .LVU40
 138 004c 02F8011B 		strb	r1, [r2], #1
 139              	.LVL14:
 140              	.L5:
  48:Modules/src/utils.c ****         tmp_char = *ptr;
 141              		.loc 1 48 11 is_stmt 1 view .LVU41
 142 0050 9342     		cmp	r3, r2
 143 0052 F7D8     		bhi	.L6
 144              	.LVL15:
 145              	.L3:
  52:Modules/src/utils.c ****     }
  53:Modules/src/utils.c ****     return result;
  54:Modules/src/utils.c **** }
 146              		.loc 1 54 1 is_stmt 0 view .LVU42
 147 0054 F0BC     		pop	{r4, r5, r6, r7}
 148              	.LCFI1:
 149              		.cfi_restore 7
 150              		.cfi_restore 6
 151              		.cfi_restore 5
 152              		.cfi_restore 4
 153              		.cfi_def_cfa_offset 0
 154              	.LVL16:
 155              		.loc 1 54 1 view .LVU43
 156 0056 7047     		bx	lr
ARM GAS  C:\Users\luoha\AppData\Local\Temp\cc0hmNtl.s 			page 5


 157              	.L12:
 158              		.align	2
 159              	.L11:
 160 0058 00000000 		.word	.LC0
 161              		.cfi_endproc
 162              	.LFE133:
 164              		.text
 165              	.Letext0:
 166              		.file 2 "e:\\gnu tools arm embedded\\9 2019-q4-major\\arm-none-eabi\\include\\machine\\_default_ty
 167              		.file 3 "e:\\gnu tools arm embedded\\9 2019-q4-major\\arm-none-eabi\\include\\sys\\_stdint.h"
 168              		.file 4 "Drivers/CMSIS/Include/core_cm4.h"
 169              		.file 5 "Drivers/CMSIS/Device/ST/STM32F4xx/Include/system_stm32f4xx.h"
 170              		.file 6 "Drivers/CMSIS/Device/ST/STM32F4xx/Include/stm32f407xx.h"
 171              		.file 7 "Drivers/STM32F4xx_HAL_Driver/Inc/stm32f4xx_hal_def.h"
 172              		.file 8 "Drivers/STM32F4xx_HAL_Driver/Inc/stm32f4xx_hal_dma.h"
 173              		.file 9 "Drivers/STM32F4xx_HAL_Driver/Inc/stm32f4xx_hal_uart.h"
 174              		.file 10 "Drivers/STM32F4xx_HAL_Driver/Inc/stm32f4xx_hal.h"
 175              		.file 11 "e:\\gnu tools arm embedded\\9 2019-q4-major\\arm-none-eabi\\include\\sys\\lock.h"
 176              		.file 12 "e:\\gnu tools arm embedded\\9 2019-q4-major\\arm-none-eabi\\include\\sys\\_types.h"
 177              		.file 13 "e:\\gnu tools arm embedded\\9 2019-q4-major\\lib\\gcc\\arm-none-eabi\\9.2.1\\include\\st
 178              		.file 14 "e:\\gnu tools arm embedded\\9 2019-q4-major\\arm-none-eabi\\include\\sys\\reent.h"
 179              		.file 15 "Modules/include/utils.h"
ARM GAS  C:\Users\luoha\AppData\Local\Temp\cc0hmNtl.s 			page 6

